Archive member included to satisfy reference by file (symbol)

c:/mingw/bin/../lib/gcc/mingw32/6.3.0/../../../libadvapi32.a(dchcs00434.o)
                              winstore.o (RegSetValueExA@24)
c:/mingw/bin/../lib/gcc/mingw32/6.3.0/../../../libadvapi32.a(dchcs00423.o)
                              wingss.o (RegQueryValueExA@24)
c:/mingw/bin/../lib/gcc/mingw32/6.3.0/../../../libadvapi32.a(dchcs00412.o)
                              wingss.o (RegOpenKeyA@12)
c:/mingw/bin/../lib/gcc/mingw32/6.3.0/../../../libadvapi32.a(dchcs00400.o)
                              winstore.o (RegEnumKeyA@16)
c:/mingw/bin/../lib/gcc/mingw32/6.3.0/../../../libadvapi32.a(dchcs00397.o)
                              winstore.o (RegDeleteValueA@8)
c:/mingw/bin/../lib/gcc/mingw32/6.3.0/../../../libadvapi32.a(dchcs00393.o)
                              winstore.o (RegDeleteKeyA@8)
c:/mingw/bin/../lib/gcc/mingw32/6.3.0/../../../libadvapi32.a(dchcs00390.o)
                              winstore.o (RegCreateKeyExA@36)
c:/mingw/bin/../lib/gcc/mingw32/6.3.0/../../../libadvapi32.a(dchcs00389.o)
                              winmisc.o (RegCreateKeyA@12)
c:/mingw/bin/../lib/gcc/mingw32/6.3.0/../../../libadvapi32.a(dchcs00386.o)
                              wingss.o (RegCloseKey@4)
c:/mingw/bin/../lib/gcc/mingw32/6.3.0/../../../libadvapi32.a(dchcs00245.o)
                              winmisc.o (GetUserNameA@8)
c:/mingw/bin/../lib/gcc/mingw32/6.3.0/../../../libadvapi32.a(dchch.o)
                              c:/mingw/bin/../lib/gcc/mingw32/6.3.0/../../../libadvapi32.a(dchcs00434.o) (_head_libadvapi32_a)
c:/mingw/bin/../lib/gcc/mingw32/6.3.0/../../../libadvapi32.a(dchct.o)
                              c:/mingw/bin/../lib/gcc/mingw32/6.3.0/../../../libadvapi32.a(dchch.o) (_libadvapi32_a_iname)
c:/mingw/bin/../lib/gcc/mingw32/6.3.0/../../../libcomdlg32.a(duhcs00011.o)
                              winutils.o (GetSaveFileNameA@4)
c:/mingw/bin/../lib/gcc/mingw32/6.3.0/../../../libcomdlg32.a(duhcs00009.o)
                              winutils.o (GetOpenFileNameA@4)
c:/mingw/bin/../lib/gcc/mingw32/6.3.0/../../../libcomdlg32.a(duhcs00002.o)
                              winctrls.o (ChooseFontA@4)
c:/mingw/bin/../lib/gcc/mingw32/6.3.0/../../../libcomdlg32.a(duhcs00000.o)
                              winctrls.o (ChooseColorA@4)
c:/mingw/bin/../lib/gcc/mingw32/6.3.0/../../../libcomdlg32.a(duhch.o)
                              c:/mingw/bin/../lib/gcc/mingw32/6.3.0/../../../libcomdlg32.a(duhcs00011.o) (_head_libcomdlg32_a)
c:/mingw/bin/../lib/gcc/mingw32/6.3.0/../../../libcomdlg32.a(duhct.o)
                              c:/mingw/bin/../lib/gcc/mingw32/6.3.0/../../../libcomdlg32.a(duhch.o) (_libcomdlg32_a_iname)
c:/mingw/bin/../lib/gcc/mingw32/6.3.0/../../../libgdi32.a(dpics00343.o)
                              window.o (UpdateColors@4)
c:/mingw/bin/../lib/gcc/mingw32/6.3.0/../../../libgdi32.a(dpics00342.o)
                              window.o (UnrealizeObject@4)
c:/mingw/bin/../lib/gcc/mingw32/6.3.0/../../../libgdi32.a(dpics00341.o)
                              window.o (TranslateCharsetInfo@12)
c:/mingw/bin/../lib/gcc/mingw32/6.3.0/../../../libgdi32.a(dpics00339.o)
                              sizetip.o (TextOutA@20)
c:/mingw/bin/../lib/gcc/mingw32/6.3.0/../../../libgdi32.a(dpics00323.o)
                              sizetip.o (SetTextColor@8)
c:/mingw/bin/../lib/gcc/mingw32/6.3.0/../../../libgdi32.a(dpics00321.o)
                              window.o (SetTextAlign@8)
c:/mingw/bin/../lib/gcc/mingw32/6.3.0/../../../libgdi32.a(dpics00312.o)
                              window.o (SetPixel@16)
c:/mingw/bin/../lib/gcc/mingw32/6.3.0/../../../libgdi32.a(dpics00311.o)
                              window.o (SetPaletteEntries@16)
c:/mingw/bin/../lib/gcc/mingw32/6.3.0/../../../libgdi32.a(dpics00306.o)
                              winctrls.o (SetMapMode@8)
c:/mingw/bin/../lib/gcc/mingw32/6.3.0/../../../libgdi32.a(dpics00288.o)
                              window.o (SetBkMode@8)
c:/mingw/bin/../lib/gcc/mingw32/6.3.0/../../../libgdi32.a(dpics00287.o)
                              sizetip.o (SetBkColor@8)
c:/mingw/bin/../lib/gcc/mingw32/6.3.0/../../../libgdi32.a(dpics00282.o)
                              window.o (SelectPalette@12)
c:/mingw/bin/../lib/gcc/mingw32/6.3.0/../../../libgdi32.a(dpics00281.o)
                              sizetip.o (SelectObject@8)
c:/mingw/bin/../lib/gcc/mingw32/6.3.0/../../../libgdi32.a(dpics00263.o)
                              sizetip.o (Rectangle@20)
c:/mingw/bin/../lib/gcc/mingw32/6.3.0/../../../libgdi32.a(dpics00260.o)
                              window.o (RealizePalette@4)
c:/mingw/bin/../lib/gcc/mingw32/6.3.0/../../../libgdi32.a(dpics00256.o)
                              window.o (Polyline@12)
c:/mingw/bin/../lib/gcc/mingw32/6.3.0/../../../libgdi32.a(dpics00234.o)
                              window.o (MoveToEx@16)
c:/mingw/bin/../lib/gcc/mingw32/6.3.0/../../../libgdi32.a(dpics00231.o)
                              window.o (LineTo@12)
c:/mingw/bin/../lib/gcc/mingw32/6.3.0/../../../libgdi32.a(dpics00227.o)
                              window.o (IntersectClipRect@20)
c:/mingw/bin/../lib/gcc/mingw32/6.3.0/../../../libgdi32.a(dpics00219.o)
                              winctrls.o (GetTextMetricsA@8)
c:/mingw/bin/../lib/gcc/mingw32/6.3.0/../../../libgdi32.a(dpics00213.o)
                              sizetip.o (GetTextExtentPoint32A@16)
c:/mingw/bin/../lib/gcc/mingw32/6.3.0/../../../libgdi32.a(dpics00210.o)
                              winctrls.o (GetTextExtentExPointA@28)
c:/mingw/bin/../lib/gcc/mingw32/6.3.0/../../../libgdi32.a(dpics00201.o)
                              sizetip.o (GetStockObject@4)
c:/mingw/bin/../lib/gcc/mingw32/6.3.0/../../../libgdi32.a(dpics00192.o)
                              window.o (GetPixel@12)
c:/mingw/bin/../lib/gcc/mingw32/6.3.0/../../../libgdi32.a(dpics00185.o)
                              window.o (GetObjectA@12)
c:/mingw/bin/../lib/gcc/mingw32/6.3.0/../../../libgdi32.a(dpics00148.o)
                              winctrls.o (GetDeviceCaps@8)
c:/mingw/bin/../lib/gcc/mingw32/6.3.0/../../../libgdi32.a(dpics00136.o)
                              window.o (GetCharacterPlacementW@24)
c:/mingw/bin/../lib/gcc/mingw32/6.3.0/../../../libgdi32.a(dpics00134.o)
                              window.o (GetCharWidthW@16)
c:/mingw/bin/../lib/gcc/mingw32/6.3.0/../../../libgdi32.a(dpics00131.o)
                              window.o (GetCharWidthA@16)
c:/mingw/bin/../lib/gcc/mingw32/6.3.0/../../../libgdi32.a(dpics00130.o)
                              window.o (GetCharWidth32W@16)
c:/mingw/bin/../lib/gcc/mingw32/6.3.0/../../../libgdi32.a(dpics00129.o)
                              window.o (GetCharWidth32A@16)
c:/mingw/bin/../lib/gcc/mingw32/6.3.0/../../../libgdi32.a(dpics00126.o)
                              window.o (GetCharABCWidthsFloatA@16)
c:/mingw/bin/../lib/gcc/mingw32/6.3.0/../../../libgdi32.a(dpics00122.o)
                              window.o (GetBkMode@4)
c:/mingw/bin/../lib/gcc/mingw32/6.3.0/../../../libgdi32.a(dpics00103.o)
                              window.o (ExtTextOutW@32)
c:/mingw/bin/../lib/gcc/mingw32/6.3.0/../../../libgdi32.a(dpics00102.o)
                              window.o (ExtTextOutA@32)
c:/mingw/bin/../lib/gcc/mingw32/6.3.0/../../../libgdi32.a(dpics00096.o)
                              window.o (ExcludeClipRect@20)
c:/mingw/bin/../lib/gcc/mingw32/6.3.0/../../../libgdi32.a(dpics00073.o)
                              sizetip.o (DeleteObject@4)
c:/mingw/bin/../lib/gcc/mingw32/6.3.0/../../../libgdi32.a(dpics00070.o)
                              sizetip.o (DeleteDC@4)
c:/mingw/bin/../lib/gcc/mingw32/6.3.0/../../../libgdi32.a(dpics00067.o)
                              sizetip.o (CreateSolidBrush@4)
c:/mingw/bin/../lib/gcc/mingw32/6.3.0/../../../libgdi32.a(dpics00058.o)
                              window.o (CreatePen@12)
c:/mingw/bin/../lib/gcc/mingw32/6.3.0/../../../libgdi32.a(dpics00056.o)
                              window.o (CreatePalette@4)
c:/mingw/bin/../lib/gcc/mingw32/6.3.0/../../../libgdi32.a(dpics00047.o)
                              sizetip.o (CreateFontIndirectA@4)
c:/mingw/bin/../lib/gcc/mingw32/6.3.0/../../../libgdi32.a(dpics00046.o)
                              winctrls.o (CreateFontA@56)
c:/mingw/bin/../lib/gcc/mingw32/6.3.0/../../../libgdi32.a(dpics00034.o)
                              sizetip.o (CreateCompatibleDC@4)
c:/mingw/bin/../lib/gcc/mingw32/6.3.0/../../../libgdi32.a(dpics00033.o)
                              window.o (CreateCompatibleBitmap@12)
c:/mingw/bin/../lib/gcc/mingw32/6.3.0/../../../libgdi32.a(dpics00028.o)
                              window.o (CreateBitmap@20)
c:/mingw/bin/../lib/gcc/mingw32/6.3.0/../../../libgdi32.a(dpich.o)
                              c:/mingw/bin/../lib/gcc/mingw32/6.3.0/../../../libgdi32.a(dpics00343.o) (_head_libgdi32_a)
c:/mingw/bin/../lib/gcc/mingw32/6.3.0/../../../libgdi32.a(dpict.o)
                              c:/mingw/bin/../lib/gcc/mingw32/6.3.0/../../../libgdi32.a(dpich.o) (_libgdi32_a_iname)
c:/mingw/bin/../lib/gcc/mingw32/6.3.0/../../../libimm32.a(dojcs00065.o)
                              window.o (ImmSetCompositionWindow@8)
c:/mingw/bin/../lib/gcc/mingw32/6.3.0/../../../libimm32.a(dojcs00061.o)
                              window.o (ImmSetCompositionFontA@8)
c:/mingw/bin/../lib/gcc/mingw32/6.3.0/../../../libimm32.a(dojcs00059.o)
                              window.o (ImmReleaseContext@8)
c:/mingw/bin/../lib/gcc/mingw32/6.3.0/../../../libimm32.a(dojcs00025.o)
                              window.o (ImmGetContext@4)
c:/mingw/bin/../lib/gcc/mingw32/6.3.0/../../../libimm32.a(dojcs00023.o)
                              window.o (ImmGetCompositionStringW@16)
c:/mingw/bin/../lib/gcc/mingw32/6.3.0/../../../libimm32.a(dojch.o)
                              c:/mingw/bin/../lib/gcc/mingw32/6.3.0/../../../libimm32.a(dojcs00065.o) (_head_libimm32_a)
c:/mingw/bin/../lib/gcc/mingw32/6.3.0/../../../libimm32.a(dojct.o)
                              c:/mingw/bin/../lib/gcc/mingw32/6.3.0/../../../libimm32.a(dojch.o) (_libimm32_a_iname)
c:/mingw/bin/../lib/gcc/mingw32/6.3.0/../../../libole32.a(damcs00072.o)
                              window.o (CoUninitialize@0)
c:/mingw/bin/../lib/gcc/mingw32/6.3.0/../../../libole32.a(damcs00037.o)
                              window.o (CoInitialize@4)
c:/mingw/bin/../lib/gcc/mingw32/6.3.0/../../../libole32.a(damcs00012.o)
                              winjump.o (CoCreateInstance@20)
c:/mingw/bin/../lib/gcc/mingw32/6.3.0/../../../libole32.a(damch.o)
                              c:/mingw/bin/../lib/gcc/mingw32/6.3.0/../../../libole32.a(damcs00072.o) (_head_libole32_a)
c:/mingw/bin/../lib/gcc/mingw32/6.3.0/../../../libole32.a(damct.o)
                              c:/mingw/bin/../lib/gcc/mingw32/6.3.0/../../../libole32.a(damch.o) (_libole32_a_iname)
c:/mingw/bin/../lib/gcc/mingw32/6.3.0/../../../libshell32.a(duocs00144.o)
                              windlg.o (ShellExecuteA@24)
c:/mingw/bin/../lib/gcc/mingw32/6.3.0/../../../libshell32.a(duoch.o)
                              c:/mingw/bin/../lib/gcc/mingw32/6.3.0/../../../libshell32.a(duocs00144.o) (_head_libshell32_a)
c:/mingw/bin/../lib/gcc/mingw32/6.3.0/../../../libshell32.a(duoct.o)
                              c:/mingw/bin/../lib/gcc/mingw32/6.3.0/../../../libshell32.a(duoch.o) (_libshell32_a_iname)
c:/mingw/bin/../lib/gcc/mingw32/6.3.0/../../../libuser32.a(dtpcs00622.o)
                              window.o (UpdateWindow@4)
c:/mingw/bin/../lib/gcc/mingw32/6.3.0/../../../libuser32.a(dtpcs00608.o)
                              window.o (TranslateMessage@4)
c:/mingw/bin/../lib/gcc/mingw32/6.3.0/../../../libuser32.a(dtpcs00602.o)
                              window.o (TrackPopupMenu@28)
c:/mingw/bin/../lib/gcc/mingw32/6.3.0/../../../libuser32.a(dtpcs00598.o)
                              window.o (ToAsciiEx@24)
c:/mingw/bin/../lib/gcc/mingw32/6.3.0/../../../libuser32.a(dtpcs00591.o)
                              sizetip.o (SystemParametersInfoA@16)
c:/mingw/bin/../lib/gcc/mingw32/6.3.0/../../../libuser32.a(dtpcs00585.o)
                              sizetip.o (ShowWindow@8)
c:/mingw/bin/../lib/gcc/mingw32/6.3.0/../../../libuser32.a(dtpcs00582.o)
                              window.o (ShowCursor@4)
c:/mingw/bin/../lib/gcc/mingw32/6.3.0/../../../libuser32.a(dtpcs00581.o)
                              window.o (ShowCaret@4)
c:/mingw/bin/../lib/gcc/mingw32/6.3.0/../../../libuser32.a(dtpcs00574.o)
                              sizetip.o (SetWindowTextA@8)
c:/mingw/bin/../lib/gcc/mingw32/6.3.0/../../../libuser32.a(dtpcs00572.o)
                              sizetip.o (SetWindowPos@28)
c:/mingw/bin/../lib/gcc/mingw32/6.3.0/../../../libuser32.a(dtpcs00571.o)
                              windlg.o (SetWindowPlacement@8)
c:/mingw/bin/../lib/gcc/mingw32/6.3.0/../../../libuser32.a(dtpcs00569.o)
                              winctrls.o (SetWindowLongA@12)
c:/mingw/bin/../lib/gcc/mingw32/6.3.0/../../../libuser32.a(dtpcs00563.o)
                              window.o (SetTimer@16)
c:/mingw/bin/../lib/gcc/mingw32/6.3.0/../../../libuser32.a(dtpcs00554.o)
                              window.o (SetScrollInfo@16)
c:/mingw/bin/../lib/gcc/mingw32/6.3.0/../../../libuser32.a(dtpcs00535.o)
                              window.o (SetKeyboardState@4)
c:/mingw/bin/../lib/gcc/mingw32/6.3.0/../../../libuser32.a(dtpcs00534.o)
                              window.o (SetForegroundWindow@4)
c:/mingw/bin/../lib/gcc/mingw32/6.3.0/../../../libuser32.a(dtpcs00533.o)
                              winctrls.o (SetFocus@4)
c:/mingw/bin/../lib/gcc/mingw32/6.3.0/../../../libuser32.a(dtpcs00530.o)
                              winctrls.o (SetDlgItemTextA@12)
c:/mingw/bin/../lib/gcc/mingw32/6.3.0/../../../libuser32.a(dtpcs00525.o)
                              window.o (SetCursor@4)
c:/mingw/bin/../lib/gcc/mingw32/6.3.0/../../../libuser32.a(dtpcs00523.o)
                              window.o (SetClipboardData@8)
c:/mingw/bin/../lib/gcc/mingw32/6.3.0/../../../libuser32.a(dtpcs00520.o)
                              window.o (SetClassLongA@12)
c:/mingw/bin/../lib/gcc/mingw32/6.3.0/../../../libuser32.a(dtpcs00519.o)
                              window.o (SetCaretPos@8)
c:/mingw/bin/../lib/gcc/mingw32/6.3.0/../../../libuser32.a(dtpcs00517.o)
                              winctrls.o (SetCapture@4)
c:/mingw/bin/../lib/gcc/mingw32/6.3.0/../../../libuser32.a(dtpcs00516.o)
                              windlg.o (SetActiveWindow@4)
c:/mingw/bin/../lib/gcc/mingw32/6.3.0/../../../libuser32.a(dtpcs00508.o)
                              winctrls.o (SendMessageA@16)
c:/mingw/bin/../lib/gcc/mingw32/6.3.0/../../../libuser32.a(dtpcs00505.o)
                              winctrls.o (SendDlgItemMessageA@20)
c:/mingw/bin/../lib/gcc/mingw32/6.3.0/../../../libuser32.a(dtpcs00500.o)
                              window.o (ScreenToClient@8)
c:/mingw/bin/../lib/gcc/mingw32/6.3.0/../../../libuser32.a(dtpcs00494.o)
                              winctrls.o (ReleaseDC@8)
c:/mingw/bin/../lib/gcc/mingw32/6.3.0/../../../libuser32.a(dtpcs00493.o)
                              windlg.o (ReleaseCapture@0)
c:/mingw/bin/../lib/gcc/mingw32/6.3.0/../../../libuser32.a(dtpcs00491.o)
                              winctrls.o (RegisterWindowMessageA@4)
c:/mingw/bin/../lib/gcc/mingw32/6.3.0/../../../libuser32.a(dtpcs00483.o)
                              window.o (RegisterClipboardFormatA@4)
c:/mingw/bin/../lib/gcc/mingw32/6.3.0/../../../libuser32.a(dtpcs00482.o)
                              window.o (RegisterClassW@4)
c:/mingw/bin/../lib/gcc/mingw32/6.3.0/../../../libuser32.a(dtpcs00479.o)
                              sizetip.o (RegisterClassA@4)
c:/mingw/bin/../lib/gcc/mingw32/6.3.0/../../../libuser32.a(dtpcs00468.o)
                              windlg.o (PostQuitMessage@4)
c:/mingw/bin/../lib/gcc/mingw32/6.3.0/../../../libuser32.a(dtpcs00466.o)
                              window.o (PostMessageA@16)
c:/mingw/bin/../lib/gcc/mingw32/6.3.0/../../../libuser32.a(dtpcs00465.o)
                              window.o (PeekMessageW@20)
c:/mingw/bin/../lib/gcc/mingw32/6.3.0/../../../libuser32.a(dtpcs00464.o)
                              window.o (PeekMessageA@20)
c:/mingw/bin/../lib/gcc/mingw32/6.3.0/../../../libuser32.a(dtpcs00455.o)
                              window.o (OpenClipboard@4)
c:/mingw/bin/../lib/gcc/mingw32/6.3.0/../../../libuser32.a(dtpcs00446.o)
                              window.o (MsgWaitForMultipleObjects@20)
c:/mingw/bin/../lib/gcc/mingw32/6.3.0/../../../libuser32.a(dtpcs00445.o)
                              windlg.o (MoveWindow@24)
c:/mingw/bin/../lib/gcc/mingw32/6.3.0/../../../libuser32.a(dtpcs00437.o)
                              winutils.o (MessageBoxIndirectA@4)
c:/mingw/bin/../lib/gcc/mingw32/6.3.0/../../../libuser32.a(dtpcs00434.o)
                              winctrls.o (MessageBoxA@16)
c:/mingw/bin/../lib/gcc/mingw32/6.3.0/../../../libuser32.a(dtpcs00433.o)
                              winctrls.o (MessageBeep@4)
c:/mingw/bin/../lib/gcc/mingw32/6.3.0/../../../libuser32.a(dtpcs00426.o)
                              winctrls.o (MapDialogRect@8)
c:/mingw/bin/../lib/gcc/mingw32/6.3.0/../../../libuser32.a(dtpcs00411.o)
                              window.o (LoadImageA@24)
c:/mingw/bin/../lib/gcc/mingw32/6.3.0/../../../libuser32.a(dtpcs00409.o)
                              windlg.o (LoadIconA@8)
c:/mingw/bin/../lib/gcc/mingw32/6.3.0/../../../libuser32.a(dtpcs00405.o)
                              windlg.o (LoadCursorA@8)
c:/mingw/bin/../lib/gcc/mingw32/6.3.0/../../../libuser32.a(dtpcs00400.o)
                              window.o (KillTimer@8)
c:/mingw/bin/../lib/gcc/mingw32/6.3.0/../../../libuser32.a(dtpcs00398.o)
                              window.o (IsZoomed@4)
c:/mingw/bin/../lib/gcc/mingw32/6.3.0/../../../libuser32.a(dtpcs00394.o)
                              window.o (IsWindow@4)
c:/mingw/bin/../lib/gcc/mingw32/6.3.0/../../../libuser32.a(dtpcs00389.o)
                              window.o (IsIconic@4)
c:/mingw/bin/../lib/gcc/mingw32/6.3.0/../../../libuser32.a(dtpcs00386.o)
                              winctrls.o (IsDlgButtonChecked@8)
c:/mingw/bin/../lib/gcc/mingw32/6.3.0/../../../libuser32.a(dtpcs00384.o)
                              windlg.o (IsDialogMessageA@8)
c:/mingw/bin/../lib/gcc/mingw32/6.3.0/../../../libuser32.a(dtpcs00370.o)
                              sizetip.o (InvalidateRect@12)
c:/mingw/bin/../lib/gcc/mingw32/6.3.0/../../../libuser32.a(dtpcs00364.o)
                              window.o (InsertMenuA@20)
c:/mingw/bin/../lib/gcc/mingw32/6.3.0/../../../libuser32.a(dtpcs00358.o)
                              window.o (HideCaret@4)
c:/mingw/bin/../lib/gcc/mingw32/6.3.0/../../../libuser32.a(dtpcs00351.o)
                              sizetip.o (GetWindowTextLengthA@4)
c:/mingw/bin/../lib/gcc/mingw32/6.3.0/../../../libuser32.a(dtpcs00350.o)
                              sizetip.o (GetWindowTextA@12)
c:/mingw/bin/../lib/gcc/mingw32/6.3.0/../../../libuser32.a(dtpcs00348.o)
                              sizetip.o (GetWindowRect@8)
c:/mingw/bin/../lib/gcc/mingw32/6.3.0/../../../libuser32.a(dtpcs00347.o)
                              windlg.o (GetWindowPlacement@8)
c:/mingw/bin/../lib/gcc/mingw32/6.3.0/../../../libuser32.a(dtpcs00342.o)
                              windlg.o (GetWindowLongA@8)
c:/mingw/bin/../lib/gcc/mingw32/6.3.0/../../../libuser32.a(dtpcs00325.o)
                              window.o (GetSystemMenu@8)
c:/mingw/bin/../lib/gcc/mingw32/6.3.0/../../../libuser32.a(dtpcs00323.o)
                              sizetip.o (GetSysColor@4)
c:/mingw/bin/../lib/gcc/mingw32/6.3.0/../../../libuser32.a(dtpcs00318.o)
                              window.o (GetScrollInfo@12)
c:/mingw/bin/../lib/gcc/mingw32/6.3.0/../../../libuser32.a(dtpcs00310.o)
                              winnoise.o (GetQueueStatus@4)
c:/mingw/bin/../lib/gcc/mingw32/6.3.0/../../../libuser32.a(dtpcs00304.o)
                              windlg.o (GetParent@4)
c:/mingw/bin/../lib/gcc/mingw32/6.3.0/../../../libuser32.a(dtpcs00296.o)
                              window.o (GetMessageTime@0)
c:/mingw/bin/../lib/gcc/mingw32/6.3.0/../../../libuser32.a(dtpcs00293.o)
                              windlg.o (GetMessageA@16)
c:/mingw/bin/../lib/gcc/mingw32/6.3.0/../../../libuser32.a(dtpcs00273.o)
                              window.o (GetKeyboardState@4)
c:/mingw/bin/../lib/gcc/mingw32/6.3.0/../../../libuser32.a(dtpcs00269.o)
                              window.o (GetKeyboardLayout@4)
c:/mingw/bin/../lib/gcc/mingw32/6.3.0/../../../libuser32.a(dtpcs00259.o)
                              window.o (GetForegroundWindow@0)
c:/mingw/bin/../lib/gcc/mingw32/6.3.0/../../../libuser32.a(dtpcs00257.o)
                              window.o (GetDoubleClickTime@0)
c:/mingw/bin/../lib/gcc/mingw32/6.3.0/../../../libuser32.a(dtpcs00255.o)
                              winctrls.o (GetDlgItemTextA@16)
c:/mingw/bin/../lib/gcc/mingw32/6.3.0/../../../libuser32.a(dtpcs00253.o)
                              winctrls.o (GetDlgItem@8)
c:/mingw/bin/../lib/gcc/mingw32/6.3.0/../../../libuser32.a(dtpcs00250.o)
                              windlg.o (GetDesktopWindow@0)
c:/mingw/bin/../lib/gcc/mingw32/6.3.0/../../../libuser32.a(dtpcs00248.o)
                              winctrls.o (GetDC@4)
c:/mingw/bin/../lib/gcc/mingw32/6.3.0/../../../libuser32.a(dtpcs00247.o)
                              window.o (GetCursorPos@4)
c:/mingw/bin/../lib/gcc/mingw32/6.3.0/../../../libuser32.a(dtpcs00241.o)
                              winnoise.o (GetClipboardOwner@0)
c:/mingw/bin/../lib/gcc/mingw32/6.3.0/../../../libuser32.a(dtpcs00238.o)
                              window.o (GetClipboardData@4)
c:/mingw/bin/../lib/gcc/mingw32/6.3.0/../../../libuser32.a(dtpcs00236.o)
                              sizetip.o (GetClientRect@8)
c:/mingw/bin/../lib/gcc/mingw32/6.3.0/../../../libuser32.a(dtpcs00225.o)
                              terminal.o (GetCaretBlinkTime@0)
c:/mingw/bin/../lib/gcc/mingw32/6.3.0/../../../libuser32.a(dtpcs00224.o)
                              windlg.o (GetCapture@0)
c:/mingw/bin/../lib/gcc/mingw32/6.3.0/../../../libuser32.a(dtpcs00214.o)
                              window.o (FlashWindow@8)
c:/mingw/bin/../lib/gcc/mingw32/6.3.0/../../../libuser32.a(dtpcs00210.o)
                              winpgntc.o (FindWindowA@8)
c:/mingw/bin/../lib/gcc/mingw32/6.3.0/../../../libuser32.a(dtpcs00184.o)
                              sizetip.o (EndPaint@8)
c:/mingw/bin/../lib/gcc/mingw32/6.3.0/../../../libuser32.a(dtpcs00182.o)
                              windlg.o (EndDialog@8)
c:/mingw/bin/../lib/gcc/mingw32/6.3.0/../../../libuser32.a(dtpcs00180.o)
                              windlg.o (EnableWindow@8)
c:/mingw/bin/../lib/gcc/mingw32/6.3.0/../../../libuser32.a(dtpcs00178.o)
                              window.o (EnableMenuItem@12)
c:/mingw/bin/../lib/gcc/mingw32/6.3.0/../../../libuser32.a(dtpcs00177.o)
                              window.o (EmptyClipboard@0)
c:/mingw/bin/../lib/gcc/mingw32/6.3.0/../../../libuser32.a(dtpcs00168.o)
                              window.o (DrawIconEx@36)
c:/mingw/bin/../lib/gcc/mingw32/6.3.0/../../../libuser32.a(dtpcs00163.o)
                              winctrls.o (DrawEdge@16)
c:/mingw/bin/../lib/gcc/mingw32/6.3.0/../../../libuser32.a(dtpcs00150.o)
                              window.o (DispatchMessageW@4)
c:/mingw/bin/../lib/gcc/mingw32/6.3.0/../../../libuser32.a(dtpcs00149.o)
                              windlg.o (DispatchMessageA@4)
c:/mingw/bin/../lib/gcc/mingw32/6.3.0/../../../libuser32.a(dtpcs00147.o)
                              windlg.o (DialogBoxParamA@20)
c:/mingw/bin/../lib/gcc/mingw32/6.3.0/../../../libuser32.a(dtpcs00144.o)
                              sizetip.o (DestroyWindow@4)
c:/mingw/bin/../lib/gcc/mingw32/6.3.0/../../../libuser32.a(dtpcs00142.o)
                              window.o (DestroyIcon@4)
c:/mingw/bin/../lib/gcc/mingw32/6.3.0/../../../libuser32.a(dtpcs00140.o)
                              window.o (DestroyCaret@0)
c:/mingw/bin/../lib/gcc/mingw32/6.3.0/../../../libuser32.a(dtpcs00137.o)
                              window.o (DeleteMenu@12)
c:/mingw/bin/../lib/gcc/mingw32/6.3.0/../../../libuser32.a(dtpcs00135.o)
                              window.o (DefWindowProcW@16)
c:/mingw/bin/../lib/gcc/mingw32/6.3.0/../../../libuser32.a(dtpcs00134.o)
                              sizetip.o (DefWindowProcA@16)
c:/mingw/bin/../lib/gcc/mingw32/6.3.0/../../../libuser32.a(dtpcs00127.o)
                              windlg.o (DefDlgProcA@16)
c:/mingw/bin/../lib/gcc/mingw32/6.3.0/../../../libuser32.a(dtpcs00091.o)
                              window.o (CreateWindowExW@48)
c:/mingw/bin/../lib/gcc/mingw32/6.3.0/../../../libuser32.a(dtpcs00090.o)
                              sizetip.o (CreateWindowExA@48)
c:/mingw/bin/../lib/gcc/mingw32/6.3.0/../../../libuser32.a(dtpcs00089.o)
                              window.o (CreatePopupMenu@0)
c:/mingw/bin/../lib/gcc/mingw32/6.3.0/../../../libuser32.a(dtpcs00088.o)
                              window.o (CreateMenu@0)
c:/mingw/bin/../lib/gcc/mingw32/6.3.0/../../../libuser32.a(dtpcs00080.o)
                              windlg.o (CreateDialogParamA@20)
c:/mingw/bin/../lib/gcc/mingw32/6.3.0/../../../libuser32.a(dtpcs00074.o)
                              window.o (CreateCaret@16)
c:/mingw/bin/../lib/gcc/mingw32/6.3.0/../../../libuser32.a(dtpcs00061.o)
                              window.o (CloseClipboard@0)
c:/mingw/bin/../lib/gcc/mingw32/6.3.0/../../../libuser32.a(dtpcs00056.o)
                              winctrls.o (CheckRadioButton@16)
c:/mingw/bin/../lib/gcc/mingw32/6.3.0/../../../libuser32.a(dtpcs00054.o)
                              window.o (CheckMenuItem@12)
c:/mingw/bin/../lib/gcc/mingw32/6.3.0/../../../libuser32.a(dtpcs00053.o)
                              winctrls.o (CheckDlgButton@12)
c:/mingw/bin/../lib/gcc/mingw32/6.3.0/../../../libuser32.a(dtpcs00011.o)
                              sizetip.o (BeginPaint@8)
c:/mingw/bin/../lib/gcc/mingw32/6.3.0/../../../libuser32.a(dtpcs00006.o)
                              window.o (AppendMenuA@16)
c:/mingw/bin/../lib/gcc/mingw32/6.3.0/../../../libuser32.a(dtpch.o)
                              c:/mingw/bin/../lib/gcc/mingw32/6.3.0/../../../libuser32.a(dtpcs00622.o) (_head_libuser32_a)
c:/mingw/bin/../lib/gcc/mingw32/6.3.0/../../../libuser32.a(dtpct.o)
                              c:/mingw/bin/../lib/gcc/mingw32/6.3.0/../../../libuser32.a(dtpch.o) (_libuser32_a_iname)
c:/mingw/bin/../lib/gcc/mingw32/6.3.0/../../../libmingw32.a(CRTglob.o)
                              c:/mingw/bin/../lib/gcc/mingw32/6.3.0/../../../crt2.o (_CRT_glob)
c:/mingw/bin/../lib/gcc/mingw32/6.3.0/../../../libmingw32.a(setargv.o)
                              c:/mingw/bin/../lib/gcc/mingw32/6.3.0/../../../crt2.o (_setargv)
c:/mingw/bin/../lib/gcc/mingw32/6.3.0/../../../libmingw32.a(CRTfmode.o)
                              c:/mingw/bin/../lib/gcc/mingw32/6.3.0/../../../crt2.o (_CRT_fmode)
c:/mingw/bin/../lib/gcc/mingw32/6.3.0/../../../libmingw32.a(cpu_features.o)
                              c:/mingw/bin/../lib/gcc/mingw32/6.3.0/../../../crt2.o (__cpu_features_init)
c:/mingw/bin/../lib/gcc/mingw32/6.3.0/../../../libmingw32.a(CRT_fp10.o)
                              c:/mingw/bin/../lib/gcc/mingw32/6.3.0/../../../crt2.o (_CRT_fenv)
c:/mingw/bin/../lib/gcc/mingw32/6.3.0/../../../libmingw32.a(txtmode.o)
                              c:/mingw/bin/../lib/gcc/mingw32/6.3.0/../../../crt2.o (_fmode)
c:/mingw/bin/../lib/gcc/mingw32/6.3.0/../../../libmingw32.a(main.o)
                              c:/mingw/bin/../lib/gcc/mingw32/6.3.0/../../../crt2.o (main)
c:/mingw/bin/../lib/gcc/mingw32/6.3.0/../../../libmingw32.a(gccmain.o)
                              c:/mingw/bin/../lib/gcc/mingw32/6.3.0/../../../crt2.o (__main)
c:/mingw/bin/../lib/gcc/mingw32/6.3.0/../../../libmingw32.a(tlssup.o)
                              c:/mingw/bin/../lib/gcc/mingw32/6.3.0/../../../crt2.o (__dyn_tls_init_callback)
c:/mingw/bin/../lib/gcc/mingw32/6.3.0/../../../libmingw32.a(tlsthrd.o)
                              c:/mingw/bin/../lib/gcc/mingw32/6.3.0/../../../libmingw32.a(tlssup.o) (__mingw_TLScallback)
c:/mingw/bin/../lib/gcc/mingw32/6.3.0/../../../libmingw32.a(pseudo-reloc.o)
                              c:/mingw/bin/../lib/gcc/mingw32/6.3.0/../../../crt2.o (_pei386_runtime_relocator)
c:/mingw/bin/../lib/gcc/mingw32/6.3.0/../../../libmingw32.a(pseudo-reloc-list.o)
                              c:/mingw/bin/../lib/gcc/mingw32/6.3.0/../../../libmingw32.a(pseudo-reloc.o) (__RUNTIME_PSEUDO_RELOC_LIST__)
c:/mingw/bin/../lib/gcc/mingw32/6.3.0/../../../libmingw32.a(crtst.o)
                              c:/mingw/bin/../lib/gcc/mingw32/6.3.0/../../../libmingw32.a(tlssup.o) (_CRT_MT)
c:/mingw/bin/../lib/gcc/mingw32/6.3.0/libgcc.a(_chkstk_ms.o)
                              cmdline.o (__chkstk_ms)
c:/mingw/bin/../lib/gcc/mingw32/6.3.0/libgcc.a(_ctors.o)
                              c:/mingw/bin/../lib/gcc/mingw32/6.3.0/../../../libmingw32.a(gccmain.o) (__DTOR_LIST__)
c:/mingw/bin/../lib/gcc/mingw32/6.3.0/libgcc.a(_udivdi3.o)
                              wingss.o (__udivdi3)
c:/mingw/bin/../lib/gcc/mingw32/6.3.0/../../../libmingwex.a(fesetenv.o)
                              c:/mingw/bin/../lib/gcc/mingw32/6.3.0/../../../crt2.o (fesetenv)
c:/mingw/bin/../lib/gcc/mingw32/6.3.0/../../../libmingwex.a(strtodnrp.o)
                              config.o (__strtod)
c:/mingw/bin/../lib/gcc/mingw32/6.3.0/../../../libmingwex.a(vfprintf.o)
                              mpint.o (__mingw_vfprintf)
c:/mingw/bin/../lib/gcc/mingw32/6.3.0/../../../libmingwex.a(vsnprintf.o)
                              utils.o (vsnprintf)
c:/mingw/bin/../lib/gcc/mingw32/6.3.0/../../../libmingwex.a(vsprintf.o)
                              config.o (__mingw_vsprintf)
c:/mingw/bin/../lib/gcc/mingw32/6.3.0/../../../libmingwex.a(glob.o)
                              c:/mingw/bin/../lib/gcc/mingw32/6.3.0/../../../libmingw32.a(setargv.o) (__mingw_glob)
c:/mingw/bin/../lib/gcc/mingw32/6.3.0/../../../libmingwex.a(dirname.o)
                              c:/mingw/bin/../lib/gcc/mingw32/6.3.0/../../../libmingwex.a(glob.o) (__mingw_dirname)
c:/mingw/bin/../lib/gcc/mingw32/6.3.0/../../../libmingwex.a(dirent.o)
                              c:/mingw/bin/../lib/gcc/mingw32/6.3.0/../../../libmingwex.a(glob.o) (__mingw_opendir)
c:/mingw/bin/../lib/gcc/mingw32/6.3.0/../../../libmingwex.a(mbrtowc.o)
                              stripctrl.o (mbrtowc)
c:/mingw/bin/../lib/gcc/mingw32/6.3.0/../../../libmingwex.a(wcrtomb.o)
                              stripctrl.o (wcrtomb)
c:/mingw/bin/../lib/gcc/mingw32/6.3.0/../../../libmingwex.a(strtodg.o)
                              c:/mingw/bin/../lib/gcc/mingw32/6.3.0/../../../libmingwex.a(strtodnrp.o) (__strtodg)
c:/mingw/bin/../lib/gcc/mingw32/6.3.0/../../../libmingwex.a(hexnan.o)
                              c:/mingw/bin/../lib/gcc/mingw32/6.3.0/../../../libmingwex.a(strtodg.o) (__hexnan_D2A)
c:/mingw/bin/../lib/gcc/mingw32/6.3.0/../../../libmingwex.a(misc.o)
                              c:/mingw/bin/../lib/gcc/mingw32/6.3.0/../../../libmingwex.a(strtodg.o) (__Balloc_D2A)
c:/mingw/bin/../lib/gcc/mingw32/6.3.0/../../../libmingwex.a(pformat.o)
                              c:/mingw/bin/../lib/gcc/mingw32/6.3.0/../../../libmingwex.a(vfprintf.o) (__mingw_pformat)
c:/mingw/bin/../lib/gcc/mingw32/6.3.0/../../../libmingwex.a(varofmt.o)
                              c:/mingw/bin/../lib/gcc/mingw32/6.3.0/../../../libmingwex.a(pformat.o) (__mingw_output_format_flags)
c:/mingw/bin/../lib/gcc/mingw32/6.3.0/../../../libmingwex.a(gethex.o)
                              c:/mingw/bin/../lib/gcc/mingw32/6.3.0/../../../libmingwex.a(strtodg.o) (__gethex_D2A)
c:/mingw/bin/../lib/gcc/mingw32/6.3.0/../../../libmingwex.a(gdtoa.o)
                              c:/mingw/bin/../lib/gcc/mingw32/6.3.0/../../../libmingwex.a(pformat.o) (__gdtoa)
c:/mingw/bin/../lib/gcc/mingw32/6.3.0/../../../libmingwex.a(gmisc.o)
                              c:/mingw/bin/../lib/gcc/mingw32/6.3.0/../../../libmingwex.a(strtodg.o) (__rshift_D2A)
c:/mingw/bin/../lib/gcc/mingw32/6.3.0/../../../libmingwex.a(smisc.o)
                              c:/mingw/bin/../lib/gcc/mingw32/6.3.0/../../../libmingwex.a(strtodg.o) (__s2b_D2A)
c:/mingw/bin/../lib/gcc/mingw32/6.3.0/../../../libmingwex.a(sum.o)
                              c:/mingw/bin/../lib/gcc/mingw32/6.3.0/../../../libmingwex.a(strtodg.o) (__sum_D2A)
c:/mingw/bin/../lib/gcc/mingw32/6.3.0/../../../libmingwex.a(hd_init.o)
                              c:/mingw/bin/../lib/gcc/mingw32/6.3.0/../../../libmingwex.a(hexnan.o) (hexdig_init_D2A)
c:/mingw/bin/../lib/gcc/mingw32/6.3.0/../../../libmingwex.a(dmisc.o)
                              c:/mingw/bin/../lib/gcc/mingw32/6.3.0/../../../libmingwex.a(gdtoa.o) (__rv_alloc_D2A)
c:/mingw/bin/../lib/gcc/mingw32/6.3.0/../../../libmsvcrt.a(djpvbs01325.o)
                              c:/mingw/bin/../lib/gcc/mingw32/6.3.0/../../../libmingwex.a(dirname.o) (wcstombs)
c:/mingw/bin/../lib/gcc/mingw32/6.3.0/../../../libmsvcrt.a(djpvbs01311.o)
                              terminal.o (wcsncmp)
c:/mingw/bin/../lib/gcc/mingw32/6.3.0/../../../libmsvcrt.a(djpvbs01308.o)
                              c:/mingw/bin/../lib/gcc/mingw32/6.3.0/../../../libmingwex.a(pformat.o) (wcslen)
c:/mingw/bin/../lib/gcc/mingw32/6.3.0/../../../libmsvcrt.a(djpvbs01284.o)
                              c:/mingw/bin/../lib/gcc/mingw32/6.3.0/../../../libmingw32.a(pseudo-reloc.o) (vfprintf)
c:/mingw/bin/../lib/gcc/mingw32/6.3.0/../../../libmsvcrt.a(djpvbs01281.o)
                              sshpubk.o (ungetc)
c:/mingw/bin/../lib/gcc/mingw32/6.3.0/../../../libmsvcrt.a(djpvbs01278.o)
                              winucs.o (toupper)
c:/mingw/bin/../lib/gcc/mingw32/6.3.0/../../../libmsvcrt.a(djpvbs01277.o)
                              logging.o (tolower)
c:/mingw/bin/../lib/gcc/mingw32/6.3.0/../../../libmsvcrt.a(djpvbs01272.o)
                              sshgssc.o (time)
c:/mingw/bin/../lib/gcc/mingw32/6.3.0/../../../libmsvcrt.a(djpvbs01269.o)
                              terminal.o (system)
c:/mingw/bin/../lib/gcc/mingw32/6.3.0/../../../libmsvcrt.a(djpvbs01263.o)
                              sshpubk.o (strtoul)
c:/mingw/bin/../lib/gcc/mingw32/6.3.0/../../../libmsvcrt.a(djpvbs01262.o)
                              utils.o (strtol)
c:/mingw/bin/../lib/gcc/mingw32/6.3.0/../../../libmsvcrt.a(djpvbs01258.o)
                              sshpubk.o (strstr)
c:/mingw/bin/../lib/gcc/mingw32/6.3.0/../../../libmsvcrt.a(djpvbs01257.o)
                              cmdline.o (strspn)
c:/mingw/bin/../lib/gcc/mingw32/6.3.0/../../../libmsvcrt.a(djpvbs01256.o)
                              cmdline.o (strrchr)
c:/mingw/bin/../lib/gcc/mingw32/6.3.0/../../../libmsvcrt.a(djpvbs01253.o)
                              winctrls.o (strncpy)
c:/mingw/bin/../lib/gcc/mingw32/6.3.0/../../../libmsvcrt.a(djpvbs01252.o)
                              cmdline.o (strncmp)
c:/mingw/bin/../lib/gcc/mingw32/6.3.0/../../../libmsvcrt.a(djpvbs01249.o)
                              be_misc.o (strlen)
c:/mingw/bin/../lib/gcc/mingw32/6.3.0/../../../libmsvcrt.a(djpvbs01248.o)
                              logging.o (strftime)
c:/mingw/bin/../lib/gcc/mingw32/6.3.0/../../../libmsvcrt.a(djpvbs01245.o)
                              misc.o (strcspn)
c:/mingw/bin/../lib/gcc/mingw32/6.3.0/../../../libmsvcrt.a(djpvbs01243.o)
                              misc.o (strcpy)
c:/mingw/bin/../lib/gcc/mingw32/6.3.0/../../../libmsvcrt.a(djpvbs01242.o)
                              c:/mingw/bin/../lib/gcc/mingw32/6.3.0/../../../libmingwex.a(glob.o) (strcoll)
c:/mingw/bin/../lib/gcc/mingw32/6.3.0/../../../libmsvcrt.a(djpvbs01241.o)
                              cmdline.o (strcmp)
c:/mingw/bin/../lib/gcc/mingw32/6.3.0/../../../libmsvcrt.a(djpvbs01240.o)
                              cmdline.o (strchr)
c:/mingw/bin/../lib/gcc/mingw32/6.3.0/../../../libmsvcrt.a(djpvbs01238.o)
                              terminal.o (strcat)
c:/mingw/bin/../lib/gcc/mingw32/6.3.0/../../../libmsvcrt.a(djpvbs01236.o)
                              proxy.o (sscanf)
c:/mingw/bin/../lib/gcc/mingw32/6.3.0/../../../libmsvcrt.a(djpvbs01229.o)
                              c:/mingw/bin/../lib/gcc/mingw32/6.3.0/../../../crt2.o (signal)
c:/mingw/bin/../lib/gcc/mingw32/6.3.0/../../../libmsvcrt.a(djpvbs01227.o)
                              stripctrl.o (setlocale)
c:/mingw/bin/../lib/gcc/mingw32/6.3.0/../../../libmsvcrt.a(djpvbs01223.o)
                              sshpubk.o (rewind)
c:/mingw/bin/../lib/gcc/mingw32/6.3.0/../../../libmsvcrt.a(djpvbs01220.o)
                              memory.o (realloc)
c:/mingw/bin/../lib/gcc/mingw32/6.3.0/../../../libmsvcrt.a(djpvbs01215.o)
                              settings.o (qsort)
c:/mingw/bin/../lib/gcc/mingw32/6.3.0/../../../libmsvcrt.a(djpvbs01203.o)
                              sshcrcda.o (memset)
c:/mingw/bin/../lib/gcc/mingw32/6.3.0/../../../libmsvcrt.a(djpvbs01201.o)
                              be_misc.o (memmove)
c:/mingw/bin/../lib/gcc/mingw32/6.3.0/../../../libmsvcrt.a(djpvbs01199.o)
                              memory.o (memcpy)
c:/mingw/bin/../lib/gcc/mingw32/6.3.0/../../../libmsvcrt.a(djpvbs01198.o)
                              ssh1login.o (memcmp)
c:/mingw/bin/../lib/gcc/mingw32/6.3.0/../../../libmsvcrt.a(djpvbs01197.o)
                              be_misc.o (memchr)
c:/mingw/bin/../lib/gcc/mingw32/6.3.0/../../../libmsvcrt.a(djpvbs01194.o)
                              c:/mingw/bin/../lib/gcc/mingw32/6.3.0/../../../libmingwex.a(dirname.o) (mbstowcs)
c:/mingw/bin/../lib/gcc/mingw32/6.3.0/../../../libmsvcrt.a(djpvbs01187.o)
                              memory.o (malloc)
c:/mingw/bin/../lib/gcc/mingw32/6.3.0/../../../libmsvcrt.a(djpvbs01182.o)
                              c:/mingw/bin/../lib/gcc/mingw32/6.3.0/../../../libmingwex.a(strtodg.o) (localeconv)
c:/mingw/bin/../lib/gcc/mingw32/6.3.0/../../../libmsvcrt.a(djpvbs01169.o)
                              stripctrl.o (iswctype)
c:/mingw/bin/../lib/gcc/mingw32/6.3.0/../../../libmsvcrt.a(djpvbs01147.o)
                              winmisc.o (getenv)
c:/mingw/bin/../lib/gcc/mingw32/6.3.0/../../../libmsvcrt.a(djpvbs01142.o)
                              logging.o (fwrite)
c:/mingw/bin/../lib/gcc/mingw32/6.3.0/../../../libmsvcrt.a(djpvbs01131.o)
                              memory.o (free)
c:/mingw/bin/../lib/gcc/mingw32/6.3.0/../../../libmsvcrt.a(djpvbs01130.o)
                              cmdline.o (fread)
c:/mingw/bin/../lib/gcc/mingw32/6.3.0/../../../libmsvcrt.a(djpvbs01127.o)
                              mpint.o (fputs)
c:/mingw/bin/../lib/gcc/mingw32/6.3.0/../../../libmsvcrt.a(djpvbs01126.o)
                              sshpubk.o (fputc)
c:/mingw/bin/../lib/gcc/mingw32/6.3.0/../../../libmsvcrt.a(djpvbs01122.o)
                              cmdline.o (fopen)
c:/mingw/bin/../lib/gcc/mingw32/6.3.0/../../../libmsvcrt.a(djpvbs01117.o)
                              sshpubk.o (fgets)
c:/mingw/bin/../lib/gcc/mingw32/6.3.0/../../../libmsvcrt.a(djpvbs01115.o)
                              sshpubk.o (fgetc)
c:/mingw/bin/../lib/gcc/mingw32/6.3.0/../../../libmsvcrt.a(djpvbs01114.o)
                              logging.o (fflush)
c:/mingw/bin/../lib/gcc/mingw32/6.3.0/../../../libmsvcrt.a(djpvbs01111.o)
                              cmdline.o (fclose)
c:/mingw/bin/../lib/gcc/mingw32/6.3.0/../../../libmsvcrt.a(djpvbs01108.o)
                              window.o (exit)
c:/mingw/bin/../lib/gcc/mingw32/6.3.0/../../../libmsvcrt.a(djpvbs01106.o)
                              ssh2transport.o (difftime)
c:/mingw/bin/../lib/gcc/mingw32/6.3.0/../../../libmsvcrt.a(djpvbs01098.o)
                              c:/mingw/bin/../lib/gcc/mingw32/6.3.0/../../../libmingw32.a(tlsthrd.o) (calloc)
c:/mingw/bin/../lib/gcc/mingw32/6.3.0/../../../libmsvcrt.a(djpvbs01093.o)
                              cmdline.o (atoi)
c:/mingw/bin/../lib/gcc/mingw32/6.3.0/../../../libmsvcrt.a(djpvbs01091.o)
                              c:/mingw/bin/../lib/gcc/mingw32/6.3.0/../../../crt2.o (_imp__atexit)
c:/mingw/bin/../lib/gcc/mingw32/6.3.0/../../../libmsvcrt.a(djpvbs01083.o)
                              c:/mingw/bin/../lib/gcc/mingw32/6.3.0/../../../libmingw32.a(pseudo-reloc.o) (abort)
c:/mingw/bin/../lib/gcc/mingw32/6.3.0/../../../libmsvcrt.a(djpvbs00813.o)
                              proxy.o (_strnicmp)
c:/mingw/bin/../lib/gcc/mingw32/6.3.0/../../../libmsvcrt.a(djpvbs00803.o)
                              sshcommon.o (_stricmp)
c:/mingw/bin/../lib/gcc/mingw32/6.3.0/../../../libmsvcrt.a(djpvbs00753.o)
                              c:/mingw/bin/../lib/gcc/mingw32/6.3.0/../../../crt2.o (_setmode)
c:/mingw/bin/../lib/gcc/mingw32/6.3.0/../../../libmsvcrt.a(djpvbs00698.o)
                              ldisc.o (_imp___pctype)
c:/mingw/bin/../lib/gcc/mingw32/6.3.0/../../../libmsvcrt.a(djpvbs00689.o)
                              c:/mingw/bin/../lib/gcc/mingw32/6.3.0/../../../crt2.o (_imp___onexit)
c:/mingw/bin/../lib/gcc/mingw32/6.3.0/../../../libmsvcrt.a(djpvbs00422.o)
                              ldisc.o (_isctype)
c:/mingw/bin/../lib/gcc/mingw32/6.3.0/../../../libmsvcrt.a(djpvbs00417.o)
                              c:/mingw/bin/../lib/gcc/mingw32/6.3.0/../../../crt2.o (_imp___iob)
c:/mingw/bin/../lib/gcc/mingw32/6.3.0/../../../libmsvcrt.a(djpvbs00350.o)
                              c:/mingw/bin/../lib/gcc/mingw32/6.3.0/../../../libmingwex.a(dirent.o) (_fullpath)
c:/mingw/bin/../lib/gcc/mingw32/6.3.0/../../../libmsvcrt.a(djpvbs00324.o)
                              c:/mingw/bin/../lib/gcc/mingw32/6.3.0/../../../libmingwex.a(fesetenv.o) (_imp___fpreset)
c:/mingw/bin/../lib/gcc/mingw32/6.3.0/../../../libmsvcrt.a(djpvbs00285.o)
                              c:/mingw/bin/../lib/gcc/mingw32/6.3.0/../../../libmingwex.a(glob.o) (_errno)
c:/mingw/bin/../lib/gcc/mingw32/6.3.0/../../../libmsvcrt.a(djpvbs00219.o)
                              c:/mingw/bin/../lib/gcc/mingw32/6.3.0/../../../crt2.o (_cexit)
c:/mingw/bin/../lib/gcc/mingw32/6.3.0/../../../libmsvcrt.a(djpvbs00201.o)
                              agentf.o (_assert)
c:/mingw/bin/../lib/gcc/mingw32/6.3.0/../../../libmsvcrt.a(djpvbs00153.o)
                              c:/mingw/bin/../lib/gcc/mingw32/6.3.0/../../../crt2.o (_imp____set_app_type)
c:/mingw/bin/../lib/gcc/mingw32/6.3.0/../../../libmsvcrt.a(djpvbs00133.o)
                              c:/mingw/bin/../lib/gcc/mingw32/6.3.0/../../../crt2.o (__p__fmode)
c:/mingw/bin/../lib/gcc/mingw32/6.3.0/../../../libmsvcrt.a(djpvbs00131.o)
                              c:/mingw/bin/../lib/gcc/mingw32/6.3.0/../../../crt2.o (__p__environ)
c:/mingw/bin/../lib/gcc/mingw32/6.3.0/../../../libmsvcrt.a(djpvbs00119.o)
                              ldisc.o (_imp____mb_cur_max)
c:/mingw/bin/../lib/gcc/mingw32/6.3.0/../../../libmsvcrt.a(djpvbs00088.o)
                              c:/mingw/bin/../lib/gcc/mingw32/6.3.0/../../../crt2.o (__getmainargs)
c:/mingw/bin/../lib/gcc/mingw32/6.3.0/../../../libmsvcrt.a(djpvbh.o)
                              c:/mingw/bin/../lib/gcc/mingw32/6.3.0/../../../libmsvcrt.a(djpvbs01325.o) (_head_libmsvcrt_a)
c:/mingw/bin/../lib/gcc/mingw32/6.3.0/../../../libmsvcrt.a(djpvbt.o)
                              c:/mingw/bin/../lib/gcc/mingw32/6.3.0/../../../libmsvcrt.a(djpvbh.o) (_libmsvcrt_a_iname)
c:/mingw/bin/../lib/gcc/mingw32/6.3.0/../../../libkernel32.a(dujcs01267.o)
                              winhandl.o (WriteFile@20)
c:/mingw/bin/../lib/gcc/mingw32/6.3.0/../../../libkernel32.a(dujcs01247.o)
                              window.o (WideCharToMultiByte@32)
c:/mingw/bin/../lib/gcc/mingw32/6.3.0/../../../libkernel32.a(dujcs01223.o)
                              winhandl.o (WaitForSingleObject@8)
c:/mingw/bin/../lib/gcc/mingw32/6.3.0/../../../libkernel32.a(dujcs01215.o)
                              c:/mingw/bin/../lib/gcc/mingw32/6.3.0/../../../libmingw32.a(pseudo-reloc.o) (VirtualQuery@12)
c:/mingw/bin/../lib/gcc/mingw32/6.3.0/../../../libkernel32.a(dujcs01213.o)
                              c:/mingw/bin/../lib/gcc/mingw32/6.3.0/../../../libmingw32.a(pseudo-reloc.o) (VirtualProtect@16)
c:/mingw/bin/../lib/gcc/mingw32/6.3.0/../../../libkernel32.a(dujcs01188.o)
                              window.o (UnmapViewOfFile@4)
c:/mingw/bin/../lib/gcc/mingw32/6.3.0/../../../libkernel32.a(dujcs01173.o)
                              c:/mingw/bin/../lib/gcc/mingw32/6.3.0/../../../libmingw32.a(tlsthrd.o) (TlsGetValue@4)
c:/mingw/bin/../lib/gcc/mingw32/6.3.0/../../../libkernel32.a(dujcs01152.o)
                              c:/mingw/bin/../lib/gcc/mingw32/6.3.0/../../../libmingwex.a(misc.o) (Sleep@4)
c:/mingw/bin/../lib/gcc/mingw32/6.3.0/../../../libkernel32.a(dujcs01140.o)
                              c:/mingw/bin/../lib/gcc/mingw32/6.3.0/../../../crt2.o (SetUnhandledExceptionFilter@4)
c:/mingw/bin/../lib/gcc/mingw32/6.3.0/../../../libkernel32.a(dujcs01088.o)
                              winnet.o (SetHandleInformation@12)
c:/mingw/bin/../lib/gcc/mingw32/6.3.0/../../../libkernel32.a(dujcs01065.o)
                              winhandl.o (SetEvent@4)
c:/mingw/bin/../lib/gcc/mingw32/6.3.0/../../../libkernel32.a(dujcs01052.o)
                              winutils.o (SetCurrentDirectoryA@4)
c:/mingw/bin/../lib/gcc/mingw32/6.3.0/../../../libkernel32.a(dujcs01014.o)
                              winser.o (SetCommTimeouts@8)
c:/mingw/bin/../lib/gcc/mingw32/6.3.0/../../../libkernel32.a(dujcs01013.o)
                              winser.o (SetCommState@8)
c:/mingw/bin/../lib/gcc/mingw32/6.3.0/../../../libkernel32.a(dujcs01010.o)
                              winser.o (SetCommBreak@4)
c:/mingw/bin/../lib/gcc/mingw32/6.3.0/../../../libkernel32.a(dujcs00947.o)
                              winhandl.o (ReadFile@20)
c:/mingw/bin/../lib/gcc/mingw32/6.3.0/../../../libkernel32.a(dujcs00922.o)
                              winnoise.o (QueryPerformanceCounter@4)
c:/mingw/bin/../lib/gcc/mingw32/6.3.0/../../../libkernel32.a(dujcs00860.o)
                              window.o (MultiByteToWideChar@24)
c:/mingw/bin/../lib/gcc/mingw32/6.3.0/../../../libkernel32.a(dujcs00859.o)
                              winctrls.o (MulDiv@12)
c:/mingw/bin/../lib/gcc/mingw32/6.3.0/../../../libkernel32.a(dujcs00844.o)
                              window.o (MapViewOfFile@20)
c:/mingw/bin/../lib/gcc/mingw32/6.3.0/../../../libkernel32.a(dujcs00827.o)
                              wingss.o (LocalFileTimeToFileTime@8)
c:/mingw/bin/../lib/gcc/mingw32/6.3.0/../../../libkernel32.a(dujcs00818.o)
                              wingss.o (LoadLibraryExA@12)
c:/mingw/bin/../lib/gcc/mingw32/6.3.0/../../../libkernel32.a(dujcs00817.o)
                              c:/mingw/bin/../lib/gcc/mingw32/6.3.0/crtbegin.o (LoadLibraryA@4)
c:/mingw/bin/../lib/gcc/mingw32/6.3.0/../../../libkernel32.a(dujcs00814.o)
                              c:/mingw/bin/../lib/gcc/mingw32/6.3.0/../../../libmingw32.a(tlsthrd.o) (LeaveCriticalSection@4)
c:/mingw/bin/../lib/gcc/mingw32/6.3.0/../../../libkernel32.a(dujcs00763.o)
                              window.o (IsDBCSLeadByteEx@8)
c:/mingw/bin/../lib/gcc/mingw32/6.3.0/../../../libkernel32.a(dujcs00744.o)
                              c:/mingw/bin/../lib/gcc/mingw32/6.3.0/../../../libmingwex.a(misc.o) (InterlockedExchange@8)
c:/mingw/bin/../lib/gcc/mingw32/6.3.0/../../../libkernel32.a(dujcs00734.o)
                              c:/mingw/bin/../lib/gcc/mingw32/6.3.0/../../../libmingw32.a(tlsthrd.o) (InitializeCriticalSection@4)
c:/mingw/bin/../lib/gcc/mingw32/6.3.0/../../../libkernel32.a(dujcs00705.o)
                              window.o (GlobalUnlock@4)
c:/mingw/bin/../lib/gcc/mingw32/6.3.0/../../../libkernel32.a(dujcs00699.o)
                              winnoise.o (GlobalMemoryStatus@4)
c:/mingw/bin/../lib/gcc/mingw32/6.3.0/../../../libkernel32.a(dujcs00698.o)
                              window.o (GlobalLock@4)
c:/mingw/bin/../lib/gcc/mingw32/6.3.0/../../../libkernel32.a(dujcs00694.o)
                              window.o (GlobalFree@4)
c:/mingw/bin/../lib/gcc/mingw32/6.3.0/../../../libkernel32.a(dujcs00687.o)
                              window.o (GlobalAlloc@8)
c:/mingw/bin/../lib/gcc/mingw32/6.3.0/../../../libkernel32.a(dujcs00682.o)
                              winnoise.o (GetWindowsDirectoryA@8)
c:/mingw/bin/../lib/gcc/mingw32/6.3.0/../../../libkernel32.a(dujcs00656.o)
                              ssh2transport.o (GetTickCount@0)
c:/mingw/bin/../lib/gcc/mingw32/6.3.0/../../../libkernel32.a(dujcs00653.o)
                              winnoise.o (GetThreadTimes@20)
c:/mingw/bin/../lib/gcc/mingw32/6.3.0/../../../libkernel32.a(dujcs00629.o)
                              wingss.o (GetSystemTimeAsFileTime@4)
c:/mingw/bin/../lib/gcc/mingw32/6.3.0/../../../libkernel32.a(dujcs00619.o)
                              winmisc.o (GetSystemDirectoryA@8)
c:/mingw/bin/../lib/gcc/mingw32/6.3.0/../../../libkernel32.a(dujcs00606.o)
                              c:/mingw/bin/../lib/gcc/mingw32/6.3.0/../../../libmingw32.a(main.o) (GetStartupInfoA@4)
c:/mingw/bin/../lib/gcc/mingw32/6.3.0/../../../libkernel32.a(dujcs00590.o)
                              winnoise.o (GetProcessTimes@20)
c:/mingw/bin/../lib/gcc/mingw32/6.3.0/../../../libkernel32.a(dujcs00577.o)
                              c:/mingw/bin/../lib/gcc/mingw32/6.3.0/crtbegin.o (GetProcAddress@8)
c:/mingw/bin/../lib/gcc/mingw32/6.3.0/../../../libkernel32.a(dujcs00564.o)
                              winhandl.o (GetOverlappedResult@16)
c:/mingw/bin/../lib/gcc/mingw32/6.3.0/../../../libkernel32.a(dujcs00563.o)
                              window.o (GetOEMCP@0)
c:/mingw/bin/../lib/gcc/mingw32/6.3.0/../../../libkernel32.a(dujcs00529.o)
                              c:/mingw/bin/../lib/gcc/mingw32/6.3.0/crtbegin.o (GetModuleHandleA@4)
c:/mingw/bin/../lib/gcc/mingw32/6.3.0/../../../libkernel32.a(dujcs00527.o)
                              window.o (GetModuleFileNameA@12)
c:/mingw/bin/../lib/gcc/mingw32/6.3.0/../../../libkernel32.a(dujcs00512.o)
                              window.o (GetLocaleInfoA@16)
c:/mingw/bin/../lib/gcc/mingw32/6.3.0/../../../libkernel32.a(dujcs00511.o)
                              wintime.o (GetLocalTime@4)
c:/mingw/bin/../lib/gcc/mingw32/6.3.0/../../../libkernel32.a(dujcs00510.o)
                              winhandl.o (GetLastError@0)
c:/mingw/bin/../lib/gcc/mingw32/6.3.0/../../../libkernel32.a(dujcs00482.o)
                              winmisc.o (GetFileAttributesExA@12)
c:/mingw/bin/../lib/gcc/mingw32/6.3.0/../../../libkernel32.a(dujcs00473.o)
                              winstore.o (GetEnvironmentVariableA@12)
c:/mingw/bin/../lib/gcc/mingw32/6.3.0/../../../libkernel32.a(dujcs00451.o)
                              winpgntc.o (GetCurrentThreadId@0)
c:/mingw/bin/../lib/gcc/mingw32/6.3.0/../../../libkernel32.a(dujcs00450.o)
                              winnoise.o (GetCurrentThread@0)
c:/mingw/bin/../lib/gcc/mingw32/6.3.0/../../../libkernel32.a(dujcs00447.o)
                              winnoise.o (GetCurrentProcessId@0)
c:/mingw/bin/../lib/gcc/mingw32/6.3.0/../../../libkernel32.a(dujcs00446.o)
                              winnoise.o (GetCurrentProcess@0)
c:/mingw/bin/../lib/gcc/mingw32/6.3.0/../../../libkernel32.a(dujcs00444.o)
                              winutils.o (GetCurrentDirectoryA@8)
c:/mingw/bin/../lib/gcc/mingw32/6.3.0/../../../libkernel32.a(dujcs00426.o)
                              winmiscs.o (GetConsoleMode@8)
c:/mingw/bin/../lib/gcc/mingw32/6.3.0/../../../libkernel32.a(dujcs00388.o)
                              c:/mingw/bin/../lib/gcc/mingw32/6.3.0/../../../libmingw32.a(setargv.o) (GetCommandLineA@0)
c:/mingw/bin/../lib/gcc/mingw32/6.3.0/../../../libkernel32.a(dujcs00386.o)
                              winser.o (GetCommState@8)
c:/mingw/bin/../lib/gcc/mingw32/6.3.0/../../../libkernel32.a(dujcs00368.o)
                              window.o (GetCPInfo@8)
c:/mingw/bin/../lib/gcc/mingw32/6.3.0/../../../libkernel32.a(dujcs00358.o)
                              winucs.o (GetACP@0)
c:/mingw/bin/../lib/gcc/mingw32/6.3.0/../../../libkernel32.a(dujcs00352.o)
                              c:/mingw/bin/../lib/gcc/mingw32/6.3.0/crtbegin.o (FreeLibrary@4)
c:/mingw/bin/../lib/gcc/mingw32/6.3.0/../../../libkernel32.a(dujcs00347.o)
                              winmisc.o (FormatMessageA@28)
c:/mingw/bin/../lib/gcc/mingw32/6.3.0/../../../libkernel32.a(dujcs00321.o)
                              winnoise.o (FindNextFileA@8)
c:/mingw/bin/../lib/gcc/mingw32/6.3.0/../../../libkernel32.a(dujcs00304.o)
                              winnoise.o (FindFirstFileA@8)
c:/mingw/bin/../lib/gcc/mingw32/6.3.0/../../../libkernel32.a(dujcs00300.o)
                              winnoise.o (FindClose@4)
c:/mingw/bin/../lib/gcc/mingw32/6.3.0/../../../libkernel32.a(dujcs00279.o)
                              c:/mingw/bin/../lib/gcc/mingw32/6.3.0/../../../crt2.o (ExitProcess@4)
c:/mingw/bin/../lib/gcc/mingw32/6.3.0/../../../libkernel32.a(dujcs00236.o)
                              c:/mingw/bin/../lib/gcc/mingw32/6.3.0/../../../libmingw32.a(tlsthrd.o) (EnterCriticalSection@4)
c:/mingw/bin/../lib/gcc/mingw32/6.3.0/../../../libkernel32.a(dujcs00209.o)
                              winstore.o (DeleteFileA@4)
c:/mingw/bin/../lib/gcc/mingw32/6.3.0/../../../libkernel32.a(dujcs00207.o)
                              c:/mingw/bin/../lib/gcc/mingw32/6.3.0/../../../libmingw32.a(tlsthrd.o) (DeleteCriticalSection@4)
c:/mingw/bin/../lib/gcc/mingw32/6.3.0/../../../libkernel32.a(dujcs00179.o)
                              window.o (CreateThread@24)
c:/mingw/bin/../lib/gcc/mingw32/6.3.0/../../../libkernel32.a(dujcs00163.o)
                              window.o (CreateProcessA@40)
c:/mingw/bin/../lib/gcc/mingw32/6.3.0/../../../libkernel32.a(dujcs00160.o)
                              winproxy.o (CreatePipe@16)
c:/mingw/bin/../lib/gcc/mingw32/6.3.0/../../../libkernel32.a(dujcs00136.o)
                              window.o (CreateFileMappingA@24)
c:/mingw/bin/../lib/gcc/mingw32/6.3.0/../../../libkernel32.a(dujcs00135.o)
                              winser.o (CreateFileA@28)
c:/mingw/bin/../lib/gcc/mingw32/6.3.0/../../../libkernel32.a(dujcs00129.o)
                              winhandl.o (CreateEventA@16)
c:/mingw/bin/../lib/gcc/mingw32/6.3.0/../../../libkernel32.a(dujcs00082.o)
                              window.o (CloseHandle@4)
c:/mingw/bin/../lib/gcc/mingw32/6.3.0/../../../libkernel32.a(dujcs00079.o)
                              winser.o (ClearCommBreak@4)
c:/mingw/bin/../lib/gcc/mingw32/6.3.0/../../../libkernel32.a(dujcs00054.o)
                              window.o (Beep@8)
c:/mingw/bin/../lib/gcc/mingw32/6.3.0/../../../libkernel32.a(dujch.o)
                              c:/mingw/bin/../lib/gcc/mingw32/6.3.0/../../../libkernel32.a(dujcs01267.o) (_head_libkernel32_a)
c:/mingw/bin/../lib/gcc/mingw32/6.3.0/../../../libkernel32.a(dujct.o)
                              c:/mingw/bin/../lib/gcc/mingw32/6.3.0/../../../libkernel32.a(dujch.o) (_libkernel32_a_iname)
c:/mingw/bin/../lib/gcc/mingw32/6.3.0/libgcc.a(_umoddi3.o)
                              c:/mingw/bin/../lib/gcc/mingw32/6.3.0/../../../libmingwex.a(pformat.o) (__umoddi3)
c:/mingw/bin/../lib/gcc/mingw32/6.3.0/../../../libmoldname.a(dagwbs00082.o)
                              c:/mingw/bin/../lib/gcc/mingw32/6.3.0/../../../libmingwex.a(glob.o) (stricoll)
c:/mingw/bin/../lib/gcc/mingw32/6.3.0/../../../libmoldname.a(dagwbs00080.o)
                              c:/mingw/bin/../lib/gcc/mingw32/6.3.0/../../../libmingwex.a(glob.o) (strdup)
c:/mingw/bin/../lib/gcc/mingw32/6.3.0/../../../libmoldname.a(dagwbh.o)
                              c:/mingw/bin/../lib/gcc/mingw32/6.3.0/../../../libmoldname.a(dagwbs00082.o) (_head_libmoldname_a)
c:/mingw/bin/../lib/gcc/mingw32/6.3.0/../../../libmoldname.a(dagwbt.o)
                              c:/mingw/bin/../lib/gcc/mingw32/6.3.0/../../../libmoldname.a(dagwbh.o) (_libmoldname_a_iname)

Allocating common symbols
Common symbol       size              file

osMajorVersion      0x4               window.o
p_WSAEnumNetworkEvents
                    0x4               window.o
p_WSAAsyncSelect    0x4               window.o
restricted_acl      0x1               window.o
loaded_session      0x1               window.o
osMinorVersion      0x4               window.o
term                0x4               window.o
__hexdig_D2A        0x100             c:/mingw/bin/../lib/gcc/mingw32/6.3.0/../../../libmingwex.a(hd_init.o)
p_select            0x4               winnet.o
default_port        0x4               window.o
hmod_libgcc         0x4               c:/mingw/bin/../lib/gcc/mingw32/6.3.0/crtbegin.o
cursor_type         0x4               window.o
vtmode              0x4               window.o
hinst               0x4               window.o
logbox              0x4               window.o
p_WSAGetLastError   0x4               window.o
flags               0x4               window.o
cmdline_session_name
                    0x4               window.o
linhas              0x7e9             terminal.o
hwnd                0x4               window.o
logctx              0x4               window.o
conf                0x4               window.o
osPlatformId        0x4               window.o
default_protocol    0x4               window.o
p_WSAEventSelect    0x4               window.o
colours_rgb         0xc48             window.o

Discarded input sections

 .drectve       0x00000000       0x1c c:/mingw/bin/../lib/gcc/mingw32/6.3.0/crtbegin.o
 .drectve       0x00000000       0x18 terminal.o
 .drectve       0x00000000      0x234 window.o
 .drectve       0x00000000       0x5c winmisc.o
 .drectve       0x00000000       0x1c winnet.o
 .debug_line    0x00000000       0x71 c:/mingw/bin/../lib/gcc/mingw32/6.3.0/libgcc.a(_chkstk_ms.o)
 .debug_info    0x00000000       0xa7 c:/mingw/bin/../lib/gcc/mingw32/6.3.0/libgcc.a(_chkstk_ms.o)
 .debug_abbrev  0x00000000       0x14 c:/mingw/bin/../lib/gcc/mingw32/6.3.0/libgcc.a(_chkstk_ms.o)
 .debug_aranges
                0x00000000       0x20 c:/mingw/bin/../lib/gcc/mingw32/6.3.0/libgcc.a(_chkstk_ms.o)
 .debug_frame   0x00000000       0x38 c:/mingw/bin/../lib/gcc/mingw32/6.3.0/libgcc.a(_chkstk_ms.o)
 .drectve       0x00000000       0x3c c:/mingw/bin/../lib/gcc/mingw32/6.3.0/libgcc.a(_ctors.o)
 .debug_info    0x00000000     0x1c58 c:/mingw/bin/../lib/gcc/mingw32/6.3.0/libgcc.a(_ctors.o)
 .debug_abbrev  0x00000000      0x11b c:/mingw/bin/../lib/gcc/mingw32/6.3.0/libgcc.a(_ctors.o)
 .debug_aranges
                0x00000000       0x18 c:/mingw/bin/../lib/gcc/mingw32/6.3.0/libgcc.a(_ctors.o)
 .debug_line    0x00000000      0x157 c:/mingw/bin/../lib/gcc/mingw32/6.3.0/libgcc.a(_ctors.o)
 .debug_str     0x00000000        0x0 c:/mingw/bin/../lib/gcc/mingw32/6.3.0/libgcc.a(_ctors.o)
 .debug_info    0x00000000     0x13ca c:/mingw/bin/../lib/gcc/mingw32/6.3.0/libgcc.a(_udivdi3.o)
 .debug_abbrev  0x00000000      0x1d6 c:/mingw/bin/../lib/gcc/mingw32/6.3.0/libgcc.a(_udivdi3.o)
 .debug_loc     0x00000000      0x49d c:/mingw/bin/../lib/gcc/mingw32/6.3.0/libgcc.a(_udivdi3.o)
 .debug_aranges
                0x00000000       0x20 c:/mingw/bin/../lib/gcc/mingw32/6.3.0/libgcc.a(_udivdi3.o)
 .debug_ranges  0x00000000       0x38 c:/mingw/bin/../lib/gcc/mingw32/6.3.0/libgcc.a(_udivdi3.o)
 .debug_line    0x00000000      0x1ae c:/mingw/bin/../lib/gcc/mingw32/6.3.0/libgcc.a(_udivdi3.o)
 .debug_str     0x00000000        0x0 c:/mingw/bin/../lib/gcc/mingw32/6.3.0/libgcc.a(_udivdi3.o)
 .drectve       0x00000000       0x20 c:/mingw/bin/../lib/gcc/mingw32/6.3.0/../../../libmingwex.a(hd_init.o)
 .text          0x00000000        0x8 c:/mingw/bin/../lib/gcc/mingw32/6.3.0/../../../libmsvcrt.a(djpvbs00324.o)
 .text          0x00000000        0x8 c:/mingw/bin/../lib/gcc/mingw32/6.3.0/../../../libmsvcrt.a(djpvbs00153.o)
 .debug_info    0x00000000     0x13d4 c:/mingw/bin/../lib/gcc/mingw32/6.3.0/libgcc.a(_umoddi3.o)
 .debug_abbrev  0x00000000      0x1e5 c:/mingw/bin/../lib/gcc/mingw32/6.3.0/libgcc.a(_umoddi3.o)
 .debug_loc     0x00000000      0x6a0 c:/mingw/bin/../lib/gcc/mingw32/6.3.0/libgcc.a(_umoddi3.o)
 .debug_aranges
                0x00000000       0x20 c:/mingw/bin/../lib/gcc/mingw32/6.3.0/libgcc.a(_umoddi3.o)
 .debug_ranges  0x00000000       0x38 c:/mingw/bin/../lib/gcc/mingw32/6.3.0/libgcc.a(_umoddi3.o)
 .debug_line    0x00000000      0x1bd c:/mingw/bin/../lib/gcc/mingw32/6.3.0/libgcc.a(_umoddi3.o)
 .debug_str     0x00000000        0x0 c:/mingw/bin/../lib/gcc/mingw32/6.3.0/libgcc.a(_umoddi3.o)

Memory Configuration

Name             Origin             Length             Attributes
*default*        0x00000000         0xffffffff

Linker script and memory map

                0x00400000                __image_base__ = 0x400000
                0x00000000                __dll__ = 0x0
                0x00400000                ___ImageBase = 0x400000
                0x00001000                __section_alignment__ = 0x1000
                0x00000200                __file_alignment__ = 0x200
                0x00000004                __major_os_version__ = 0x4
                0x00000000                __minor_os_version__ = 0x0
                0x00000001                __major_image_version__ = 0x1
                0x00000000                __minor_image_version__ = 0x0
                0x00000004                __major_subsystem_version__ = 0x4
                0x00000000                __minor_subsystem_version__ = 0x0
                0x00000002                __subsystem__ = 0x2
                0x00200000                __size_of_stack_reserve__ = 0x200000
                0x00001000                __size_of_stack_commit__ = 0x1000
                0x00100000                __size_of_heap_reserve__ = 0x100000
                0x00001000                __size_of_heap_commit__ = 0x1000
                0x00000000                __loader_flags__ = 0x0
                0x00000000                __dll_characteristics__ = 0x0
LOAD c:/mingw/bin/../lib/gcc/mingw32/6.3.0/../../../crt2.o
LOAD c:/mingw/bin/../lib/gcc/mingw32/6.3.0/crtbegin.o
LOAD agentf.o
LOAD aqsync.o
LOAD be_all_s.o
LOAD be_misc.o
LOAD callback.o
LOAD cmdline.o
LOAD conf.o
LOAD config.o
LOAD cproxy.o
LOAD dialog.o
LOAD ecc.o
LOAD errsock.o
LOAD ldisc.o
LOAD logging.o
LOAD mainchan.o
LOAD marshal.o
LOAD memory.o
LOAD minibidi.o
LOAD misc.o
LOAD miscucs.o
LOAD mpint.o
LOAD nullplug.o
LOAD pgssapi.o
LOAD pinger.o
LOAD portfwd.o
LOAD proxy.o
LOAD putty.res.o
LOAD raw.o
LOAD rlogin.o
LOAD sercfg.o
LOAD sessprep.o
LOAD settings.o
LOAD sizetip.o
LOAD ssh.o
LOAD ssh1bpp.o
LOAD ssh1censor.o
LOAD ssh1connection.o
LOAD ssh1connection-client.o
LOAD ssh1login.o
LOAD ssh2bpp.o
LOAD ssh2bpp-bare.o
LOAD ssh2censor.o
LOAD ssh2connection.o
LOAD ssh2connection-client.o
LOAD ssh2kex-client.o
LOAD ssh2transhk.o
LOAD ssh2transport.o
LOAD ssh2userauth.o
LOAD sshaes.o
LOAD ssharcf.o
LOAD sshauxcrypt.o
LOAD sshblowf.o
LOAD sshccp.o
LOAD sshcommon.o
LOAD sshcrc.o
LOAD sshcrcda.o
LOAD sshdes.o
LOAD sshdh.o
LOAD sshdss.o
LOAD sshecc.o
LOAD sshgssc.o
LOAD sshhmac.o
LOAD sshmac.o
LOAD sshmd5.o
LOAD sshprng.o
LOAD sshpubk.o
LOAD sshrand.o
LOAD sshrsa.o
LOAD sshsh256.o
LOAD sshsh512.o
LOAD sshsha.o
LOAD sshshare.o
LOAD sshverstring.o
LOAD sshzlib.o
LOAD stripctrl.o
LOAD telnet.o
LOAD terminal.o
LOAD timing.o
LOAD tree234.o
LOAD utils.o
LOAD version.o
LOAD wcwidth.o
LOAD wildcard.o
LOAD wincapi.o
LOAD wincfg.o
LOAD winctrls.o
LOAD windefs.o
LOAD windlg.o
LOAD window.o
LOAD ava.o
LOAD wingss.o
LOAD winhandl.o
LOAD winhelp.o
LOAD winhsock.o
LOAD winjump.o
LOAD winmisc.o
LOAD winmiscs.o
LOAD winnet.o
LOAD winnoise.o
LOAD winnpc.o
LOAD winnps.o
LOAD winpgntc.o
LOAD winprint.o
LOAD winproxy.o
LOAD winsecur.o
LOAD winser.o
LOAD winshare.o
LOAD winstore.o
LOAD wintime.o
LOAD winucs.o
LOAD winutils.o
LOAD winx11.o
LOAD x11fwd.o
LOAD c:/mingw/bin/../lib/gcc/mingw32/6.3.0/../../../libadvapi32.a
LOAD c:/mingw/bin/../lib/gcc/mingw32/6.3.0/../../../libcomdlg32.a
LOAD c:/mingw/bin/../lib/gcc/mingw32/6.3.0/../../../libgdi32.a
LOAD c:/mingw/bin/../lib/gcc/mingw32/6.3.0/../../../libimm32.a
LOAD c:/mingw/bin/../lib/gcc/mingw32/6.3.0/../../../libole32.a
LOAD c:/mingw/bin/../lib/gcc/mingw32/6.3.0/../../../libshell32.a
LOAD c:/mingw/bin/../lib/gcc/mingw32/6.3.0/../../../libuser32.a
LOAD c:/mingw/bin/../lib/gcc/mingw32/6.3.0/../../../libmingw32.a
LOAD c:/mingw/bin/../lib/gcc/mingw32/6.3.0/libgcc.a
LOAD c:/mingw/bin/../lib/gcc/mingw32/6.3.0/libgcc_eh.a
LOAD c:/mingw/bin/../lib/gcc/mingw32/6.3.0/../../../libmoldname.a
LOAD c:/mingw/bin/../lib/gcc/mingw32/6.3.0/../../../libmingwex.a
LOAD c:/mingw/bin/../lib/gcc/mingw32/6.3.0/../../../libmsvcrt.a
LOAD c:/mingw/bin/../lib/gcc/mingw32/6.3.0/../../../libgdi32.a
LOAD c:/mingw/bin/../lib/gcc/mingw32/6.3.0/../../../libcomdlg32.a
LOAD c:/mingw/bin/../lib/gcc/mingw32/6.3.0/../../../libadvapi32.a
LOAD c:/mingw/bin/../lib/gcc/mingw32/6.3.0/../../../libshell32.a
LOAD c:/mingw/bin/../lib/gcc/mingw32/6.3.0/../../../libuser32.a
LOAD c:/mingw/bin/../lib/gcc/mingw32/6.3.0/../../../libkernel32.a
LOAD c:/mingw/bin/../lib/gcc/mingw32/6.3.0/../../../libmingw32.a
LOAD c:/mingw/bin/../lib/gcc/mingw32/6.3.0/libgcc.a
LOAD c:/mingw/bin/../lib/gcc/mingw32/6.3.0/libgcc_eh.a
LOAD c:/mingw/bin/../lib/gcc/mingw32/6.3.0/../../../libmoldname.a
LOAD c:/mingw/bin/../lib/gcc/mingw32/6.3.0/../../../libmingwex.a
LOAD c:/mingw/bin/../lib/gcc/mingw32/6.3.0/../../../libmsvcrt.a
LOAD c:/mingw/bin/../lib/gcc/mingw32/6.3.0/crtend.o
                0x000002e0                . = SIZEOF_HEADERS
                0x00001000                . = ALIGN (__section_alignment__)

.text           0x00401000    0xaae00
 *(.init)
 *(.text)
 .text          0x00401000      0x340 c:/mingw/bin/../lib/gcc/mingw32/6.3.0/../../../crt2.o
                0x004012a0                _mingw32_init_mainargs
                0x004012e0                mainCRTStartup
                0x00401300                WinMainCRTStartup
                0x00401320                atexit
                0x00401330                _onexit
 .text          0x00401340      0x120 c:/mingw/bin/../lib/gcc/mingw32/6.3.0/crtbegin.o
                0x00401340                __gcc_register_frame
                0x00401430                __gcc_deregister_frame
 .text          0x00401460      0x3c0 agentf.o
                0x004017c0                agentf_new
 .text          0x00401820       0x60 aqsync.o
                0x00401820                agent_query_synchronous
 .text          0x00401880        0x0 be_all_s.o
 .text          0x00401880      0x490 be_misc.o
                0x00401880                backend_socket_log
                0x00401a50                psb_init
                0x00401a60                log_proxy_stderr
 .text          0x00401d10      0x230 callback.o
                0x00401d30                request_callback_notifications
                0x00401d50                delete_callbacks_for_context
                0x00401de0                queue_toplevel_callback
                0x00401e80                queue_idempotent_callback
                0x00401eb0                run_toplevel_callbacks
                0x00401f20                toplevel_callback_pending
 .text          0x00401f40     0x24c0 cmdline.o
                0x00401fe0                cmdline_cleanup
                0x00402080                cmdline_get_passwd_input
                0x00402110                cmdline_process_param
                0x00404320                cmdline_run_saved
                0x004043b0                cmdline_host_ok
 .text          0x00404400     0x11f0 conf.o
                0x004045e0                conf_new
                0x00404620                conf_free
                0x00404650                conf_copy_into
                0x004047b0                conf_copy
                0x004047e0                conf_get_bool
                0x00404880                conf_get_int
                0x00404920                conf_get_int_int
                0x004049d0                conf_get_str
                0x00404a70                conf_get_str_str_opt
                0x00404b00                conf_get_str_str
                0x00404b50                conf_get_str_strs
                0x00404c20                conf_get_str_nthstrkey
                0x00404cf0                conf_get_filename
                0x00404d90                conf_get_fontspec
                0x00404e30                conf_set_bool
                0x00404ed0                conf_set_int
                0x00404f60                conf_set_int_int
                0x00405000                conf_set_str
                0x004050a0                conf_set_str_str
                0x00405150                conf_del_str_str
                0x004051f0                conf_set_filename
                0x00405290                conf_set_fontspec
                0x00405330                conf_serialise
                0x00405470                conf_deserialise
 .text          0x004055f0     0x8750 config.o
                0x004055f0                conf_checkbox_handler
                0x004056c0                conf_editbox_handler
                0x00405890                conf_filesel_handler
                0x00405920                conf_fontsel_handler
                0x004059b0                config_protocolbuttons_handler
                0x00407490                conf_radiobutton_handler
                0x00407690                conf_radiobutton_bool_handler
                0x00408420                setup_config_box
 .text          0x0040dd40      0x4d0 cproxy.o
                0x0040dd40                proxy_socks5_offerencryptedauth
                0x0040dd60                proxy_socks5_handlechap
                0x0040e090                proxy_socks5_selectchap
 .text          0x0040e210      0xe20 dialog.o
                0x0040e2c0                I
                0x0040e2d0                P
                0x0040e2e0                ctrl_path_elements
                0x0040e310                ctrl_path_compare
                0x0040e3c0                ctrl_new_box
                0x0040e420                ctrl_find_path
                0x0040e480                ctrl_settitle
                0x0040e570                ctrl_getset
                0x0040e710                ctrl_alloc_with_free
                0x0040e7b0                ctrl_alloc
                0x0040e7e0                ctrl_columns
                0x0040e8b0                ctrl_editbox
                0x0040e920                ctrl_combobox
                0x0040e990                ctrl_radiobuttons
                0x0040eb00                ctrl_pushbutton
                0x0040eb60                ctrl_listbox
                0x0040ebe0                ctrl_droplist
                0x0040ec60                ctrl_draglist
                0x0040ece0                ctrl_filesel
                0x0040ed60                ctrl_fontsel
                0x0040edb0                ctrl_tabdelay
                0x0040ede0                ctrl_text
                0x0040ee20                ctrl_checkbox
                0x0040ee70                ctrl_free
                0x0040ef40                ctrl_free_set
                0x0040efb0                ctrl_free_box
 .text          0x0040f030     0x2ce0 ecc.o
                0x0040f2c0                ecc_weierstrass_curve
                0x0040f360                ecc_weierstrass_curve_free
                0x0040f3b0                ecc_weierstrass_point_new
                0x0040f400                ecc_weierstrass_point_new_identity
                0x0040f480                ecc_weierstrass_point_copy_into
                0x0040f4d0                ecc_weierstrass_point_copy
                0x0040f550                ecc_weierstrass_point_free
                0x0040f5a0                ecc_weierstrass_point_new_from_x
                0x0040f720                ecc_weierstrass_add
                0x0040fb40                ecc_weierstrass_double
                0x0040fe60                ecc_weierstrass_add_general
                0x00410520                ecc_weierstrass_multiply
                0x00410640                ecc_weierstrass_is_identity
                0x00410670                ecc_weierstrass_get_affine
                0x00410780                ecc_weierstrass_point_valid
                0x00410940                ecc_montgomery_curve
                0x00410a50                ecc_montgomery_curve_free
                0x00410aa0                ecc_montgomery_point_new
                0x00410b10                ecc_montgomery_point_copy_into
                0x00410b50                ecc_montgomery_point_copy
                0x00410bb0                ecc_montgomery_point_free
                0x00410bf0                ecc_montgomery_diff_add
                0x00410e50                ecc_montgomery_double
                0x00411010                ecc_montgomery_multiply
                0x004111e0                ecc_montgomery_get_affine
                0x00411270                ecc_edwards_curve
                0x00411310                ecc_edwards_curve_free
                0x00411360                ecc_edwards_point_new
                0x004113b0                ecc_edwards_point_copy_into
                0x00411410                ecc_edwards_point_copy
                0x004114a0                ecc_edwards_point_free
                0x004114f0                ecc_edwards_point_new_from_y
                0x004116d0                ecc_edwards_add
                0x004119f0                ecc_edwards_multiply
                0x00411b20                ecc_edwards_eq
                0x00411c30                ecc_edwards_get_affine
 .text          0x00411d10       0xc0 errsock.o
                0x00411d80                new_error_socket_fmt
 .text          0x00411dd0      0xdf0 ldisc.o
                0x00411f90                ldisc_configure
                0x00412010                ldisc_create
                0x004120a0                ldisc_free
                0x004120f0                ldisc_echoedit_update
                0x00412180                ldisc_send
 .text          0x00412bc0     0x1110 logging.o
                0x00412bf0                logflush
                0x00412c10                logfopen
                0x004133a0                logfclose
                0x004133d0                logtraffic
                0x00413410                logevent
                0x004134e0                logevent_and_free
                0x00413510                logeventvf
                0x00413550                logeventf
                0x00413580                log_packet
                0x00413af0                log_init
                0x00413b70                log_free
                0x00413bd0                log_reconfig
 .text          0x00413cd0     0x1170 mainchan.o
                0x00414180                mainchan_new
                0x004142f0                mainchan_get_specials
                0x004144e0                mainchan_special_cmd
                0x00414e00                mainchan_terminal_size
 .text          0x00414e40      0x6a0 marshal.o
                0x00414ea0                BinarySink_put_data
                0x00414eb0                BinarySink_put_datapl
                0x00414ec0                BinarySink_put_padding
                0x00414f20                BinarySink_put_byte
                0x00414f50                BinarySink_put_bool
                0x00414f80                BinarySink_put_uint16
                0x00414fb0                BinarySink_put_uint32
                0x00415000                BinarySink_put_uint64
                0x00415080                BinarySink_put_string
                0x004150e0                BinarySink_put_stringpl
                0x004150f0                BinarySink_put_stringz
                0x00415120                BinarySink_put_stringsb
                0x00415150                BinarySink_put_asciz
                0x00415180                BinarySink_put_pstring
                0x004151e0                BinarySource_get_data
                0x00415220                BinarySource_get_byte
                0x00415260                BinarySource_get_bool
                0x004152a0                BinarySource_get_uint16
                0x004152e0                BinarySource_get_uint32
                0x00415320                BinarySource_get_uint64
                0x00415360                BinarySource_get_string
                0x004153d0                BinarySource_get_asciz
                0x00415430                BinarySource_get_pstring
                0x004154a0                stdio_sink_init
                0x004154c0                bufchain_sink_init
 .text          0x004154e0      0x270 memory.o
                0x004154e0                safemalloc
                0x00415530                saferealloc
                0x00415590                safefree
                0x004155b0                safegrowarray
 .text          0x00415750     0x21f0 minibidi.o
                0x00415750                is_rtl
                0x004157b0                do_shape
                0x00415b20                do_bidi
 .text          0x00417940      0x7e0 misc.o
                0x004179c0                seat_connection_fatal
                0x00417a00                new_prompts
                0x00417a60                add_prompt
                0x00417af0                prompt_ensure_result_size
                0x00417b10                prompt_set_result
                0x00417b50                free_prompts
                0x00417bd0                conf_launchable
                0x00417c30                conf_dest
                0x00417c80                validate_manual_hostkey
                0x00417ed0                buildinfo
                0x00417f90                nullseat_output
                0x00417fa0                nullseat_eof
                0x00417fb0                nullseat_get_userpass_input
                0x00417fc0                nullseat_notify_remote_exit
                0x00417fd0                nullseat_connection_fatal
                0x00417fe0                nullseat_update_specials_menu
                0x00417ff0                nullseat_get_ttymode
                0x00418000                nullseat_set_busy_status
                0x00418010                nullseat_verify_ssh_host_key
                0x00418020                nullseat_confirm_weak_crypto_primitive
                0x00418030                nullseat_confirm_weak_cached_hostkey
                0x00418040                nullseat_is_never_utf8
                0x00418050                nullseat_is_always_utf8
                0x00418060                nullseat_echoedit_update
                0x00418070                nullseat_get_x_display
                0x00418080                nullseat_get_windowid
                0x00418090                nullseat_get_window_pixel_size
                0x004180a0                nullseat_stripctrl_new
                0x004180b0                nullseat_set_trust_status
                0x004180c0                nullseat_set_trust_status_vacuously
                0x004180d0                sk_free_peer_info
                0x00418110                out_of_memory
 .text          0x00418120       0xc0 miscucs.o
                0x00418120                dup_mb_to_wc_c
                0x004181a0                dup_mb_to_wc
 .text          0x004181e0     0x4570 mpint.o
                0x00418b20                mp_new
                0x00418b30                mp_from_integer
                0x00418b90                mp_max_bytes
                0x00418ba0                mp_max_bits
                0x00418bb0                mp_free
                0x00418bf0                mp_dump
                0x00418c90                mp_copy_into
                0x00418cf0                mp_select_into
                0x00418d60                mp_cond_swap
                0x00418de0                mp_clear
                0x00418e00                mp_cond_clear
                0x00418e30                mp_from_bytes_le
                0x00418e50                mp_from_bytes_be
                0x00418e70                mp_from_hex_pl
                0x00418f50                mp_from_hex
                0x00418f80                mp_copy
                0x00418f90                mp_get_byte
                0x00418fc0                mp_get_bit
                0x00418ff0                mp_get_integer
                0x00419020                mp_set_bit
                0x00419080                mp_get_nbits
                0x00419130                mp_get_hex
                0x00419140                mp_get_hex_uppercase
                0x00419150                BinarySink_put_mp_ssh1
                0x004191f0                BinarySink_put_mp_ssh2
                0x00419270                BinarySource_get_mp_ssh1
                0x00419300                BinarySource_get_mp_ssh2
                0x00419370                mp_add_into
                0x004193b0                mp_sub_into
                0x004193f0                mp_and_into
                0x00419450                mp_or_into
                0x004194b0                mp_xor_into
                0x00419510                mp_bic_into
                0x00419570                mp_add_integer_into
                0x00419620                mp_sub_integer_into
                0x004196d0                mp_mul_integer_into
                0x00419770                mp_from_decimal_pl
                0x00419810                mp_from_decimal
                0x00419840                mp_cond_add_into
                0x00419880                mp_cond_sub_into
                0x004198c0                mp_cmp_hs
                0x00419b10                mp_hs_integer
                0x00419bb0                mp_cmp_eq
                0x00419c30                mp_eq_integer
                0x00419cb0                mp_neg_into
                0x00419cf0                mp_add
                0x00419d50                mp_sub
                0x00419da0                mp_neg
                0x00419df0                mp_mul_into
                0x00419e50                mp_mul
                0x00419e90                mp_lshift_fixed_into
                0x00419f80                mp_rshift_fixed_into
                0x0041a020                mp_get_decimal
                0x0041a280                mp_rshift_fixed
                0x0041a2d0                mp_rshift_safe
                0x0041a450                mp_reduce_mod_2to
                0x0041a480                mp_invert_mod_2to
                0x0041a950                monty_free
                0x0041a9c0                monty_mul_into
                0x0041aac0                monty_mul
                0x0041ab00                monty_modulus
                0x0041ab10                monty_identity
                0x0041ab20                monty_export_into
                0x0041abb0                monty_export
                0x0041abe0                monty_pow
                0x0041acf0                mp_invert
                0x0041b170                monty_invert
                0x0041b1d0                mp_divmod_into
                0x0041baa0                mp_div
                0x0041bae0                mp_mod
                0x0041bb20                mp_modmul
                0x0041bb60                monty_new
                0x0041bc80                monty_import
                0x0041bcb0                monty_import_into
                0x0041bd00                mp_modpow
                0x0041bdd0                mp_modadd
                0x0041be10                mp_modsub
                0x0041bf80                monty_add
                0x0041c000                monty_sub
                0x0041c090                mp_min_into
                0x0041c0d0                mp_max_into
                0x0041c110                mp_min
                0x0041c150                mp_max
                0x0041c190                mp_power_2
                0x0041c1d0                modsqrt_new
                0x0041c2c0                modsqrt_free
                0x0041c320                monty_modsqrt
                0x0041c5c0                mp_modsqrt
                0x0041c640                mp_random_bits_fn
                0x0041c6c0                mp_random_in_range_fn
 .text          0x0041c750       0x40 nullplug.o
 .text          0x0041c790        0x0 pgssapi.o
 .text          0x0041c790      0x190 pinger.o
                0x0041c840                pinger_new
                0x0041c8a0                pinger_reconfig
                0x0041c900                pinger_free
 .text          0x0041c920     0x1eb0 portfwd.o
                0x0041d650                portfwd_raw_new
                0x0041d6d0                portfwd_raw_free
                0x0041d810                portfwd_raw_setup
                0x0041d850                pfr_free
                0x0041d8a0                portfwdmgr_new
                0x0041d8f0                portfwdmgr_close
                0x0041d930                portfwdmgr_close_all
                0x0041d970                portfwdmgr_free
                0x0041d9b0                portfwdmgr_config
                0x0041e420                portfwdmgr_listen
                0x0041e5b0                portfwdmgr_unlisten
                0x0041e650                portfwdmgr_connect
 .text          0x0041e7d0     0x2980 proxy.o
                0x0041f060                proxy_activate
                0x0041f190                proxy_http_negotiate
                0x0041f6f0                proxy_socks4_negotiate
                0x0041fa40                proxy_socks5_negotiate
                0x004202c0                name_lookup
                0x00420400                new_connection
                0x004209b0                new_listener
                0x004209d0                format_telnet_command
                0x00420ee0                proxy_telnet_negotiate
 .text          0x00421150      0x530 raw.o
 .text          0x00421680      0x860 rlogin.o
 .text          0x00421ee0      0x690 sercfg.o
                0x004221d0                ser_setup_config_box
 .text          0x00422570       0xf0 sessprep.o
                0x00422570                prepare_session
 .text          0x00422660     0x55e0 settings.o
                0x00423370                backend_vt_from_name
                0x004233c0                backend_vt_from_proto
                0x004233f0                get_remote_username
                0x00423450                save_open_settings
                0x004256f0                save_settings
                0x00425740                load_open_settings
                0x00427a00                load_settings
                0x00427a70                do_defaults
                0x00427a80                get_sesslist
 .text          0x00427c40      0x5f0 sizetip.o
                0x00427f70                UpdateSizeTip
                0x004281f0                EnableSizeTip
 .text          0x00428230     0x1960 ssh.o
                0x004294d0                ssh_get_logctx
                0x004294e0                ssh_check_frozen
                0x00429740                ssh_conn_processed_data
                0x00429750                ssh_remote_error
                0x00429820                ssh_remote_eof
                0x004298a0                ssh_proto_error
                0x00429940                ssh_sw_abort
                0x004299d0                ssh_deferred_abort_callback
                0x00429a10                ssh_user_close
                0x00429a90                ssh_sw_abort_deferred
                0x00429ae0                ssh_throttle_conn
                0x00429b40                ssh_ldisc_update
                0x00429b60                ssh_got_exitcode
                0x00429b70                ssh_fallback_cmd
                0x00429b80                ssh_got_fallback_cmd
 .text          0x00429b90      0xb10 ssh1bpp.o
                0x00429f10                ssh1_bpp_new
                0x00429f80                ssh1_bpp_new_cipher
                0x0042a100                ssh1_bpp_start_compression
 .text          0x0042a6a0      0x160 ssh1censor.o
                0x0042a6a0                ssh1_censor_packet
 .text          0x0042a800     0x1050 ssh1connection.o
                0x0042ad20                ssh1_channel_free
                0x0042b0a0                ssh1_connection_new
                0x0042b170                ssh1_connection_set_protoflags
                0x0042b1b0                ssh1_check_termination
                0x0042b710                ssh1_channel_init
 .text          0x0042b850      0xe90 ssh1connection-client.o
                0x0042bed0                ssh1_connection_direction_specific_setup
                0x0042bf30                ssh1_handle_direction_specific_packet
                0x0042c510                ssh1_session_open
                0x0042c550                ssh1_rportfwd_alloc
                0x0042c670                ssh1_serverside_x11_open
                0x0042c690                ssh1_serverside_agent_open
                0x0042c6b0                ssh1_connection_need_antispoof_prompt
 .text          0x0042c6e0     0x27c0 ssh1login.o
                0x0042ee00                ssh1_login_new
 .text          0x0042eea0     0x1830 ssh2bpp.o
                0x004301b0                ssh2_bpp_new
                0x00430230                ssh2_bpp_new_outgoing_crypto
                0x00430470                ssh2_bpp_new_incoming_crypto
                0x00430690                ssh2_bpp_rekey_inadvisable
 .text          0x004306d0      0x4e0 ssh2bpp-bare.o
                0x00430b40                ssh2_bare_bpp_new
 .text          0x00430bb0      0x2a0 ssh2censor.o
                0x00430bb0                ssh2_censor_packet
 .text          0x00430e50     0x2730 ssh2connection.o
                0x00431be0                ssh2_queue_global_request_handler
                0x00431c60                ssh2_connection_new
                0x00431d60                ssh2_channel_init
                0x00431ee0                ssh2_chanopen_init
                0x00431f50                ssh2_chanreq_init
 .text          0x00433580      0xf50 ssh2connection-client.o
                0x004336b0                ssh2_connection_parse_channel_open
                0x00433ad0                ssh2_connection_parse_global_request
                0x00433ae0                ssh2_portfwd_chanopen
                0x00433b90                ssh2_rportfwd_alloc
                0x00433cf0                ssh2_rportfwd_remove
                0x00433de0                ssh2_session_open
                0x00433e70                ssh2_serverside_x11_open
                0x00433e90                ssh2_serverside_agent_open
                0x00433eb0                ssh2channel_start_shell
                0x00433f00                ssh2channel_start_command
                0x00433f70                ssh2channel_start_subsystem
                0x00433fe0                ssh2channel_send_exit_status
                0x00434000                ssh2channel_send_exit_signal
                0x00434020                ssh2channel_send_exit_signal_numeric
                0x00434040                ssh2channel_request_x11_forwarding
                0x00434100                ssh2channel_request_agent_forwarding
                0x00434150                ssh2channel_request_pty
                0x004342a0                ssh2channel_send_env_var
                0x00434320                ssh2channel_send_serial_break
                0x00434390                ssh2channel_send_signal
                0x00434400                ssh2channel_send_terminal_size_change
                0x004344a0                ssh2_connection_need_antispoof_prompt
 .text          0x004344d0     0x1d80 ssh2kex-client.o
                0x004344d0                ssh2kex_coroutine
 .text          0x00436250      0x270 ssh2transhk.o
                0x00436290                ssh_transient_hostkey_cache_new
                0x004362d0                ssh_transient_hostkey_cache_free
                0x00436330                ssh_transient_hostkey_cache_add
                0x004363f0                ssh_transient_hostkey_cache_verify
                0x00436470                ssh_transient_hostkey_cache_has
                0x004364a0                ssh_transient_hostkey_cache_non_empty
 .text          0x004364c0     0x36d0 ssh2transport.o
                0x00436520                ssh2_transport_dialog_callback
                0x00437390                ssh2_transport_new
                0x004375c0                ssh2_common_filter_queue
                0x004377b0                ssh2_transport_pop
                0x00439a70                ssh2transport_finalise_exhash
                0x00439ae0                ssh2_transport_get_session_id
                0x00439b40                ssh2_transport_notify_auth_done
 .text          0x00439b90     0x3640 ssh2userauth.o
                0x0043d080                ssh2_userauth_new
                0x0043d1c0                ssh2_userauth_set_transport_layer
 .text          0x0043d1d0     0x7130 sshaes.o
 .text          0x00444300      0x250 ssharcf.o
 .text          0x00444550      0x4c0 sshauxcrypt.o
                0x00444730                aes256_encrypt_pubkey
                0x00444770                aes256_decrypt_pubkey
                0x004447b0                des3_decrypt_pubkey
                0x004447f0                des3_encrypt_pubkey
                0x00444830                des3_decrypt_pubkey_ossh
                0x00444870                des3_encrypt_pubkey_ossh
                0x004448b0                des_encrypt_xdmauth
                0x004448f0                des_decrypt_xdmauth
                0x00444930                hash_simple
                0x00444980                mac_simple
 .text          0x00444a10     0x1180 sshblowf.o
                0x00445600                blowfish_lsb_encrypt_ecb
                0x004456a0                blowfish_initkey
                0x00445720                blowfish_expandkey
                0x00445b50                blowfish_make_context
                0x00445b80                blowfish_free_context
 .text          0x00445b90     0x12b0 sshccp.o
 .text          0x00446e40     0x1c80 sshcommon.o
                0x00446ea0                chan_no_exit_status
                0x00446eb0                chan_no_exit_signal
                0x00446ec0                chan_no_exit_signal_numeric
                0x00446ed0                chan_no_enable_x11_forwarding
                0x00446ee0                chan_no_enable_agent_forwarding
                0x00446ef0                chan_no_allocate_pty
                0x00446f00                chan_no_set_env
                0x00446f10                chan_no_send_break
                0x00446f20                chan_no_send_signal
                0x00446f30                chan_no_change_window_size
                0x00446fd0                chan_no_request_response
                0x00447240                chan_no_run_command
                0x00447250                chan_no_run_subsystem
                0x00447260                chan_no_run_shell
                0x00447270                pq_base_push
                0x004472c0                pq_base_push_front
                0x00447310                pq_in_init
                0x00447330                pq_out_init
                0x00447350                pq_in_clear
                0x00447380                pq_out_clear
                0x004473d0                pq_base_concatenate
                0x00447510                ssh_new_packet
                0x00447580                ssh_free_pktout
                0x004475a0                zombiechan_new
                0x004475d0                chan_remotely_opened_confirmation
                0x004475f0                chan_remotely_opened_failure
                0x00447610                chan_default_want_close
                0x00447620                get_ttymodes_from_conf
                0x004478c0                read_ttymodes_from_packet
                0x004479c0                write_ttymodes_to_packet
                0x00447aa0                alloc_channel_id_general
                0x00447b10                add_to_commasep
                0x00447b60                get_commasep_word
                0x00447c00                ssh1_pkt_type
                0x00447f00                ssh2_pkt_type
                0x004483d0                ssh_ppl_free
                0x004483f0                ssh_ppl_setup_queues
                0x00448450                ssh_ppl_replace
                0x004484c0                ssh_ppl_user_output_string_and_free
                0x00448500                ssh_bpp_common_setup
                0x00448550                ssh_bpp_free
                0x00448570                ssh2_bpp_queue_disconnect
                0x004485e0                ssh2_bpp_check_unimplemented
                0x00448660                verify_ssh_manual_host_key
                0x00448870                ssh1_common_get_specials
                0x004488b0                ssh1_common_filter_queue
                0x00448980                ssh1_compute_session_id
                0x00448a70                free_rportfwd
 .text          0x00448ac0       0xd0 sshcrc.o
                0x00448ac0                crc32_update
                0x00448b30                crc32_ssh1
                0x00448b60                crc32_rfc1662
 .text          0x00448b90      0x490 sshcrcda.o
                0x00448c90                crcda_make_context
                0x00448cc0                crcda_free_context
                0x00448d00                detect_attack
 .text          0x00449020     0xe350 sshdes.o
                0x004570c0                des_key_setup
 .text          0x00457370      0x380 sshdh.o
                0x004573f0                dh_is_gex
                0x00457400                dh_setup_group
                0x00457480                dh_setup_gex
                0x004574f0                dh_modulus_bit_size
                0x00457500                dh_cleanup
                0x00457560                dh_create_e
                0x00457630                dh_validate_f
                0x004576c0                dh_find_K
 .text          0x004576f0      0xc20 sshdss.o
                0x00458000                dss_gen_k
 .text          0x00458310     0x26e0 sshecc.o
                0x0045a6b0                ecdsa_public
                0x0045a720                eddsa_public
                0x0045a800                ssh_ecdhkex_curve_textname
                0x0045a820                ssh_ecdhkex_newkey
                0x0045a870                ssh_ecdhkex_getpublic
                0x0045a880                ssh_ecdhkex_getkey
                0x0045a890                ssh_ecdhkex_freekey
                0x0045a8c0                ec_alg_by_oid
                0x0045a930                ec_alg_oid
                0x0045a950                ec_nist_alg_and_curve_by_bits
                0x0045a9c0                ec_ed_alg_and_curve_by_bits
 .text          0x0045a9f0      0x6a0 sshgssc.o
                0x0045b030                ssh_gssapi_bind_fns
 .text          0x0045b090      0x4f0 sshhmac.o
 .text          0x0045b580      0x130 sshmac.o
                0x0045b580                ssh2_mac_verresult
                0x0045b5f0                ssh2_mac_generate
                0x0045b650                ssh2_mac_verify
 .text          0x0045b6b0      0xb00 sshmd5.o
                0x0045bf60                MD5Init
                0x0045bfb0                MD5Final
                0x0045c110                MD5Simple
 .text          0x0045c1b0      0x5a0 sshprng.o
                0x0045c200                prng_new
                0x0045c2e0                prng_free
                0x0045c360                prng_seed_begin
                0x0045c3d0                prng_seed_finish
                0x0045c4a0                prng_read
                0x0045c5a0                prng_add_entropy
                0x0045c740                prng_seed_bits
 .text          0x0045c750     0x2dc0 sshpubk.o
                0x0045cd90                rsa_ssh1_loadkey
                0x0045ce70                rsa_ssh1_encrypted
                0x0045cf00                rsa_ssh1_loadpub
                0x0045d1c0                rsa_ssh1_savekey
                0x0045d3c0                find_pubkey_alg_len
                0x0045d7e0                find_pubkey_alg
                0x0045d810                ssh2_load_userkey
                0x0045dfd0                rfc4716_loadpub
                0x0045e360                openssh_loadpub
                0x0045e570                ssh2_userkey_loadpub
                0x0045e880                ssh2_userkey_encrypted
                0x0045ea00                base64_lines
                0x0045ea20                base64_encode
                0x0045eac0                ssh2_save_userkey
                0x0045f000                ssh1_pubkey_str
                0x0045f090                ssh1_write_pubkey
                0x0045f0d0                ssh2_pubkey_openssh_str
                0x0045f110                ssh2_write_pubkey
                0x0045f2f0                ssh2_fingerprint_blob
                0x0045f460                ssh2_fingerprint
                0x0045f4b0                key_type
                0x0045f4f0                key_type_to_str
 .text          0x0045f510      0x3e0 sshrand.o
                0x0045f590                random_add_noise
                0x0045f5d0                random_reseed
                0x0045f620                random_read
                0x0045f670                random_get_savedata
                0x0045f700                random_save_seed
                0x0045f7c0                random_ref
                0x0045f7e0                random_setup_special
                0x0045f800                random_clear
                0x0045f860                random_unref
                0x0045f8b0                random_seed_bits
 .text          0x0045f8f0     0x1a70 sshrsa.o
                0x0045fbb0                rsa2_invalid
                0x0045ff60                BinarySource_get_rsa_ssh1_pub
                0x00460000                BinarySource_get_rsa_ssh1_priv
                0x00460020                rsa_ssh1_encrypt
                0x004601e0                crt_modpow
                0x00460530                rsa_ssh1_decrypt
                0x00460570                rsa_ssh1_decrypt_pkcs1
                0x004606b0                rsastr_fmt
                0x004606f0                rsa_ssh1_fingerprint
                0x00460850                rsa_verify
                0x00460a10                rsa_ssh1_public_blob
                0x00460a90                rsa_ssh1_public_blob_len
                0x00460b10                freersapriv
                0x00460b80                freersakey
                0x00460ef0                ssh_rsakex_newkey
                0x00460f30                ssh_rsakex_freekey
                0x00460f50                ssh_rsakex_klen
                0x00460f60                ssh_rsakex_encrypt
                0x00461110                ssh_rsakex_decrypt
 .text          0x00461360      0xee0 sshsh256.o
 .text          0x00462240     0x1f00 sshsh512.o
                0x00463b80                SHA512_Init
                0x00463c00                SHA384_Init
                0x00463c80                SHA512_Final
                0x00463eb0                SHA384_Final
                0x00463f30                SHA512_Simple
                0x00464010                SHA384_Simple
 .text          0x00464140      0xc30 sshsha.o
 .text          0x00464d70     0x3000 sshshare.o
                0x00465c10                sharestate_free
                0x00465c90                share_dead_xchannel_respond
                0x00465e00                share_xchannel_confirmation
                0x00465f00                share_xchannel_failure
                0x00466fd0                share_setup_x11_channel
                0x00467350                share_got_pkt_from_server
                0x00467790                share_ndownstreams
                0x004677a0                share_activate
                0x00467840                ssh_share_sockname
                0x00467910                ssh_share_test_for_upstream
                0x00467a40                ssh_connshare_provide_connlayer
                0x00467a50                ssh_connection_sharing_init
 .text          0x00467d70     0x10a0 sshverstring.o
                0x00468cc0                ssh_verstring_new
                0x00468de0                ssh_verstring_get_remote
                0x00468df0                ssh_verstring_get_local
                0x00468e00                ssh_verstring_get_bugs
 .text          0x00468e10     0x1aa0 sshzlib.o
                0x00469730                zlib_compress_cleanup
                0x004697f0                zlib_decompress_cleanup
                0x00469880                zlib_decompress_init
                0x004699f0                zlib_decompress_block
                0x0046a3f0                zlib_compress_init
                0x0046a7a0                zlib_compress_block
 .text          0x0046a8b0     0x1140 stripctrl.o
                0x0046b820                stripctrl_new
                0x0046b890                stripctrl_new_term_fn
                0x0046b910                stripctrl_reset
                0x0046b940                stripctrl_retarget
                0x0046b950                stripctrl_free
                0x0046b980                stripctrl_enable_line_limiting
                0x0046b990                stripctrl_string_ptrlen
 .text          0x0046b9f0     0x17b0 telnet.o
 .text          0x0046d1a0     0xeb50 terminal.o
                0x00472c70                term_update
                0x00472e20                term_seen_key_event
                0x00472e90                term_copy_stuff_from_conf
                0x004733b0                term_clrsb
                0x00473490                term_free
                0x004736b0                term_set_trust_status
                0x004736c0                term_provide_backend
                0x00473700                term_translate
                0x00473a60                term_invalidate
                0x00474260                term_reconfig
                0x004746f0                term_size
                0x00475270                term_pwron
                0x004752e0                term_init
                0x00479aa0                term_paint
                0x00479c10                term_scroll
                0x00479c80                term_scroll_to_selection
                0x00479d00                term_copyall
                0x00479d60                term_request_copy
                0x00479e10                term_request_paste
                0x00479e50                term_do_paste
                0x0047a1b0                term_mouse
                0x0047abf0                format_arrow_key
                0x0047ac90                format_function_key
                0x0047ae60                format_small_keypad_key
                0x0047aff0                format_numeric_keypad_key
                0x0047b2b0                term_keyinputw
                0x0047b3b0                term_keyinput
                0x0047b5b0                term_nopaste
                0x0047b640                term_lost_clipboard_ownership
                0x0047b6b0                term_data
                0x0047b6f0                term_provide_logctx
                0x0047b700                term_set_focus
                0x0047b740                term_get_ttymode
                0x0047b7e0                term_get_userpass_input
 .text          0x0047bcf0      0x2d0 timing.o
                0x0047bda0                schedule_timer
                0x0047be80                timing_last_clock
                0x0047be90                run_timers
                0x0047bf90                expire_timer_context
 .text          0x0047bfc0     0x14f0 tree234.o
                0x0047ceb0                newtree234
                0x0047cee0                freetree234
                0x0047cf00                count234
                0x0047cf40                add234
                0x0047cf70                addpos234
                0x0047cfa0                index234
                0x0047d050                search234_step
                0x0047d1b0                search234_start
                0x0047d1e0                findrelpos234
                0x0047d350                find234
                0x0047d390                findrel234
                0x0047d3d0                findpos234
                0x0047d410                delpos234
                0x0047d460                del234
 .text          0x0047d4b0     0x1540 utils.o
                0x0047d6f0                parse_blocksize
                0x0047d7b0                ctrlparse
                0x0047d860                host_strcspn
                0x0047d890                host_strchr
                0x0047d8c0                host_strrchr
                0x0047d8f0                dupstr
                0x0047d950                dupcat
                0x0047d9f0                burnstr
                0x0047da40                string_length_for_printf
                0x0047da60                dupvprintf
                0x0047da90                dupprintf
                0x0047dac0                host_strduptrim
                0x0047dbc0                strbuf_append
                0x0047dc60                strbuf_new
                0x0047dc70                strbuf_new_nm
                0x0047dc80                strbuf_free
                0x0047dcc0                strbuf_to_str
                0x0047dce0                strbuf_catfv
                0x0047dd30                strbuf_catf
                0x0047dd60                strbuf_new_for_agent_query
                0x0047dd90                strbuf_finalise_agent_query
                0x0047dde0                fgetline
                0x0047deb0                read_file_into
                0x0047df20                chomp
                0x0047df70                base64_encode_atom
                0x0047e050                base64_decode_atom
                0x0047e190                bufchain_init
                0x0047e1c0                bufchain_clear
                0x0047e210                bufchain_size
                0x0047e220                bufchain_set_callback_inner
                0x0047e240                bufchain_add
                0x0047e320                bufchain_consume
                0x0047e3e0                bufchain_prefix
                0x0047e3f0                bufchain_fetch
                0x0047e480                bufchain_fetch_consume
                0x0047e4c0                bufchain_try_fetch_consume
                0x0047e500                bufchain_fetch_consume_up_to
                0x0047e550                smemclr
                0x0047e570                smemeq
                0x0047e5c0                nullstrcmp
                0x0047e600                ptrlen_eq_string
                0x0047e650                ptrlen_eq_ptrlen
                0x0047e690                ptrlen_strcmp
                0x0047e6e0                ptrlen_startswith
                0x0047e740                ptrlen_endswith
                0x0047e7a0                ptrlen_get_word
                0x0047e870                mkstr
                0x0047e8c0                strstartswith
                0x0047e8f0                strendswith
                0x0047e940                encode_utf8
 .text          0x0047e9f0        0x0 version.o
 .text          0x0047e9f0      0x1c0 wcwidth.o
                0x0047ea40                mk_wcwidth
                0x0047ead0                mk_wcswidth
                0x0047eb20                mk_wcwidth_cjk
                0x0047eb60                mk_wcswidth_cjk
 .text          0x0047ebb0      0x3f0 wildcard.o
                0x0047eea0                wc_error
                0x0047eec0                wc_match
                0x0047eef0                wc_match_pl
                0x0047ef10                wc_unescape
 .text          0x0047efa0        0x0 wincapi.o
 .text          0x0047efa0     0x1050 wincfg.o
                0x0047f050                win_setup_config_box
 .text          0x0047fff0     0x5380 winctrls.o
                0x00480320                init_common_controls
                0x004803d0                ctlposinit
                0x00480480                doctl
                0x00480830                staticedit
                0x00480860                staticpassedit
                0x00480890                bartitle
                0x00480900                beginbox
                0x00480940                endbox
                0x004809e0                editboxfw
                0x00480ad0                combobox
                0x00480bb0                radioline
                0x00480c60                bareradioline
                0x00480d10                radiobig
                0x00480dc0                checkbox
                0x00480e30                staticwrap
                0x00481120                statictext
                0x00481190                paneltitle
                0x00481200                staticbtn
                0x004812d0                button
                0x00481390                static2btn
                0x004814c0                staticddl
                0x004815a0                staticcombo
                0x00481680                staticddlbig
                0x00481750                bigeditctrl
                0x00481820                listbox
                0x00481900                ersatztab
                0x00481a20                editbutton
                0x00481b50                prefslist
                0x00481dd0                pl_itemfrompt
                0x00481f10                handle_prefslist
                0x00482330                progressbar
                0x004823a0                winctrl_add_shortcuts
                0x00482400                winctrl_rem_shortcuts
                0x00482460                winctrl_init
                0x00482490                winctrl_add
                0x00482510                winctrl_remove
                0x00482560                winctrl_cleanup
                0x004825d0                winctrl_findbyctrl
                0x00482600                winctrl_findbyid
                0x00482630                winctrl_findbyindex
                0x00482640                winctrl_layout
                0x00483660                dlg_last_focused
                0x00483680                winctrl_context_help
                0x00483700                dlg_is_visible
                0x00483720                dlg_radiobutton_set
                0x00483790                dlg_radiobutton_get
                0x00483830                dlg_checkbox_set
                0x00483890                dlg_checkbox_get
                0x004838f0                dlg_editbox_set
                0x00483950                dlg_editbox_get
                0x004839b0                dlg_listbox_clear
                0x00483a40                dlg_listbox_del
                0x00483ad0                dlg_listbox_add
                0x00483b60                dlg_listbox_addwithid
                0x00483c40                dlg_listbox_getid
                0x00483cc0                dlg_listbox_index
                0x00483dc0                dlg_listbox_issel
                0x00483e50                dlg_listbox_select
                0x00483ed0                dlg_text_set
                0x00483f30                dlg_label_change
                0x00484010                dlg_filesel_set
                0x00484070                dlg_filesel_get
                0x004840e0                dlg_fontsel_get
                0x00484130                dlg_update_start
                0x00484190                dlg_update_done
                0x00484210                dlg_set_focus
                0x004842b0                dlg_beep
                0x004842d0                dlg_error_msg
                0x00484300                dlg_end
                0x00484320                dlg_refresh
                0x004843d0                dlg_coloursel_start
                0x00484400                dlg_coloursel_results
                0x00484440                dlg_auto_set_fixed_pitch_flag
                0x004845c0                dlg_fontsel_set
                0x004846d0                winctrl_handle_command
                0x00485270                dlg_get_fixed_pitch_flag
                0x00485280                dlg_set_fixed_pitch_flag
                0x00485290                dp_init
                0x00485300                dp_add_tree
                0x00485340                dp_cleanup
 .text          0x00485370      0x110 windefs.o
                0x00485370                platform_default_fontspec
                0x004853f0                platform_default_filename
                0x00485430                platform_default_s
                0x00485460                platform_default_b
                0x00485470                platform_default_i
 .text          0x00485480     0x1fe0 windlg.o
                0x00486c60                force_normal
                0x00486c80                modal_about_box
                0x00486cf0                show_help
                0x00486d10                defuse_showwindow
                0x00486d80                do_config
                0x00486ec0                do_reconfig
                0x00487050                showeventlog
                0x004870d0                showabout
                0x00487110                win_seat_verify_ssh_host_key
                0x004872f0                win_seat_confirm_weak_crypto_primitive
                0x00487370                win_seat_confirm_weak_cached_hostkey
                0x004873f0                old_keyfile_warning
 .text          0x00487460     0xba40 window.o
                0x00487470                win_seat_get_window_pixel_size
                0x004874e0                cmpCOLORREF
                0x00487540                win_seat_get_ttymode
                0x00487550                win_seat_stripctrl_new
                0x0048d4f0                cleanup_exit
                0x0048d840                do_select
                0x0048d8b0                cmdline_error
                0x0048d920                timer_change_notify
                0x00491b60                write_aclip
                0x00491c90                modalfatalbox
                0x00491d00                WinMain@16
                0x00492dc0                nonfatal
                0x00492e30                agent_schedule_callback
 .text          0x00492ea0      0x2f0 ava.o
                0x00492ea0                ava_move
                0x00493030                ava_converte_decimal
                0x004930b0                ava_integral
                0x00493150                ava_seta_cor
 .text          0x00493190      0xe60 wingss.o
                0x004938d0                ssh_gss_setup
                0x00493f80                ssh_gss_cleanup
 .text          0x00493ff0      0xc90 winhandl.o
                0x00494510                handle_input_new
                0x00494630                handle_output_new
                0x00494760                handle_add_foreign_event
                0x00494800                handle_write
                0x00494890                handle_write_eof
                0x004948e0                handle_get_events
                0x00494970                handle_free
                0x004949f0                handle_got_event
                0x00494bb0                handle_unthrottle
                0x00494c10                handle_backlog
                0x00494c50                handle_get_privdata
                0x00494c60                handle_sink_init
 .text          0x00494c80       0x50 winhelp.o
                0x00494c80                has_help
                0x00494c90                init_help
                0x00494ca0                shutdown_help
                0x00494cb0                launch_help
                0x00494cc0                quit_help
 .text          0x00494cd0      0x650 winhsock.o
                0x00495230                make_handle_socket
 .text          0x00495320      0xa20 winjump.o
                0x00495bd0                clear_jumplist
                0x00495c30                add_session_to_jumplist
                0x00495c80                remove_session_from_jumplist
                0x00495cd0                set_explicit_app_user_model_id
 .text          0x00495d40      0xbc0 winmisc.o
                0x00495da0                platform_get_x_display
                0x00495dc0                filename_from_str
                0x00495e00                filename_copy
                0x00495e10                filename_to_str
                0x00495e20                filename_equal
                0x00495e50                filename_is_null
                0x00495e60                filename_free
                0x00495e80                filename_serialise
                0x00495ea0                filename_deserialise
                0x00495ec0                filename_char_sanitise
                0x00495ef0                load_system32_dll
                0x00495fa0                get_username
                0x00496110                dll_hijacking_protection
                0x00496180                init_winver
                0x00496250                win_strerror
                0x004963d0                fontspec_new
                0x00496420                fontspec_copy
                0x00496450                fontspec_free
                0x00496470                fontspec_serialise
                0x004964d0                fontspec_deserialise
                0x00496530                open_for_write_would_lose_data
                0x00496580                escape_registry_key
                0x00496670                unescape_registry_key
                0x00496710                registry_get_string
 .text          0x00496900       0x30 winmiscs.o
                0x00496900                is_console_handle
 .text          0x00496930     0x25c0 winnet.o
                0x00496d40                sk_init
                0x004974c0                sk_cleanup
                0x00497540                winsock_error_string
                0x00497cf0                sk_namelookup
                0x00497f80                sk_nonamelookup
                0x00497ff0                sk_namedpipe_addr
                0x00498060                sk_getaddr
                0x00498100                sk_addr_needs_port
                0x00498110                sk_hostname_is_local
                0x00498160                sk_address_is_local
                0x004981b0                sk_address_is_special_local
                0x004981c0                sk_addrtype
                0x004981e0                sk_addrcopy
                0x00498250                sk_addr_free
                0x00498270                sk_addr_dup
                0x00498280                sk_new
                0x00498370                sk_newlistener
                0x00498600                try_send
                0x004988e0                select_result
                0x00498cf0                sk_addr_error
                0x00498d00                socket_reselect_all
                0x00498d50                first_socket
                0x00498d90                next_socket
                0x00498dd0                socket_writable
                0x00498e10                net_service_lookup
                0x00498e50                get_hostname
                0x00498e90                platform_get_x11_unix_address
 .text          0x00498ef0      0x4c0 winnoise.o
                0x00498ef0                win_read_random
                0x00499070                noise_get_heavy
                0x00499160                noise_regular
                0x004992e0                noise_ultralight
                0x00499360                prng_reseed_time_ms
 .text          0x004993b0        0x0 winnpc.o
 .text          0x004993b0        0x0 winnps.o
 .text          0x004993b0      0x210 winpgntc.o
                0x004993b0                agent_exists
                0x004993e0                agent_cancel_query
                0x00499400                agent_query
 .text          0x004995c0      0x520 winprint.o
                0x00499700                printer_start_enum
                0x004998e0                printer_get_name
                0x00499920                printer_finish_enum
                0x00499960                printer_start_job
                0x00499a50                printer_job_data
                0x00499a90                printer_finish_job
 .text          0x00499ae0      0x390 winproxy.o
                0x00499ae0                platform_new_connection
 .text          0x00499e70       0x20 winsecur.o
                0x00499e70                restrict_process_acl
 .text          0x00499e90      0x820 winser.o
 .text          0x0049a6b0       0x20 winshare.o
                0x0049a6b0                platform_ssh_share
                0x0049a6c0                platform_ssh_share_cleanup
 .text          0x0049a6d0     0x1850 winstore.o
                0x0049ab20                open_settings_w
                0x0049ac50                write_setting_s
                0x0049aca0                write_setting_i
                0x0049acf0                close_settings_w
                0x0049ad20                open_settings_r
                0x0049ae10                read_setting_s
                0x0049af10                read_setting_i
                0x0049af80                read_setting_fontspec
                0x0049b0d0                write_setting_fontspec
                0x0049b280                read_setting_filename
                0x0049b2d0                write_setting_filename
                0x0049b2e0                close_settings_r
                0x0049b6a0                del_settings
                0x0049b730                enum_settings_start
                0x0049b790                enum_settings_next
                0x0049b860                enum_settings_finish
                0x0049b890                verify_host_key
                0x0049bbc0                have_ssh_host_key
                0x0049bc00                store_host_key
                0x0049bcc0                read_random_seed
                0x0049bd40                write_random_seed
                0x0049bd90                add_to_jumplist_registry
                0x0049bda0                remove_from_jumplist_registry
                0x0049bdb0                get_jumplist_registry_entries
                0x0049be00                cleanup_all
 .text          0x0049bf20       0xb0 wintime.o
                0x0049bf20                ltime
 .text          0x0049bfd0     0x13f0 winucs.o
                0x0049c390                xlat_uskbd2cyrllic
                0x0049c3a0                check_compose_internal
                0x0049c490                check_compose
                0x0049c4c0                decode_codepage
                0x0049c4e0                cp_name
                0x0049c5e0                cp_enumerate
                0x0049c600                get_unitab
                0x0049c780                init_ucs
                0x0049d180                wc_to_mb
                0x0049d350                mb_to_wc
                0x0049d390                is_dbcs_leadbyte
 .text          0x0049d3c0      0x690 winutils.o
                0x0049d430                request_file
                0x0049d530                filereq_new
                0x0049d560                filereq_free
                0x0049d570                message_box
                0x0049d600                pgp_fingerprints
                0x0049d630                GetDlgItemText_alloc
                0x0049d6d0                split_into_argv
 .text          0x0049da50       0x50 winx11.o
                0x0049da50                platform_get_x11_auth
 .text          0x0049daa0     0x2010 x11fwd.o
                0x0049ded0                x11_invent_fake_auth
                0x0049e0f0                x11_free_fake_auth
                0x0049e180                x11_authcmp
                0x0049e220                x11_setup_display
                0x0049e700                x11_free_display
                0x0049e760                BinarySource_get_string_xauth
                0x0049e790                BinarySink_put_stringpl_xauth
                0x0049e7f0                x11_get_auth_from_authfile
                0x0049ec50                x11_format_auth_for_authfile
                0x0049ede0                x11_get_screen_number
                0x0049ee40                x11_new_channel
                0x0049eef0                x11_identify_auth_proto
                0x0049ef50                x11_dehexify
                0x0049f000                x11_make_greeting
 .text          0x0049fab0        0x8 c:/mingw/bin/../lib/gcc/mingw32/6.3.0/../../../libadvapi32.a(dchcs00434.o)
                0x0049fab0                RegSetValueExA@24
 .text          0x0049fab8        0x8 c:/mingw/bin/../lib/gcc/mingw32/6.3.0/../../../libadvapi32.a(dchcs00423.o)
                0x0049fab8                RegQueryValueExA@24
 .text          0x0049fac0        0x8 c:/mingw/bin/../lib/gcc/mingw32/6.3.0/../../../libadvapi32.a(dchcs00412.o)
                0x0049fac0                RegOpenKeyA@12
 .text          0x0049fac8        0x8 c:/mingw/bin/../lib/gcc/mingw32/6.3.0/../../../libadvapi32.a(dchcs00400.o)
                0x0049fac8                RegEnumKeyA@16
 .text          0x0049fad0        0x8 c:/mingw/bin/../lib/gcc/mingw32/6.3.0/../../../libadvapi32.a(dchcs00397.o)
                0x0049fad0                RegDeleteValueA@8
 .text          0x0049fad8        0x8 c:/mingw/bin/../lib/gcc/mingw32/6.3.0/../../../libadvapi32.a(dchcs00393.o)
                0x0049fad8                RegDeleteKeyA@8
 .text          0x0049fae0        0x8 c:/mingw/bin/../lib/gcc/mingw32/6.3.0/../../../libadvapi32.a(dchcs00390.o)
                0x0049fae0                RegCreateKeyExA@36
 .text          0x0049fae8        0x8 c:/mingw/bin/../lib/gcc/mingw32/6.3.0/../../../libadvapi32.a(dchcs00389.o)
                0x0049fae8                RegCreateKeyA@12
 .text          0x0049faf0        0x8 c:/mingw/bin/../lib/gcc/mingw32/6.3.0/../../../libadvapi32.a(dchcs00386.o)
                0x0049faf0                RegCloseKey@4
 .text          0x0049faf8        0x8 c:/mingw/bin/../lib/gcc/mingw32/6.3.0/../../../libadvapi32.a(dchcs00245.o)
                0x0049faf8                GetUserNameA@8
 .text          0x0049fb00        0x0 c:/mingw/bin/../lib/gcc/mingw32/6.3.0/../../../libadvapi32.a(dchch.o)
 .text          0x0049fb00        0x0 c:/mingw/bin/../lib/gcc/mingw32/6.3.0/../../../libadvapi32.a(dchct.o)
 .text          0x0049fb00        0x8 c:/mingw/bin/../lib/gcc/mingw32/6.3.0/../../../libcomdlg32.a(duhcs00011.o)
                0x0049fb00                GetSaveFileNameA@4
 .text          0x0049fb08        0x8 c:/mingw/bin/../lib/gcc/mingw32/6.3.0/../../../libcomdlg32.a(duhcs00009.o)
                0x0049fb08                GetOpenFileNameA@4
 .text          0x0049fb10        0x8 c:/mingw/bin/../lib/gcc/mingw32/6.3.0/../../../libcomdlg32.a(duhcs00002.o)
                0x0049fb10                ChooseFontA@4
 .text          0x0049fb18        0x8 c:/mingw/bin/../lib/gcc/mingw32/6.3.0/../../../libcomdlg32.a(duhcs00000.o)
                0x0049fb18                ChooseColorA@4
 .text          0x0049fb20        0x0 c:/mingw/bin/../lib/gcc/mingw32/6.3.0/../../../libcomdlg32.a(duhch.o)
 .text          0x0049fb20        0x0 c:/mingw/bin/../lib/gcc/mingw32/6.3.0/../../../libcomdlg32.a(duhct.o)
 .text          0x0049fb20        0x8 c:/mingw/bin/../lib/gcc/mingw32/6.3.0/../../../libgdi32.a(dpics00343.o)
                0x0049fb20                UpdateColors@4
 .text          0x0049fb28        0x8 c:/mingw/bin/../lib/gcc/mingw32/6.3.0/../../../libgdi32.a(dpics00342.o)
                0x0049fb28                UnrealizeObject@4
 .text          0x0049fb30        0x8 c:/mingw/bin/../lib/gcc/mingw32/6.3.0/../../../libgdi32.a(dpics00341.o)
                0x0049fb30                TranslateCharsetInfo@12
 .text          0x0049fb38        0x8 c:/mingw/bin/../lib/gcc/mingw32/6.3.0/../../../libgdi32.a(dpics00339.o)
                0x0049fb38                TextOutA@20
 .text          0x0049fb40        0x8 c:/mingw/bin/../lib/gcc/mingw32/6.3.0/../../../libgdi32.a(dpics00323.o)
                0x0049fb40                SetTextColor@8
 .text          0x0049fb48        0x8 c:/mingw/bin/../lib/gcc/mingw32/6.3.0/../../../libgdi32.a(dpics00321.o)
                0x0049fb48                SetTextAlign@8
 .text          0x0049fb50        0x8 c:/mingw/bin/../lib/gcc/mingw32/6.3.0/../../../libgdi32.a(dpics00312.o)
                0x0049fb50                SetPixel@16
 .text          0x0049fb58        0x8 c:/mingw/bin/../lib/gcc/mingw32/6.3.0/../../../libgdi32.a(dpics00311.o)
                0x0049fb58                SetPaletteEntries@16
 .text          0x0049fb60        0x8 c:/mingw/bin/../lib/gcc/mingw32/6.3.0/../../../libgdi32.a(dpics00306.o)
                0x0049fb60                SetMapMode@8
 .text          0x0049fb68        0x8 c:/mingw/bin/../lib/gcc/mingw32/6.3.0/../../../libgdi32.a(dpics00288.o)
                0x0049fb68                SetBkMode@8
 .text          0x0049fb70        0x8 c:/mingw/bin/../lib/gcc/mingw32/6.3.0/../../../libgdi32.a(dpics00287.o)
                0x0049fb70                SetBkColor@8
 .text          0x0049fb78        0x8 c:/mingw/bin/../lib/gcc/mingw32/6.3.0/../../../libgdi32.a(dpics00282.o)
                0x0049fb78                SelectPalette@12
 .text          0x0049fb80        0x8 c:/mingw/bin/../lib/gcc/mingw32/6.3.0/../../../libgdi32.a(dpics00281.o)
                0x0049fb80                SelectObject@8
 .text          0x0049fb88        0x8 c:/mingw/bin/../lib/gcc/mingw32/6.3.0/../../../libgdi32.a(dpics00263.o)
                0x0049fb88                Rectangle@20
 .text          0x0049fb90        0x8 c:/mingw/bin/../lib/gcc/mingw32/6.3.0/../../../libgdi32.a(dpics00260.o)
                0x0049fb90                RealizePalette@4
 .text          0x0049fb98        0x8 c:/mingw/bin/../lib/gcc/mingw32/6.3.0/../../../libgdi32.a(dpics00256.o)
                0x0049fb98                Polyline@12
 .text          0x0049fba0        0x8 c:/mingw/bin/../lib/gcc/mingw32/6.3.0/../../../libgdi32.a(dpics00234.o)
                0x0049fba0                MoveToEx@16
 .text          0x0049fba8        0x8 c:/mingw/bin/../lib/gcc/mingw32/6.3.0/../../../libgdi32.a(dpics00231.o)
                0x0049fba8                LineTo@12
 .text          0x0049fbb0        0x8 c:/mingw/bin/../lib/gcc/mingw32/6.3.0/../../../libgdi32.a(dpics00227.o)
                0x0049fbb0                IntersectClipRect@20
 .text          0x0049fbb8        0x8 c:/mingw/bin/../lib/gcc/mingw32/6.3.0/../../../libgdi32.a(dpics00219.o)
                0x0049fbb8                GetTextMetricsA@8
 .text          0x0049fbc0        0x8 c:/mingw/bin/../lib/gcc/mingw32/6.3.0/../../../libgdi32.a(dpics00213.o)
                0x0049fbc0                GetTextExtentPoint32A@16
 .text          0x0049fbc8        0x8 c:/mingw/bin/../lib/gcc/mingw32/6.3.0/../../../libgdi32.a(dpics00210.o)
                0x0049fbc8                GetTextExtentExPointA@28
 .text          0x0049fbd0        0x8 c:/mingw/bin/../lib/gcc/mingw32/6.3.0/../../../libgdi32.a(dpics00201.o)
                0x0049fbd0                GetStockObject@4
 .text          0x0049fbd8        0x8 c:/mingw/bin/../lib/gcc/mingw32/6.3.0/../../../libgdi32.a(dpics00192.o)
                0x0049fbd8                GetPixel@12
 .text          0x0049fbe0        0x8 c:/mingw/bin/../lib/gcc/mingw32/6.3.0/../../../libgdi32.a(dpics00185.o)
                0x0049fbe0                GetObjectA@12
 .text          0x0049fbe8        0x8 c:/mingw/bin/../lib/gcc/mingw32/6.3.0/../../../libgdi32.a(dpics00148.o)
                0x0049fbe8                GetDeviceCaps@8
 .text          0x0049fbf0        0x8 c:/mingw/bin/../lib/gcc/mingw32/6.3.0/../../../libgdi32.a(dpics00136.o)
                0x0049fbf0                GetCharacterPlacementW@24
 .text          0x0049fbf8        0x8 c:/mingw/bin/../lib/gcc/mingw32/6.3.0/../../../libgdi32.a(dpics00134.o)
                0x0049fbf8                GetCharWidthW@16
 .text          0x0049fc00        0x8 c:/mingw/bin/../lib/gcc/mingw32/6.3.0/../../../libgdi32.a(dpics00131.o)
                0x0049fc00                GetCharWidthA@16
 .text          0x0049fc08        0x8 c:/mingw/bin/../lib/gcc/mingw32/6.3.0/../../../libgdi32.a(dpics00130.o)
                0x0049fc08                GetCharWidth32W@16
 .text          0x0049fc10        0x8 c:/mingw/bin/../lib/gcc/mingw32/6.3.0/../../../libgdi32.a(dpics00129.o)
                0x0049fc10                GetCharWidth32A@16
 .text          0x0049fc18        0x8 c:/mingw/bin/../lib/gcc/mingw32/6.3.0/../../../libgdi32.a(dpics00126.o)
                0x0049fc18                GetCharABCWidthsFloatA@16
 .text          0x0049fc20        0x8 c:/mingw/bin/../lib/gcc/mingw32/6.3.0/../../../libgdi32.a(dpics00122.o)
                0x0049fc20                GetBkMode@4
 .text          0x0049fc28        0x8 c:/mingw/bin/../lib/gcc/mingw32/6.3.0/../../../libgdi32.a(dpics00103.o)
                0x0049fc28                ExtTextOutW@32
 .text          0x0049fc30        0x8 c:/mingw/bin/../lib/gcc/mingw32/6.3.0/../../../libgdi32.a(dpics00102.o)
                0x0049fc30                ExtTextOutA@32
 .text          0x0049fc38        0x8 c:/mingw/bin/../lib/gcc/mingw32/6.3.0/../../../libgdi32.a(dpics00096.o)
                0x0049fc38                ExcludeClipRect@20
 .text          0x0049fc40        0x8 c:/mingw/bin/../lib/gcc/mingw32/6.3.0/../../../libgdi32.a(dpics00073.o)
                0x0049fc40                DeleteObject@4
 .text          0x0049fc48        0x8 c:/mingw/bin/../lib/gcc/mingw32/6.3.0/../../../libgdi32.a(dpics00070.o)
                0x0049fc48                DeleteDC@4
 .text          0x0049fc50        0x8 c:/mingw/bin/../lib/gcc/mingw32/6.3.0/../../../libgdi32.a(dpics00067.o)
                0x0049fc50                CreateSolidBrush@4
 .text          0x0049fc58        0x8 c:/mingw/bin/../lib/gcc/mingw32/6.3.0/../../../libgdi32.a(dpics00058.o)
                0x0049fc58                CreatePen@12
 .text          0x0049fc60        0x8 c:/mingw/bin/../lib/gcc/mingw32/6.3.0/../../../libgdi32.a(dpics00056.o)
                0x0049fc60                CreatePalette@4
 .text          0x0049fc68        0x8 c:/mingw/bin/../lib/gcc/mingw32/6.3.0/../../../libgdi32.a(dpics00047.o)
                0x0049fc68                CreateFontIndirectA@4
 .text          0x0049fc70        0x8 c:/mingw/bin/../lib/gcc/mingw32/6.3.0/../../../libgdi32.a(dpics00046.o)
                0x0049fc70                CreateFontA@56
 .text          0x0049fc78        0x8 c:/mingw/bin/../lib/gcc/mingw32/6.3.0/../../../libgdi32.a(dpics00034.o)
                0x0049fc78                CreateCompatibleDC@4
 .text          0x0049fc80        0x8 c:/mingw/bin/../lib/gcc/mingw32/6.3.0/../../../libgdi32.a(dpics00033.o)
                0x0049fc80                CreateCompatibleBitmap@12
 .text          0x0049fc88        0x8 c:/mingw/bin/../lib/gcc/mingw32/6.3.0/../../../libgdi32.a(dpics00028.o)
                0x0049fc88                CreateBitmap@20
 .text          0x0049fc90        0x0 c:/mingw/bin/../lib/gcc/mingw32/6.3.0/../../../libgdi32.a(dpich.o)
 .text          0x0049fc90        0x0 c:/mingw/bin/../lib/gcc/mingw32/6.3.0/../../../libgdi32.a(dpict.o)
 .text          0x0049fc90        0x8 c:/mingw/bin/../lib/gcc/mingw32/6.3.0/../../../libimm32.a(dojcs00065.o)
                0x0049fc90                ImmSetCompositionWindow@8
 .text          0x0049fc98        0x8 c:/mingw/bin/../lib/gcc/mingw32/6.3.0/../../../libimm32.a(dojcs00061.o)
                0x0049fc98                ImmSetCompositionFontA@8
 .text          0x0049fca0        0x8 c:/mingw/bin/../lib/gcc/mingw32/6.3.0/../../../libimm32.a(dojcs00059.o)
                0x0049fca0                ImmReleaseContext@8
 .text          0x0049fca8        0x8 c:/mingw/bin/../lib/gcc/mingw32/6.3.0/../../../libimm32.a(dojcs00025.o)
                0x0049fca8                ImmGetContext@4
 .text          0x0049fcb0        0x8 c:/mingw/bin/../lib/gcc/mingw32/6.3.0/../../../libimm32.a(dojcs00023.o)
                0x0049fcb0                ImmGetCompositionStringW@16
 .text          0x0049fcb8        0x0 c:/mingw/bin/../lib/gcc/mingw32/6.3.0/../../../libimm32.a(dojch.o)
 .text          0x0049fcb8        0x0 c:/mingw/bin/../lib/gcc/mingw32/6.3.0/../../../libimm32.a(dojct.o)
 .text          0x0049fcb8        0x8 c:/mingw/bin/../lib/gcc/mingw32/6.3.0/../../../libole32.a(damcs00072.o)
                0x0049fcb8                CoUninitialize@0
 .text          0x0049fcc0        0x8 c:/mingw/bin/../lib/gcc/mingw32/6.3.0/../../../libole32.a(damcs00037.o)
                0x0049fcc0                CoInitialize@4
 .text          0x0049fcc8        0x8 c:/mingw/bin/../lib/gcc/mingw32/6.3.0/../../../libole32.a(damcs00012.o)
                0x0049fcc8                CoCreateInstance@20
 .text          0x0049fcd0        0x0 c:/mingw/bin/../lib/gcc/mingw32/6.3.0/../../../libole32.a(damch.o)
 .text          0x0049fcd0        0x0 c:/mingw/bin/../lib/gcc/mingw32/6.3.0/../../../libole32.a(damct.o)
 .text          0x0049fcd0        0x8 c:/mingw/bin/../lib/gcc/mingw32/6.3.0/../../../libshell32.a(duocs00144.o)
                0x0049fcd0                ShellExecuteA@24
 .text          0x0049fcd8        0x0 c:/mingw/bin/../lib/gcc/mingw32/6.3.0/../../../libshell32.a(duoch.o)
 .text          0x0049fcd8        0x0 c:/mingw/bin/../lib/gcc/mingw32/6.3.0/../../../libshell32.a(duoct.o)
 .text          0x0049fcd8        0x8 c:/mingw/bin/../lib/gcc/mingw32/6.3.0/../../../libuser32.a(dtpcs00622.o)
                0x0049fcd8                UpdateWindow@4
 .text          0x0049fce0        0x8 c:/mingw/bin/../lib/gcc/mingw32/6.3.0/../../../libuser32.a(dtpcs00608.o)
                0x0049fce0                TranslateMessage@4
 .text          0x0049fce8        0x8 c:/mingw/bin/../lib/gcc/mingw32/6.3.0/../../../libuser32.a(dtpcs00602.o)
                0x0049fce8                TrackPopupMenu@28
 .text          0x0049fcf0        0x8 c:/mingw/bin/../lib/gcc/mingw32/6.3.0/../../../libuser32.a(dtpcs00598.o)
                0x0049fcf0                ToAsciiEx@24
 .text          0x0049fcf8        0x8 c:/mingw/bin/../lib/gcc/mingw32/6.3.0/../../../libuser32.a(dtpcs00591.o)
                0x0049fcf8                SystemParametersInfoA@16
 .text          0x0049fd00        0x8 c:/mingw/bin/../lib/gcc/mingw32/6.3.0/../../../libuser32.a(dtpcs00585.o)
                0x0049fd00                ShowWindow@8
 .text          0x0049fd08        0x8 c:/mingw/bin/../lib/gcc/mingw32/6.3.0/../../../libuser32.a(dtpcs00582.o)
                0x0049fd08                ShowCursor@4
 .text          0x0049fd10        0x8 c:/mingw/bin/../lib/gcc/mingw32/6.3.0/../../../libuser32.a(dtpcs00581.o)
                0x0049fd10                ShowCaret@4
 .text          0x0049fd18        0x8 c:/mingw/bin/../lib/gcc/mingw32/6.3.0/../../../libuser32.a(dtpcs00574.o)
                0x0049fd18                SetWindowTextA@8
 .text          0x0049fd20        0x8 c:/mingw/bin/../lib/gcc/mingw32/6.3.0/../../../libuser32.a(dtpcs00572.o)
                0x0049fd20                SetWindowPos@28
 .text          0x0049fd28        0x8 c:/mingw/bin/../lib/gcc/mingw32/6.3.0/../../../libuser32.a(dtpcs00571.o)
                0x0049fd28                SetWindowPlacement@8
 .text          0x0049fd30        0x8 c:/mingw/bin/../lib/gcc/mingw32/6.3.0/../../../libuser32.a(dtpcs00569.o)
                0x0049fd30                SetWindowLongA@12
 .text          0x0049fd38        0x8 c:/mingw/bin/../lib/gcc/mingw32/6.3.0/../../../libuser32.a(dtpcs00563.o)
                0x0049fd38                SetTimer@16
 .text          0x0049fd40        0x8 c:/mingw/bin/../lib/gcc/mingw32/6.3.0/../../../libuser32.a(dtpcs00554.o)
                0x0049fd40                SetScrollInfo@16
 .text          0x0049fd48        0x8 c:/mingw/bin/../lib/gcc/mingw32/6.3.0/../../../libuser32.a(dtpcs00535.o)
                0x0049fd48                SetKeyboardState@4
 .text          0x0049fd50        0x8 c:/mingw/bin/../lib/gcc/mingw32/6.3.0/../../../libuser32.a(dtpcs00534.o)
                0x0049fd50                SetForegroundWindow@4
 .text          0x0049fd58        0x8 c:/mingw/bin/../lib/gcc/mingw32/6.3.0/../../../libuser32.a(dtpcs00533.o)
                0x0049fd58                SetFocus@4
 .text          0x0049fd60        0x8 c:/mingw/bin/../lib/gcc/mingw32/6.3.0/../../../libuser32.a(dtpcs00530.o)
                0x0049fd60                SetDlgItemTextA@12
 .text          0x0049fd68        0x8 c:/mingw/bin/../lib/gcc/mingw32/6.3.0/../../../libuser32.a(dtpcs00525.o)
                0x0049fd68                SetCursor@4
 .text          0x0049fd70        0x8 c:/mingw/bin/../lib/gcc/mingw32/6.3.0/../../../libuser32.a(dtpcs00523.o)
                0x0049fd70                SetClipboardData@8
 .text          0x0049fd78        0x8 c:/mingw/bin/../lib/gcc/mingw32/6.3.0/../../../libuser32.a(dtpcs00520.o)
                0x0049fd78                SetClassLongA@12
 .text          0x0049fd80        0x8 c:/mingw/bin/../lib/gcc/mingw32/6.3.0/../../../libuser32.a(dtpcs00519.o)
                0x0049fd80                SetCaretPos@8
 .text          0x0049fd88        0x8 c:/mingw/bin/../lib/gcc/mingw32/6.3.0/../../../libuser32.a(dtpcs00517.o)
                0x0049fd88                SetCapture@4
 .text          0x0049fd90        0x8 c:/mingw/bin/../lib/gcc/mingw32/6.3.0/../../../libuser32.a(dtpcs00516.o)
                0x0049fd90                SetActiveWindow@4
 .text          0x0049fd98        0x8 c:/mingw/bin/../lib/gcc/mingw32/6.3.0/../../../libuser32.a(dtpcs00508.o)
                0x0049fd98                SendMessageA@16
 .text          0x0049fda0        0x8 c:/mingw/bin/../lib/gcc/mingw32/6.3.0/../../../libuser32.a(dtpcs00505.o)
                0x0049fda0                SendDlgItemMessageA@20
 .text          0x0049fda8        0x8 c:/mingw/bin/../lib/gcc/mingw32/6.3.0/../../../libuser32.a(dtpcs00500.o)
                0x0049fda8                ScreenToClient@8
 .text          0x0049fdb0        0x8 c:/mingw/bin/../lib/gcc/mingw32/6.3.0/../../../libuser32.a(dtpcs00494.o)
                0x0049fdb0                ReleaseDC@8
 .text          0x0049fdb8        0x8 c:/mingw/bin/../lib/gcc/mingw32/6.3.0/../../../libuser32.a(dtpcs00493.o)
                0x0049fdb8                ReleaseCapture@0
 .text          0x0049fdc0        0x8 c:/mingw/bin/../lib/gcc/mingw32/6.3.0/../../../libuser32.a(dtpcs00491.o)
                0x0049fdc0                RegisterWindowMessageA@4
 .text          0x0049fdc8        0x8 c:/mingw/bin/../lib/gcc/mingw32/6.3.0/../../../libuser32.a(dtpcs00483.o)
                0x0049fdc8                RegisterClipboardFormatA@4
 .text          0x0049fdd0        0x8 c:/mingw/bin/../lib/gcc/mingw32/6.3.0/../../../libuser32.a(dtpcs00482.o)
                0x0049fdd0                RegisterClassW@4
 .text          0x0049fdd8        0x8 c:/mingw/bin/../lib/gcc/mingw32/6.3.0/../../../libuser32.a(dtpcs00479.o)
                0x0049fdd8                RegisterClassA@4
 .text          0x0049fde0        0x8 c:/mingw/bin/../lib/gcc/mingw32/6.3.0/../../../libuser32.a(dtpcs00468.o)
                0x0049fde0                PostQuitMessage@4
 .text          0x0049fde8        0x8 c:/mingw/bin/../lib/gcc/mingw32/6.3.0/../../../libuser32.a(dtpcs00466.o)
                0x0049fde8                PostMessageA@16
 .text          0x0049fdf0        0x8 c:/mingw/bin/../lib/gcc/mingw32/6.3.0/../../../libuser32.a(dtpcs00465.o)
                0x0049fdf0                PeekMessageW@20
 .text          0x0049fdf8        0x8 c:/mingw/bin/../lib/gcc/mingw32/6.3.0/../../../libuser32.a(dtpcs00464.o)
                0x0049fdf8                PeekMessageA@20
 .text          0x0049fe00        0x8 c:/mingw/bin/../lib/gcc/mingw32/6.3.0/../../../libuser32.a(dtpcs00455.o)
                0x0049fe00                OpenClipboard@4
 .text          0x0049fe08        0x8 c:/mingw/bin/../lib/gcc/mingw32/6.3.0/../../../libuser32.a(dtpcs00446.o)
                0x0049fe08                MsgWaitForMultipleObjects@20
 .text          0x0049fe10        0x8 c:/mingw/bin/../lib/gcc/mingw32/6.3.0/../../../libuser32.a(dtpcs00445.o)
                0x0049fe10                MoveWindow@24
 .text          0x0049fe18        0x8 c:/mingw/bin/../lib/gcc/mingw32/6.3.0/../../../libuser32.a(dtpcs00437.o)
                0x0049fe18                MessageBoxIndirectA@4
 .text          0x0049fe20        0x8 c:/mingw/bin/../lib/gcc/mingw32/6.3.0/../../../libuser32.a(dtpcs00434.o)
                0x0049fe20                MessageBoxA@16
 .text          0x0049fe28        0x8 c:/mingw/bin/../lib/gcc/mingw32/6.3.0/../../../libuser32.a(dtpcs00433.o)
                0x0049fe28                MessageBeep@4
 .text          0x0049fe30        0x8 c:/mingw/bin/../lib/gcc/mingw32/6.3.0/../../../libuser32.a(dtpcs00426.o)
                0x0049fe30                MapDialogRect@8
 .text          0x0049fe38        0x8 c:/mingw/bin/../lib/gcc/mingw32/6.3.0/../../../libuser32.a(dtpcs00411.o)
                0x0049fe38                LoadImageA@24
 .text          0x0049fe40        0x8 c:/mingw/bin/../lib/gcc/mingw32/6.3.0/../../../libuser32.a(dtpcs00409.o)
                0x0049fe40                LoadIconA@8
 .text          0x0049fe48        0x8 c:/mingw/bin/../lib/gcc/mingw32/6.3.0/../../../libuser32.a(dtpcs00405.o)
                0x0049fe48                LoadCursorA@8
 .text          0x0049fe50        0x8 c:/mingw/bin/../lib/gcc/mingw32/6.3.0/../../../libuser32.a(dtpcs00400.o)
                0x0049fe50                KillTimer@8
 .text          0x0049fe58        0x8 c:/mingw/bin/../lib/gcc/mingw32/6.3.0/../../../libuser32.a(dtpcs00398.o)
                0x0049fe58                IsZoomed@4
 .text          0x0049fe60        0x8 c:/mingw/bin/../lib/gcc/mingw32/6.3.0/../../../libuser32.a(dtpcs00394.o)
                0x0049fe60                IsWindow@4
 .text          0x0049fe68        0x8 c:/mingw/bin/../lib/gcc/mingw32/6.3.0/../../../libuser32.a(dtpcs00389.o)
                0x0049fe68                IsIconic@4
 .text          0x0049fe70        0x8 c:/mingw/bin/../lib/gcc/mingw32/6.3.0/../../../libuser32.a(dtpcs00386.o)
                0x0049fe70                IsDlgButtonChecked@8
 .text          0x0049fe78        0x8 c:/mingw/bin/../lib/gcc/mingw32/6.3.0/../../../libuser32.a(dtpcs00384.o)
                0x0049fe78                IsDialogMessageA@8
 .text          0x0049fe80        0x8 c:/mingw/bin/../lib/gcc/mingw32/6.3.0/../../../libuser32.a(dtpcs00370.o)
                0x0049fe80                InvalidateRect@12
 .text          0x0049fe88        0x8 c:/mingw/bin/../lib/gcc/mingw32/6.3.0/../../../libuser32.a(dtpcs00364.o)
                0x0049fe88                InsertMenuA@20
 .text          0x0049fe90        0x8 c:/mingw/bin/../lib/gcc/mingw32/6.3.0/../../../libuser32.a(dtpcs00358.o)
                0x0049fe90                HideCaret@4
 .text          0x0049fe98        0x8 c:/mingw/bin/../lib/gcc/mingw32/6.3.0/../../../libuser32.a(dtpcs00351.o)
                0x0049fe98                GetWindowTextLengthA@4
 .text          0x0049fea0        0x8 c:/mingw/bin/../lib/gcc/mingw32/6.3.0/../../../libuser32.a(dtpcs00350.o)
                0x0049fea0                GetWindowTextA@12
 .text          0x0049fea8        0x8 c:/mingw/bin/../lib/gcc/mingw32/6.3.0/../../../libuser32.a(dtpcs00348.o)
                0x0049fea8                GetWindowRect@8
 .text          0x0049feb0        0x8 c:/mingw/bin/../lib/gcc/mingw32/6.3.0/../../../libuser32.a(dtpcs00347.o)
                0x0049feb0                GetWindowPlacement@8
 .text          0x0049feb8        0x8 c:/mingw/bin/../lib/gcc/mingw32/6.3.0/../../../libuser32.a(dtpcs00342.o)
                0x0049feb8                GetWindowLongA@8
 .text          0x0049fec0        0x8 c:/mingw/bin/../lib/gcc/mingw32/6.3.0/../../../libuser32.a(dtpcs00325.o)
                0x0049fec0                GetSystemMenu@8
 .text          0x0049fec8        0x8 c:/mingw/bin/../lib/gcc/mingw32/6.3.0/../../../libuser32.a(dtpcs00323.o)
                0x0049fec8                GetSysColor@4
 .text          0x0049fed0        0x8 c:/mingw/bin/../lib/gcc/mingw32/6.3.0/../../../libuser32.a(dtpcs00318.o)
                0x0049fed0                GetScrollInfo@12
 .text          0x0049fed8        0x8 c:/mingw/bin/../lib/gcc/mingw32/6.3.0/../../../libuser32.a(dtpcs00310.o)
                0x0049fed8                GetQueueStatus@4
 .text          0x0049fee0        0x8 c:/mingw/bin/../lib/gcc/mingw32/6.3.0/../../../libuser32.a(dtpcs00304.o)
                0x0049fee0                GetParent@4
 .text          0x0049fee8        0x8 c:/mingw/bin/../lib/gcc/mingw32/6.3.0/../../../libuser32.a(dtpcs00296.o)
                0x0049fee8                GetMessageTime@0
 .text          0x0049fef0        0x8 c:/mingw/bin/../lib/gcc/mingw32/6.3.0/../../../libuser32.a(dtpcs00293.o)
                0x0049fef0                GetMessageA@16
 .text          0x0049fef8        0x8 c:/mingw/bin/../lib/gcc/mingw32/6.3.0/../../../libuser32.a(dtpcs00273.o)
                0x0049fef8                GetKeyboardState@4
 .text          0x0049ff00        0x8 c:/mingw/bin/../lib/gcc/mingw32/6.3.0/../../../libuser32.a(dtpcs00269.o)
                0x0049ff00                GetKeyboardLayout@4
 .text          0x0049ff08        0x8 c:/mingw/bin/../lib/gcc/mingw32/6.3.0/../../../libuser32.a(dtpcs00259.o)
                0x0049ff08                GetForegroundWindow@0
 .text          0x0049ff10        0x8 c:/mingw/bin/../lib/gcc/mingw32/6.3.0/../../../libuser32.a(dtpcs00257.o)
                0x0049ff10                GetDoubleClickTime@0
 .text          0x0049ff18        0x8 c:/mingw/bin/../lib/gcc/mingw32/6.3.0/../../../libuser32.a(dtpcs00255.o)
                0x0049ff18                GetDlgItemTextA@16
 .text          0x0049ff20        0x8 c:/mingw/bin/../lib/gcc/mingw32/6.3.0/../../../libuser32.a(dtpcs00253.o)
                0x0049ff20                GetDlgItem@8
 .text          0x0049ff28        0x8 c:/mingw/bin/../lib/gcc/mingw32/6.3.0/../../../libuser32.a(dtpcs00250.o)
                0x0049ff28                GetDesktopWindow@0
 .text          0x0049ff30        0x8 c:/mingw/bin/../lib/gcc/mingw32/6.3.0/../../../libuser32.a(dtpcs00248.o)
                0x0049ff30                GetDC@4
 .text          0x0049ff38        0x8 c:/mingw/bin/../lib/gcc/mingw32/6.3.0/../../../libuser32.a(dtpcs00247.o)
                0x0049ff38                GetCursorPos@4
 .text          0x0049ff40        0x8 c:/mingw/bin/../lib/gcc/mingw32/6.3.0/../../../libuser32.a(dtpcs00241.o)
                0x0049ff40                GetClipboardOwner@0
 .text          0x0049ff48        0x8 c:/mingw/bin/../lib/gcc/mingw32/6.3.0/../../../libuser32.a(dtpcs00238.o)
                0x0049ff48                GetClipboardData@4
 .text          0x0049ff50        0x8 c:/mingw/bin/../lib/gcc/mingw32/6.3.0/../../../libuser32.a(dtpcs00236.o)
                0x0049ff50                GetClientRect@8
 .text          0x0049ff58        0x8 c:/mingw/bin/../lib/gcc/mingw32/6.3.0/../../../libuser32.a(dtpcs00225.o)
                0x0049ff58                GetCaretBlinkTime@0
 .text          0x0049ff60        0x8 c:/mingw/bin/../lib/gcc/mingw32/6.3.0/../../../libuser32.a(dtpcs00224.o)
                0x0049ff60                GetCapture@0
 .text          0x0049ff68        0x8 c:/mingw/bin/../lib/gcc/mingw32/6.3.0/../../../libuser32.a(dtpcs00214.o)
                0x0049ff68                FlashWindow@8
 .text          0x0049ff70        0x8 c:/mingw/bin/../lib/gcc/mingw32/6.3.0/../../../libuser32.a(dtpcs00210.o)
                0x0049ff70                FindWindowA@8
 .text          0x0049ff78        0x8 c:/mingw/bin/../lib/gcc/mingw32/6.3.0/../../../libuser32.a(dtpcs00184.o)
                0x0049ff78                EndPaint@8
 .text          0x0049ff80        0x8 c:/mingw/bin/../lib/gcc/mingw32/6.3.0/../../../libuser32.a(dtpcs00182.o)
                0x0049ff80                EndDialog@8
 .text          0x0049ff88        0x8 c:/mingw/bin/../lib/gcc/mingw32/6.3.0/../../../libuser32.a(dtpcs00180.o)
                0x0049ff88                EnableWindow@8
 .text          0x0049ff90        0x8 c:/mingw/bin/../lib/gcc/mingw32/6.3.0/../../../libuser32.a(dtpcs00178.o)
                0x0049ff90                EnableMenuItem@12
 .text          0x0049ff98        0x8 c:/mingw/bin/../lib/gcc/mingw32/6.3.0/../../../libuser32.a(dtpcs00177.o)
                0x0049ff98                EmptyClipboard@0
 .text          0x0049ffa0        0x8 c:/mingw/bin/../lib/gcc/mingw32/6.3.0/../../../libuser32.a(dtpcs00168.o)
                0x0049ffa0                DrawIconEx@36
 .text          0x0049ffa8        0x8 c:/mingw/bin/../lib/gcc/mingw32/6.3.0/../../../libuser32.a(dtpcs00163.o)
                0x0049ffa8                DrawEdge@16
 .text          0x0049ffb0        0x8 c:/mingw/bin/../lib/gcc/mingw32/6.3.0/../../../libuser32.a(dtpcs00150.o)
                0x0049ffb0                DispatchMessageW@4
 .text          0x0049ffb8        0x8 c:/mingw/bin/../lib/gcc/mingw32/6.3.0/../../../libuser32.a(dtpcs00149.o)
                0x0049ffb8                DispatchMessageA@4
 .text          0x0049ffc0        0x8 c:/mingw/bin/../lib/gcc/mingw32/6.3.0/../../../libuser32.a(dtpcs00147.o)
                0x0049ffc0                DialogBoxParamA@20
 .text          0x0049ffc8        0x8 c:/mingw/bin/../lib/gcc/mingw32/6.3.0/../../../libuser32.a(dtpcs00144.o)
                0x0049ffc8                DestroyWindow@4
 .text          0x0049ffd0        0x8 c:/mingw/bin/../lib/gcc/mingw32/6.3.0/../../../libuser32.a(dtpcs00142.o)
                0x0049ffd0                DestroyIcon@4
 .text          0x0049ffd8        0x8 c:/mingw/bin/../lib/gcc/mingw32/6.3.0/../../../libuser32.a(dtpcs00140.o)
                0x0049ffd8                DestroyCaret@0
 .text          0x0049ffe0        0x8 c:/mingw/bin/../lib/gcc/mingw32/6.3.0/../../../libuser32.a(dtpcs00137.o)
                0x0049ffe0                DeleteMenu@12
 .text          0x0049ffe8        0x8 c:/mingw/bin/../lib/gcc/mingw32/6.3.0/../../../libuser32.a(dtpcs00135.o)
                0x0049ffe8                DefWindowProcW@16
 .text          0x0049fff0        0x8 c:/mingw/bin/../lib/gcc/mingw32/6.3.0/../../../libuser32.a(dtpcs00134.o)
                0x0049fff0                DefWindowProcA@16
 .text          0x0049fff8        0x8 c:/mingw/bin/../lib/gcc/mingw32/6.3.0/../../../libuser32.a(dtpcs00127.o)
                0x0049fff8                DefDlgProcA@16
 .text          0x004a0000        0x8 c:/mingw/bin/../lib/gcc/mingw32/6.3.0/../../../libuser32.a(dtpcs00091.o)
                0x004a0000                CreateWindowExW@48
 .text          0x004a0008        0x8 c:/mingw/bin/../lib/gcc/mingw32/6.3.0/../../../libuser32.a(dtpcs00090.o)
                0x004a0008                CreateWindowExA@48
 .text          0x004a0010        0x8 c:/mingw/bin/../lib/gcc/mingw32/6.3.0/../../../libuser32.a(dtpcs00089.o)
                0x004a0010                CreatePopupMenu@0
 .text          0x004a0018        0x8 c:/mingw/bin/../lib/gcc/mingw32/6.3.0/../../../libuser32.a(dtpcs00088.o)
                0x004a0018                CreateMenu@0
 .text          0x004a0020        0x8 c:/mingw/bin/../lib/gcc/mingw32/6.3.0/../../../libuser32.a(dtpcs00080.o)
                0x004a0020                CreateDialogParamA@20
 .text          0x004a0028        0x8 c:/mingw/bin/../lib/gcc/mingw32/6.3.0/../../../libuser32.a(dtpcs00074.o)
                0x004a0028                CreateCaret@16
 .text          0x004a0030        0x8 c:/mingw/bin/../lib/gcc/mingw32/6.3.0/../../../libuser32.a(dtpcs00061.o)
                0x004a0030                CloseClipboard@0
 .text          0x004a0038        0x8 c:/mingw/bin/../lib/gcc/mingw32/6.3.0/../../../libuser32.a(dtpcs00056.o)
                0x004a0038                CheckRadioButton@16
 .text          0x004a0040        0x8 c:/mingw/bin/../lib/gcc/mingw32/6.3.0/../../../libuser32.a(dtpcs00054.o)
                0x004a0040                CheckMenuItem@12
 .text          0x004a0048        0x8 c:/mingw/bin/../lib/gcc/mingw32/6.3.0/../../../libuser32.a(dtpcs00053.o)
                0x004a0048                CheckDlgButton@12
 .text          0x004a0050        0x8 c:/mingw/bin/../lib/gcc/mingw32/6.3.0/../../../libuser32.a(dtpcs00011.o)
                0x004a0050                BeginPaint@8
 .text          0x004a0058        0x8 c:/mingw/bin/../lib/gcc/mingw32/6.3.0/../../../libuser32.a(dtpcs00006.o)
                0x004a0058                AppendMenuA@16
 .text          0x004a0060        0x0 c:/mingw/bin/../lib/gcc/mingw32/6.3.0/../../../libuser32.a(dtpch.o)
 .text          0x004a0060        0x0 c:/mingw/bin/../lib/gcc/mingw32/6.3.0/../../../libuser32.a(dtpct.o)
 .text          0x004a0060        0x0 c:/mingw/bin/../lib/gcc/mingw32/6.3.0/../../../libmingw32.a(CRTglob.o)
 .text          0x004a0060      0x3a0 c:/mingw/bin/../lib/gcc/mingw32/6.3.0/../../../libmingw32.a(setargv.o)
                0x004a0060                _setargv
 .text          0x004a0400        0x0 c:/mingw/bin/../lib/gcc/mingw32/6.3.0/../../../libmingw32.a(CRTfmode.o)
 .text          0x004a0400      0x110 c:/mingw/bin/../lib/gcc/mingw32/6.3.0/../../../libmingw32.a(cpu_features.o)
                0x004a0400                __cpu_features_init
 .text          0x004a0510        0x0 c:/mingw/bin/../lib/gcc/mingw32/6.3.0/../../../libmingw32.a(CRT_fp10.o)
 .text          0x004a0510        0x0 c:/mingw/bin/../lib/gcc/mingw32/6.3.0/../../../libmingw32.a(txtmode.o)
 .text          0x004a0510        0x0 c:/mingw/bin/../lib/gcc/mingw32/6.3.0/../../../libmingw32.a(main.o)
 .text          0x004a0510       0xa0 c:/mingw/bin/../lib/gcc/mingw32/6.3.0/../../../libmingw32.a(gccmain.o)
                0x004a0510                __do_global_dtors
                0x004a0540                __do_global_ctors
                0x004a0590                __main
 .text          0x004a05b0       0xf0 c:/mingw/bin/../lib/gcc/mingw32/6.3.0/../../../libmingw32.a(tlssup.o)
                0x004a0600                __dyn_tls_init@12
                0x004a0690                __tlregdtor
 .text          0x004a06a0      0x230 c:/mingw/bin/../lib/gcc/mingw32/6.3.0/../../../libmingw32.a(tlsthrd.o)
                0x004a0700                ___w64_mingwthr_add_key_dtor
                0x004a0790                ___w64_mingwthr_remove_key_dtor
                0x004a0830                __mingw_TLScallback
 .text          0x004a08d0      0x310 c:/mingw/bin/../lib/gcc/mingw32/6.3.0/../../../libmingw32.a(pseudo-reloc.o)
                0x004a0a10                _pei386_runtime_relocator
 .text          0x004a0be0        0x0 c:/mingw/bin/../lib/gcc/mingw32/6.3.0/../../../libmingw32.a(pseudo-reloc-list.o)
 .text          0x004a0be0        0x0 c:/mingw/bin/../lib/gcc/mingw32/6.3.0/../../../libmingw32.a(crtst.o)
 .text          0x004a0be0       0x2c c:/mingw/bin/../lib/gcc/mingw32/6.3.0/libgcc.a(_chkstk_ms.o)
                0x004a0be0                __chkstk_ms
 .text          0x004a0c0c        0x0 c:/mingw/bin/../lib/gcc/mingw32/6.3.0/libgcc.a(_ctors.o)
 *fill*         0x004a0c0c        0x4 
 .text          0x004a0c10      0x120 c:/mingw/bin/../lib/gcc/mingw32/6.3.0/libgcc.a(_udivdi3.o)
                0x004a0c10                __udivdi3
 .text          0x004a0d30       0x70 c:/mingw/bin/../lib/gcc/mingw32/6.3.0/../../../libmingwex.a(fesetenv.o)
                0x004a0d30                fesetenv
 .text          0x004a0da0      0x100 c:/mingw/bin/../lib/gcc/mingw32/6.3.0/../../../libmingwex.a(strtodnrp.o)
                0x004a0da0                __strtod
 .text          0x004a0ea0       0x40 c:/mingw/bin/../lib/gcc/mingw32/6.3.0/../../../libmingwex.a(vfprintf.o)
                0x004a0ea0                __mingw_vfprintf
 .text          0x004a0ee0       0x80 c:/mingw/bin/../lib/gcc/mingw32/6.3.0/../../../libmingwex.a(vsnprintf.o)
                0x004a0ee0                __mingw_vsnprintf
                0x004a0ee0                vsnprintf
 .text          0x004a0f60       0x40 c:/mingw/bin/../lib/gcc/mingw32/6.3.0/../../../libmingwex.a(vsprintf.o)
                0x004a0f60                __mingw_vsprintf
 .text          0x004a0fa0     0x1080 c:/mingw/bin/../lib/gcc/mingw32/6.3.0/../../../libmingwex.a(glob.o)
                0x004a1ed0                __mingw_glob
                0x004a1fc0                __mingw_globfree
 .text          0x004a2020      0x400 c:/mingw/bin/../lib/gcc/mingw32/6.3.0/../../../libmingwex.a(dirname.o)
                0x004a2020                __mingw_dirname
 .text          0x004a2420      0x4f0 c:/mingw/bin/../lib/gcc/mingw32/6.3.0/../../../libmingwex.a(dirent.o)
                0x004a25a0                __mingw_opendir
                0x004a2760                __mingw_readdir
                0x004a27b0                __mingw_closedir
                0x004a2800                __mingw_rewinddir
                0x004a2860                __mingw_telldir
                0x004a2890                __mingw_seekdir
 .text          0x004a2910      0x430 c:/mingw/bin/../lib/gcc/mingw32/6.3.0/../../../libmingwex.a(mbrtowc.o)
                0x004a2aa0                mbrtowc
                0x004a2b40                mbsrtowcs
                0x004a2cb0                mbrlen
 .text          0x004a2d40      0x290 c:/mingw/bin/../lib/gcc/mingw32/6.3.0/../../../libmingwex.a(wcrtomb.o)
                0x004a2de0                wcrtomb
                0x004a2e60                wcsrtombs
 .text          0x004a2fd0     0x2140 c:/mingw/bin/../lib/gcc/mingw32/6.3.0/../../../libmingwex.a(strtodg.o)
                0x004a2fd0                __increment_D2A
                0x004a3450                __decrement_D2A
                0x004a3490                __set_ones_D2A
                0x004a3510                __strtodg
 .text          0x004a5110      0x3d0 c:/mingw/bin/../lib/gcc/mingw32/6.3.0/../../../libmingwex.a(hexnan.o)
                0x004a5110                __hexnan_D2A
 .text          0x004a54e0      0xbd0 c:/mingw/bin/../lib/gcc/mingw32/6.3.0/../../../libmingwex.a(misc.o)
                0x004a5600                __Balloc_D2A
                0x004a56d0                __Bfree_D2A
                0x004a5740                __multadd_D2A
                0x004a5830                __i2b_D2A
                0x004a5860                __mult_D2A
                0x004a59d0                __pow5mult_D2A
                0x004a5b40                __lshift_D2A
                0x004a5c60                __cmp_D2A
                0x004a5cb0                __diff_D2A
                0x004a5e90                __b2d_D2A
                0x004a5f90                __d2b_D2A
                0x004a6080                __strcp_D2A
 .text          0x004a60b0     0x2b00 c:/mingw/bin/../lib/gcc/mingw32/6.3.0/../../../libmingwex.a(pformat.o)
                0x004a7c40                __mingw_pformat
 .text          0x004a8bb0        0x0 c:/mingw/bin/../lib/gcc/mingw32/6.3.0/../../../libmingwex.a(varofmt.o)
 .text          0x004a8bb0      0x990 c:/mingw/bin/../lib/gcc/mingw32/6.3.0/../../../libmingwex.a(gethex.o)
                0x004a8bb0                __gethex_D2A
 .text          0x004a9540     0x1630 c:/mingw/bin/../lib/gcc/mingw32/6.3.0/../../../libmingwex.a(gdtoa.o)
                0x004a9540                __gdtoa
 .text          0x004aab70      0x160 c:/mingw/bin/../lib/gcc/mingw32/6.3.0/../../../libmingwex.a(gmisc.o)
                0x004aab70                __rshift_D2A
                0x004aac90                __trailz_D2A
 .text          0x004aacd0      0x2f0 c:/mingw/bin/../lib/gcc/mingw32/6.3.0/../../../libmingwex.a(smisc.o)
                0x004aacd0                __s2b_D2A
                0x004aadc0                __ratio_D2A
                0x004aae80                __match_D2A
                0x004aaed0                __copybits_D2A
                0x004aaf40                __any_on_D2A
 .text          0x004aafc0      0x160 c:/mingw/bin/../lib/gcc/mingw32/6.3.0/../../../libmingwex.a(sum.o)
                0x004aafc0                __sum_D2A
 .text          0x004ab120       0x80 c:/mingw/bin/../lib/gcc/mingw32/6.3.0/../../../libmingwex.a(hd_init.o)
                0x004ab120                hexdig_init_D2A
 .text          0x004ab1a0      0x2d0 c:/mingw/bin/../lib/gcc/mingw32/6.3.0/../../../libmingwex.a(dmisc.o)
                0x004ab1a0                __rv_alloc_D2A
                0x004ab1e0                __nrv_alloc_D2A
                0x004ab260                __freedtoa
                0x004ab280                __quorem_D2A
 .text          0x004ab470        0x8 c:/mingw/bin/../lib/gcc/mingw32/6.3.0/../../../libmsvcrt.a(djpvbs01325.o)
                0x004ab470                wcstombs
 .text          0x004ab478        0x8 c:/mingw/bin/../lib/gcc/mingw32/6.3.0/../../../libmsvcrt.a(djpvbs01311.o)
                0x004ab478                wcsncmp
 .text          0x004ab480        0x8 c:/mingw/bin/../lib/gcc/mingw32/6.3.0/../../../libmsvcrt.a(djpvbs01308.o)
                0x004ab480                wcslen
 .text          0x004ab488        0x8 c:/mingw/bin/../lib/gcc/mingw32/6.3.0/../../../libmsvcrt.a(djpvbs01284.o)
                0x004ab488                vfprintf
 .text          0x004ab490        0x8 c:/mingw/bin/../lib/gcc/mingw32/6.3.0/../../../libmsvcrt.a(djpvbs01281.o)
                0x004ab490                ungetc
 .text          0x004ab498        0x8 c:/mingw/bin/../lib/gcc/mingw32/6.3.0/../../../libmsvcrt.a(djpvbs01278.o)
                0x004ab498                toupper
 .text          0x004ab4a0        0x8 c:/mingw/bin/../lib/gcc/mingw32/6.3.0/../../../libmsvcrt.a(djpvbs01277.o)
                0x004ab4a0                tolower
 .text          0x004ab4a8        0x8 c:/mingw/bin/../lib/gcc/mingw32/6.3.0/../../../libmsvcrt.a(djpvbs01272.o)
                0x004ab4a8                time
 .text          0x004ab4b0        0x8 c:/mingw/bin/../lib/gcc/mingw32/6.3.0/../../../libmsvcrt.a(djpvbs01269.o)
                0x004ab4b0                system
 .text          0x004ab4b8        0x8 c:/mingw/bin/../lib/gcc/mingw32/6.3.0/../../../libmsvcrt.a(djpvbs01263.o)
                0x004ab4b8                strtoul
 .text          0x004ab4c0        0x8 c:/mingw/bin/../lib/gcc/mingw32/6.3.0/../../../libmsvcrt.a(djpvbs01262.o)
                0x004ab4c0                strtol
 .text          0x004ab4c8        0x8 c:/mingw/bin/../lib/gcc/mingw32/6.3.0/../../../libmsvcrt.a(djpvbs01258.o)
                0x004ab4c8                strstr
 .text          0x004ab4d0        0x8 c:/mingw/bin/../lib/gcc/mingw32/6.3.0/../../../libmsvcrt.a(djpvbs01257.o)
                0x004ab4d0                strspn
 .text          0x004ab4d8        0x8 c:/mingw/bin/../lib/gcc/mingw32/6.3.0/../../../libmsvcrt.a(djpvbs01256.o)
                0x004ab4d8                strrchr
 .text          0x004ab4e0        0x8 c:/mingw/bin/../lib/gcc/mingw32/6.3.0/../../../libmsvcrt.a(djpvbs01253.o)
                0x004ab4e0                strncpy
 .text          0x004ab4e8        0x8 c:/mingw/bin/../lib/gcc/mingw32/6.3.0/../../../libmsvcrt.a(djpvbs01252.o)
                0x004ab4e8                strncmp
 .text          0x004ab4f0        0x8 c:/mingw/bin/../lib/gcc/mingw32/6.3.0/../../../libmsvcrt.a(djpvbs01249.o)
                0x004ab4f0                strlen
 .text          0x004ab4f8        0x8 c:/mingw/bin/../lib/gcc/mingw32/6.3.0/../../../libmsvcrt.a(djpvbs01248.o)
                0x004ab4f8                strftime
 .text          0x004ab500        0x8 c:/mingw/bin/../lib/gcc/mingw32/6.3.0/../../../libmsvcrt.a(djpvbs01245.o)
                0x004ab500                strcspn
 .text          0x004ab508        0x8 c:/mingw/bin/../lib/gcc/mingw32/6.3.0/../../../libmsvcrt.a(djpvbs01243.o)
                0x004ab508                strcpy
 .text          0x004ab510        0x8 c:/mingw/bin/../lib/gcc/mingw32/6.3.0/../../../libmsvcrt.a(djpvbs01242.o)
                0x004ab510                strcoll
 .text          0x004ab518        0x8 c:/mingw/bin/../lib/gcc/mingw32/6.3.0/../../../libmsvcrt.a(djpvbs01241.o)
                0x004ab518                strcmp
 .text          0x004ab520        0x8 c:/mingw/bin/../lib/gcc/mingw32/6.3.0/../../../libmsvcrt.a(djpvbs01240.o)
                0x004ab520                strchr
 .text          0x004ab528        0x8 c:/mingw/bin/../lib/gcc/mingw32/6.3.0/../../../libmsvcrt.a(djpvbs01238.o)
                0x004ab528                strcat
 .text          0x004ab530        0x8 c:/mingw/bin/../lib/gcc/mingw32/6.3.0/../../../libmsvcrt.a(djpvbs01236.o)
                0x004ab530                sscanf
 .text          0x004ab538        0x8 c:/mingw/bin/../lib/gcc/mingw32/6.3.0/../../../libmsvcrt.a(djpvbs01229.o)
                0x004ab538                signal
 .text          0x004ab540        0x8 c:/mingw/bin/../lib/gcc/mingw32/6.3.0/../../../libmsvcrt.a(djpvbs01227.o)
                0x004ab540                setlocale
 .text          0x004ab548        0x8 c:/mingw/bin/../lib/gcc/mingw32/6.3.0/../../../libmsvcrt.a(djpvbs01223.o)
                0x004ab548                rewind
 .text          0x004ab550        0x8 c:/mingw/bin/../lib/gcc/mingw32/6.3.0/../../../libmsvcrt.a(djpvbs01220.o)
                0x004ab550                realloc
 .text          0x004ab558        0x8 c:/mingw/bin/../lib/gcc/mingw32/6.3.0/../../../libmsvcrt.a(djpvbs01215.o)
                0x004ab558                qsort
 .text          0x004ab560        0x8 c:/mingw/bin/../lib/gcc/mingw32/6.3.0/../../../libmsvcrt.a(djpvbs01203.o)
                0x004ab560                memset
 .text          0x004ab568        0x8 c:/mingw/bin/../lib/gcc/mingw32/6.3.0/../../../libmsvcrt.a(djpvbs01201.o)
                0x004ab568                memmove
 .text          0x004ab570        0x8 c:/mingw/bin/../lib/gcc/mingw32/6.3.0/../../../libmsvcrt.a(djpvbs01199.o)
                0x004ab570                memcpy
 .text          0x004ab578        0x8 c:/mingw/bin/../lib/gcc/mingw32/6.3.0/../../../libmsvcrt.a(djpvbs01198.o)
                0x004ab578                memcmp
 .text          0x004ab580        0x8 c:/mingw/bin/../lib/gcc/mingw32/6.3.0/../../../libmsvcrt.a(djpvbs01197.o)
                0x004ab580                memchr
 .text          0x004ab588        0x8 c:/mingw/bin/../lib/gcc/mingw32/6.3.0/../../../libmsvcrt.a(djpvbs01194.o)
                0x004ab588                mbstowcs
 .text          0x004ab590        0x8 c:/mingw/bin/../lib/gcc/mingw32/6.3.0/../../../libmsvcrt.a(djpvbs01187.o)
                0x004ab590                malloc
 .text          0x004ab598        0x8 c:/mingw/bin/../lib/gcc/mingw32/6.3.0/../../../libmsvcrt.a(djpvbs01182.o)
                0x004ab598                localeconv
 .text          0x004ab5a0        0x8 c:/mingw/bin/../lib/gcc/mingw32/6.3.0/../../../libmsvcrt.a(djpvbs01169.o)
                0x004ab5a0                iswctype
 .text          0x004ab5a8        0x8 c:/mingw/bin/../lib/gcc/mingw32/6.3.0/../../../libmsvcrt.a(djpvbs01147.o)
                0x004ab5a8                getenv
 .text          0x004ab5b0        0x8 c:/mingw/bin/../lib/gcc/mingw32/6.3.0/../../../libmsvcrt.a(djpvbs01142.o)
                0x004ab5b0                fwrite
 .text          0x004ab5b8        0x8 c:/mingw/bin/../lib/gcc/mingw32/6.3.0/../../../libmsvcrt.a(djpvbs01131.o)
                0x004ab5b8                free
 .text          0x004ab5c0        0x8 c:/mingw/bin/../lib/gcc/mingw32/6.3.0/../../../libmsvcrt.a(djpvbs01130.o)
                0x004ab5c0                fread
 .text          0x004ab5c8        0x8 c:/mingw/bin/../lib/gcc/mingw32/6.3.0/../../../libmsvcrt.a(djpvbs01127.o)
                0x004ab5c8                fputs
 .text          0x004ab5d0        0x8 c:/mingw/bin/../lib/gcc/mingw32/6.3.0/../../../libmsvcrt.a(djpvbs01126.o)
                0x004ab5d0                fputc
 .text          0x004ab5d8        0x8 c:/mingw/bin/../lib/gcc/mingw32/6.3.0/../../../libmsvcrt.a(djpvbs01122.o)
                0x004ab5d8                fopen
 .text          0x004ab5e0        0x8 c:/mingw/bin/../lib/gcc/mingw32/6.3.0/../../../libmsvcrt.a(djpvbs01117.o)
                0x004ab5e0                fgets
 .text          0x004ab5e8        0x8 c:/mingw/bin/../lib/gcc/mingw32/6.3.0/../../../libmsvcrt.a(djpvbs01115.o)
                0x004ab5e8                fgetc
 .text          0x004ab5f0        0x8 c:/mingw/bin/../lib/gcc/mingw32/6.3.0/../../../libmsvcrt.a(djpvbs01114.o)
                0x004ab5f0                fflush
 .text          0x004ab5f8        0x8 c:/mingw/bin/../lib/gcc/mingw32/6.3.0/../../../libmsvcrt.a(djpvbs01111.o)
                0x004ab5f8                fclose
 .text          0x004ab600        0x8 c:/mingw/bin/../lib/gcc/mingw32/6.3.0/../../../libmsvcrt.a(djpvbs01108.o)
                0x004ab600                exit
 .text          0x004ab608        0x8 c:/mingw/bin/../lib/gcc/mingw32/6.3.0/../../../libmsvcrt.a(djpvbs01106.o)
                0x004ab608                difftime
 .text          0x004ab610        0x8 c:/mingw/bin/../lib/gcc/mingw32/6.3.0/../../../libmsvcrt.a(djpvbs01098.o)
                0x004ab610                calloc
 .text          0x004ab618        0x8 c:/mingw/bin/../lib/gcc/mingw32/6.3.0/../../../libmsvcrt.a(djpvbs01093.o)
                0x004ab618                atoi
 .text          0x004ab620        0x0 c:/mingw/bin/../lib/gcc/mingw32/6.3.0/../../../libmsvcrt.a(djpvbs01091.o)
 .text          0x004ab620        0x8 c:/mingw/bin/../lib/gcc/mingw32/6.3.0/../../../libmsvcrt.a(djpvbs01083.o)
                0x004ab620                abort
 .text          0x004ab628        0x8 c:/mingw/bin/../lib/gcc/mingw32/6.3.0/../../../libmsvcrt.a(djpvbs00813.o)
                0x004ab628                _strnicmp
 .text          0x004ab630        0x8 c:/mingw/bin/../lib/gcc/mingw32/6.3.0/../../../libmsvcrt.a(djpvbs00803.o)
                0x004ab630                _stricmp
 .text          0x004ab638        0x8 c:/mingw/bin/../lib/gcc/mingw32/6.3.0/../../../libmsvcrt.a(djpvbs00753.o)
                0x004ab638                _setmode
 .text          0x004ab640        0x0 c:/mingw/bin/../lib/gcc/mingw32/6.3.0/../../../libmsvcrt.a(djpvbs00698.o)
 .text          0x004ab640        0x0 c:/mingw/bin/../lib/gcc/mingw32/6.3.0/../../../libmsvcrt.a(djpvbs00689.o)
 .text          0x004ab640        0x8 c:/mingw/bin/../lib/gcc/mingw32/6.3.0/../../../libmsvcrt.a(djpvbs00422.o)
                0x004ab640                _isctype
 .text          0x004ab648        0x0 c:/mingw/bin/../lib/gcc/mingw32/6.3.0/../../../libmsvcrt.a(djpvbs00417.o)
 .text          0x004ab648        0x8 c:/mingw/bin/../lib/gcc/mingw32/6.3.0/../../../libmsvcrt.a(djpvbs00350.o)
                0x004ab648                _fullpath
 .text          0x004ab650        0x8 c:/mingw/bin/../lib/gcc/mingw32/6.3.0/../../../libmsvcrt.a(djpvbs00285.o)
                0x004ab650                _errno
 .text          0x004ab658        0x8 c:/mingw/bin/../lib/gcc/mingw32/6.3.0/../../../libmsvcrt.a(djpvbs00219.o)
                0x004ab658                _cexit
 .text          0x004ab660        0x8 c:/mingw/bin/../lib/gcc/mingw32/6.3.0/../../../libmsvcrt.a(djpvbs00201.o)
                0x004ab660                _assert
 .text          0x004ab668        0x8 c:/mingw/bin/../lib/gcc/mingw32/6.3.0/../../../libmsvcrt.a(djpvbs00133.o)
                0x004ab668                __p__fmode
 .text          0x004ab670        0x8 c:/mingw/bin/../lib/gcc/mingw32/6.3.0/../../../libmsvcrt.a(djpvbs00131.o)
                0x004ab670                __p__environ
 .text          0x004ab678        0x0 c:/mingw/bin/../lib/gcc/mingw32/6.3.0/../../../libmsvcrt.a(djpvbs00119.o)
 .text          0x004ab678        0x8 c:/mingw/bin/../lib/gcc/mingw32/6.3.0/../../../libmsvcrt.a(djpvbs00088.o)
                0x004ab678                __getmainargs
 .text          0x004ab680        0x0 c:/mingw/bin/../lib/gcc/mingw32/6.3.0/../../../libmsvcrt.a(djpvbh.o)
 .text          0x004ab680        0x0 c:/mingw/bin/../lib/gcc/mingw32/6.3.0/../../../libmsvcrt.a(djpvbt.o)
 .text          0x004ab680        0x8 c:/mingw/bin/../lib/gcc/mingw32/6.3.0/../../../libkernel32.a(dujcs01267.o)
                0x004ab680                WriteFile@20
 .text          0x004ab688        0x8 c:/mingw/bin/../lib/gcc/mingw32/6.3.0/../../../libkernel32.a(dujcs01247.o)
                0x004ab688                WideCharToMultiByte@32
 .text          0x004ab690        0x8 c:/mingw/bin/../lib/gcc/mingw32/6.3.0/../../../libkernel32.a(dujcs01223.o)
                0x004ab690                WaitForSingleObject@8
 .text          0x004ab698        0x8 c:/mingw/bin/../lib/gcc/mingw32/6.3.0/../../../libkernel32.a(dujcs01215.o)
                0x004ab698                VirtualQuery@12
 .text          0x004ab6a0        0x8 c:/mingw/bin/../lib/gcc/mingw32/6.3.0/../../../libkernel32.a(dujcs01213.o)
                0x004ab6a0                VirtualProtect@16
 .text          0x004ab6a8        0x8 c:/mingw/bin/../lib/gcc/mingw32/6.3.0/../../../libkernel32.a(dujcs01188.o)
                0x004ab6a8                UnmapViewOfFile@4
 .text          0x004ab6b0        0x8 c:/mingw/bin/../lib/gcc/mingw32/6.3.0/../../../libkernel32.a(dujcs01173.o)
                0x004ab6b0                TlsGetValue@4
 .text          0x004ab6b8        0x8 c:/mingw/bin/../lib/gcc/mingw32/6.3.0/../../../libkernel32.a(dujcs01152.o)
                0x004ab6b8                Sleep@4
 .text          0x004ab6c0        0x8 c:/mingw/bin/../lib/gcc/mingw32/6.3.0/../../../libkernel32.a(dujcs01140.o)
                0x004ab6c0                SetUnhandledExceptionFilter@4
 .text          0x004ab6c8        0x8 c:/mingw/bin/../lib/gcc/mingw32/6.3.0/../../../libkernel32.a(dujcs01088.o)
                0x004ab6c8                SetHandleInformation@12
 .text          0x004ab6d0        0x8 c:/mingw/bin/../lib/gcc/mingw32/6.3.0/../../../libkernel32.a(dujcs01065.o)
                0x004ab6d0                SetEvent@4
 .text          0x004ab6d8        0x8 c:/mingw/bin/../lib/gcc/mingw32/6.3.0/../../../libkernel32.a(dujcs01052.o)
                0x004ab6d8                SetCurrentDirectoryA@4
 .text          0x004ab6e0        0x8 c:/mingw/bin/../lib/gcc/mingw32/6.3.0/../../../libkernel32.a(dujcs01014.o)
                0x004ab6e0                SetCommTimeouts@8
 .text          0x004ab6e8        0x8 c:/mingw/bin/../lib/gcc/mingw32/6.3.0/../../../libkernel32.a(dujcs01013.o)
                0x004ab6e8                SetCommState@8
 .text          0x004ab6f0        0x8 c:/mingw/bin/../lib/gcc/mingw32/6.3.0/../../../libkernel32.a(dujcs01010.o)
                0x004ab6f0                SetCommBreak@4
 .text          0x004ab6f8        0x8 c:/mingw/bin/../lib/gcc/mingw32/6.3.0/../../../libkernel32.a(dujcs00947.o)
                0x004ab6f8                ReadFile@20
 .text          0x004ab700        0x8 c:/mingw/bin/../lib/gcc/mingw32/6.3.0/../../../libkernel32.a(dujcs00922.o)
                0x004ab700                QueryPerformanceCounter@4
 .text          0x004ab708        0x8 c:/mingw/bin/../lib/gcc/mingw32/6.3.0/../../../libkernel32.a(dujcs00860.o)
                0x004ab708                MultiByteToWideChar@24
 .text          0x004ab710        0x8 c:/mingw/bin/../lib/gcc/mingw32/6.3.0/../../../libkernel32.a(dujcs00859.o)
                0x004ab710                MulDiv@12
 .text          0x004ab718        0x8 c:/mingw/bin/../lib/gcc/mingw32/6.3.0/../../../libkernel32.a(dujcs00844.o)
                0x004ab718                MapViewOfFile@20
 .text          0x004ab720        0x8 c:/mingw/bin/../lib/gcc/mingw32/6.3.0/../../../libkernel32.a(dujcs00827.o)
                0x004ab720                LocalFileTimeToFileTime@8
 .text          0x004ab728        0x8 c:/mingw/bin/../lib/gcc/mingw32/6.3.0/../../../libkernel32.a(dujcs00818.o)
                0x004ab728                LoadLibraryExA@12
 .text          0x004ab730        0x8 c:/mingw/bin/../lib/gcc/mingw32/6.3.0/../../../libkernel32.a(dujcs00817.o)
                0x004ab730                LoadLibraryA@4
 .text          0x004ab738        0x8 c:/mingw/bin/../lib/gcc/mingw32/6.3.0/../../../libkernel32.a(dujcs00814.o)
                0x004ab738                LeaveCriticalSection@4
 .text          0x004ab740        0x8 c:/mingw/bin/../lib/gcc/mingw32/6.3.0/../../../libkernel32.a(dujcs00763.o)
                0x004ab740                IsDBCSLeadByteEx@8
 .text          0x004ab748        0x8 c:/mingw/bin/../lib/gcc/mingw32/6.3.0/../../../libkernel32.a(dujcs00744.o)
                0x004ab748                InterlockedExchange@8
 .text          0x004ab750        0x8 c:/mingw/bin/../lib/gcc/mingw32/6.3.0/../../../libkernel32.a(dujcs00734.o)
                0x004ab750                InitializeCriticalSection@4
 .text          0x004ab758        0x8 c:/mingw/bin/../lib/gcc/mingw32/6.3.0/../../../libkernel32.a(dujcs00705.o)
                0x004ab758                GlobalUnlock@4
 .text          0x004ab760        0x8 c:/mingw/bin/../lib/gcc/mingw32/6.3.0/../../../libkernel32.a(dujcs00699.o)
                0x004ab760                GlobalMemoryStatus@4
 .text          0x004ab768        0x8 c:/mingw/bin/../lib/gcc/mingw32/6.3.0/../../../libkernel32.a(dujcs00698.o)
                0x004ab768                GlobalLock@4
 .text          0x004ab770        0x8 c:/mingw/bin/../lib/gcc/mingw32/6.3.0/../../../libkernel32.a(dujcs00694.o)
                0x004ab770                GlobalFree@4
 .text          0x004ab778        0x8 c:/mingw/bin/../lib/gcc/mingw32/6.3.0/../../../libkernel32.a(dujcs00687.o)
                0x004ab778                GlobalAlloc@8
 .text          0x004ab780        0x8 c:/mingw/bin/../lib/gcc/mingw32/6.3.0/../../../libkernel32.a(dujcs00682.o)
                0x004ab780                GetWindowsDirectoryA@8
 .text          0x004ab788        0x8 c:/mingw/bin/../lib/gcc/mingw32/6.3.0/../../../libkernel32.a(dujcs00656.o)
                0x004ab788                GetTickCount@0
 .text          0x004ab790        0x8 c:/mingw/bin/../lib/gcc/mingw32/6.3.0/../../../libkernel32.a(dujcs00653.o)
                0x004ab790                GetThreadTimes@20
 .text          0x004ab798        0x8 c:/mingw/bin/../lib/gcc/mingw32/6.3.0/../../../libkernel32.a(dujcs00629.o)
                0x004ab798                GetSystemTimeAsFileTime@4
 .text          0x004ab7a0        0x8 c:/mingw/bin/../lib/gcc/mingw32/6.3.0/../../../libkernel32.a(dujcs00619.o)
                0x004ab7a0                GetSystemDirectoryA@8
 .text          0x004ab7a8        0x8 c:/mingw/bin/../lib/gcc/mingw32/6.3.0/../../../libkernel32.a(dujcs00606.o)
                0x004ab7a8                GetStartupInfoA@4
 .text          0x004ab7b0        0x8 c:/mingw/bin/../lib/gcc/mingw32/6.3.0/../../../libkernel32.a(dujcs00590.o)
                0x004ab7b0                GetProcessTimes@20
 .text          0x004ab7b8        0x8 c:/mingw/bin/../lib/gcc/mingw32/6.3.0/../../../libkernel32.a(dujcs00577.o)
                0x004ab7b8                GetProcAddress@8
 .text          0x004ab7c0        0x8 c:/mingw/bin/../lib/gcc/mingw32/6.3.0/../../../libkernel32.a(dujcs00564.o)
                0x004ab7c0                GetOverlappedResult@16
 .text          0x004ab7c8        0x8 c:/mingw/bin/../lib/gcc/mingw32/6.3.0/../../../libkernel32.a(dujcs00563.o)
                0x004ab7c8                GetOEMCP@0
 .text          0x004ab7d0        0x8 c:/mingw/bin/../lib/gcc/mingw32/6.3.0/../../../libkernel32.a(dujcs00529.o)
                0x004ab7d0                GetModuleHandleA@4
 .text          0x004ab7d8        0x8 c:/mingw/bin/../lib/gcc/mingw32/6.3.0/../../../libkernel32.a(dujcs00527.o)
                0x004ab7d8                GetModuleFileNameA@12
 .text          0x004ab7e0        0x8 c:/mingw/bin/../lib/gcc/mingw32/6.3.0/../../../libkernel32.a(dujcs00512.o)
                0x004ab7e0                GetLocaleInfoA@16
 .text          0x004ab7e8        0x8 c:/mingw/bin/../lib/gcc/mingw32/6.3.0/../../../libkernel32.a(dujcs00511.o)
                0x004ab7e8                GetLocalTime@4
 .text          0x004ab7f0        0x8 c:/mingw/bin/../lib/gcc/mingw32/6.3.0/../../../libkernel32.a(dujcs00510.o)
                0x004ab7f0                GetLastError@0
 .text          0x004ab7f8        0x8 c:/mingw/bin/../lib/gcc/mingw32/6.3.0/../../../libkernel32.a(dujcs00482.o)
                0x004ab7f8                GetFileAttributesExA@12
 .text          0x004ab800        0x8 c:/mingw/bin/../lib/gcc/mingw32/6.3.0/../../../libkernel32.a(dujcs00473.o)
                0x004ab800                GetEnvironmentVariableA@12
 .text          0x004ab808        0x8 c:/mingw/bin/../lib/gcc/mingw32/6.3.0/../../../libkernel32.a(dujcs00451.o)
                0x004ab808                GetCurrentThreadId@0
 .text          0x004ab810        0x8 c:/mingw/bin/../lib/gcc/mingw32/6.3.0/../../../libkernel32.a(dujcs00450.o)
                0x004ab810                GetCurrentThread@0
 .text          0x004ab818        0x8 c:/mingw/bin/../lib/gcc/mingw32/6.3.0/../../../libkernel32.a(dujcs00447.o)
                0x004ab818                GetCurrentProcessId@0
 .text          0x004ab820        0x8 c:/mingw/bin/../lib/gcc/mingw32/6.3.0/../../../libkernel32.a(dujcs00446.o)
                0x004ab820                GetCurrentProcess@0
 .text          0x004ab828        0x8 c:/mingw/bin/../lib/gcc/mingw32/6.3.0/../../../libkernel32.a(dujcs00444.o)
                0x004ab828                GetCurrentDirectoryA@8
 .text          0x004ab830        0x8 c:/mingw/bin/../lib/gcc/mingw32/6.3.0/../../../libkernel32.a(dujcs00426.o)
                0x004ab830                GetConsoleMode@8
 .text          0x004ab838        0x8 c:/mingw/bin/../lib/gcc/mingw32/6.3.0/../../../libkernel32.a(dujcs00388.o)
                0x004ab838                GetCommandLineA@0
 .text          0x004ab840        0x8 c:/mingw/bin/../lib/gcc/mingw32/6.3.0/../../../libkernel32.a(dujcs00386.o)
                0x004ab840                GetCommState@8
 .text          0x004ab848        0x8 c:/mingw/bin/../lib/gcc/mingw32/6.3.0/../../../libkernel32.a(dujcs00368.o)
                0x004ab848                GetCPInfo@8
 .text          0x004ab850        0x8 c:/mingw/bin/../lib/gcc/mingw32/6.3.0/../../../libkernel32.a(dujcs00358.o)
                0x004ab850                GetACP@0
 .text          0x004ab858        0x8 c:/mingw/bin/../lib/gcc/mingw32/6.3.0/../../../libkernel32.a(dujcs00352.o)
                0x004ab858                FreeLibrary@4
 .text          0x004ab860        0x8 c:/mingw/bin/../lib/gcc/mingw32/6.3.0/../../../libkernel32.a(dujcs00347.o)
                0x004ab860                FormatMessageA@28
 .text          0x004ab868        0x8 c:/mingw/bin/../lib/gcc/mingw32/6.3.0/../../../libkernel32.a(dujcs00321.o)
                0x004ab868                FindNextFileA@8
 .text          0x004ab870        0x8 c:/mingw/bin/../lib/gcc/mingw32/6.3.0/../../../libkernel32.a(dujcs00304.o)
                0x004ab870                FindFirstFileA@8
 .text          0x004ab878        0x8 c:/mingw/bin/../lib/gcc/mingw32/6.3.0/../../../libkernel32.a(dujcs00300.o)
                0x004ab878                FindClose@4
 .text          0x004ab880        0x8 c:/mingw/bin/../lib/gcc/mingw32/6.3.0/../../../libkernel32.a(dujcs00279.o)
                0x004ab880                ExitProcess@4
 .text          0x004ab888        0x8 c:/mingw/bin/../lib/gcc/mingw32/6.3.0/../../../libkernel32.a(dujcs00236.o)
                0x004ab888                EnterCriticalSection@4
 .text          0x004ab890        0x8 c:/mingw/bin/../lib/gcc/mingw32/6.3.0/../../../libkernel32.a(dujcs00209.o)
                0x004ab890                DeleteFileA@4
 .text          0x004ab898        0x8 c:/mingw/bin/../lib/gcc/mingw32/6.3.0/../../../libkernel32.a(dujcs00207.o)
                0x004ab898                DeleteCriticalSection@4
 .text          0x004ab8a0        0x8 c:/mingw/bin/../lib/gcc/mingw32/6.3.0/../../../libkernel32.a(dujcs00179.o)
                0x004ab8a0                CreateThread@24
 .text          0x004ab8a8        0x8 c:/mingw/bin/../lib/gcc/mingw32/6.3.0/../../../libkernel32.a(dujcs00163.o)
                0x004ab8a8                CreateProcessA@40
 .text          0x004ab8b0        0x8 c:/mingw/bin/../lib/gcc/mingw32/6.3.0/../../../libkernel32.a(dujcs00160.o)
                0x004ab8b0                CreatePipe@16
 .text          0x004ab8b8        0x8 c:/mingw/bin/../lib/gcc/mingw32/6.3.0/../../../libkernel32.a(dujcs00136.o)
                0x004ab8b8                CreateFileMappingA@24
 .text          0x004ab8c0        0x8 c:/mingw/bin/../lib/gcc/mingw32/6.3.0/../../../libkernel32.a(dujcs00135.o)
                0x004ab8c0                CreateFileA@28
 .text          0x004ab8c8        0x8 c:/mingw/bin/../lib/gcc/mingw32/6.3.0/../../../libkernel32.a(dujcs00129.o)
                0x004ab8c8                CreateEventA@16
 .text          0x004ab8d0        0x8 c:/mingw/bin/../lib/gcc/mingw32/6.3.0/../../../libkernel32.a(dujcs00082.o)
                0x004ab8d0                CloseHandle@4
 .text          0x004ab8d8        0x8 c:/mingw/bin/../lib/gcc/mingw32/6.3.0/../../../libkernel32.a(dujcs00079.o)
                0x004ab8d8                ClearCommBreak@4
 .text          0x004ab8e0        0x8 c:/mingw/bin/../lib/gcc/mingw32/6.3.0/../../../libkernel32.a(dujcs00054.o)
                0x004ab8e0                Beep@8
 .text          0x004ab8e8        0x0 c:/mingw/bin/../lib/gcc/mingw32/6.3.0/../../../libkernel32.a(dujch.o)
 .text          0x004ab8e8        0x0 c:/mingw/bin/../lib/gcc/mingw32/6.3.0/../../../libkernel32.a(dujct.o)
 *fill*         0x004ab8e8        0x8 
 .text          0x004ab8f0      0x150 c:/mingw/bin/../lib/gcc/mingw32/6.3.0/libgcc.a(_umoddi3.o)
                0x004ab8f0                __umoddi3
 .text          0x004aba40        0x8 c:/mingw/bin/../lib/gcc/mingw32/6.3.0/../../../libmoldname.a(dagwbs00082.o)
                0x004aba40                stricoll
 .text          0x004aba48        0x8 c:/mingw/bin/../lib/gcc/mingw32/6.3.0/../../../libmoldname.a(dagwbs00080.o)
                0x004aba48                strdup
 .text          0x004aba50        0x0 c:/mingw/bin/../lib/gcc/mingw32/6.3.0/../../../libmoldname.a(dagwbh.o)
 .text          0x004aba50        0x0 c:/mingw/bin/../lib/gcc/mingw32/6.3.0/../../../libmoldname.a(dagwbt.o)
 .text          0x004aba50        0x0 c:/mingw/bin/../lib/gcc/mingw32/6.3.0/crtend.o
 *(SORT(.text$*))
 *(.text.*)
 .text.unlikely
                0x004aba50       0x20 mpint.o
 .text.unlikely
                0x004aba70      0x184 sshpubk.o
 .text.unlikely
                0x004abbf4       0x20 sshrsa.o
 .text.unlikely
                0x004abc14       0xc0 terminal.o
 *fill*         0x004abcd4        0xc 
 .text.startup  0x004abce0       0xd0 c:/mingw/bin/../lib/gcc/mingw32/6.3.0/../../../libmingw32.a(main.o)
                0x004abce0                main
 .text.startup  0x004abdb0       0x10 c:/mingw/bin/../lib/gcc/mingw32/6.3.0/crtend.o
 *(.gnu.linkonce.t.*)
 *(.glue_7t)
 *(.glue_7)
                0x004abdc0                ___CTOR_LIST__ = .
                0x004abdc0                __CTOR_LIST__ = .
                0x004abdc0        0x4 LONG 0xffffffff
 *(.ctors)
 *(.ctor)
 *(SORT(.ctors.*))
 .ctors.65535   0x004abdc4        0x4 c:/mingw/bin/../lib/gcc/mingw32/6.3.0/crtend.o
                0x004abdc8        0x4 LONG 0x0
                0x004abdcc                ___DTOR_LIST__ = .
                0x004abdcc                __DTOR_LIST__ = .
                0x004abdcc        0x4 LONG 0xffffffff
 *(.dtors)
 *(.dtor)
 *(SORT(.dtors.*))
                0x004abdd0        0x4 LONG 0x0
 *(.fini)
 *(.gcc_exc)
                [!provide]                PROVIDE (etext, .)
                [!provide]                PROVIDE (_etext, .)
 *(.gcc_except_table)

.data           0x004ac000      0x200
                0x004ac000                __data_start__ = .
 *(.data)
 .data          0x004ac000        0x0 c:/mingw/bin/../lib/gcc/mingw32/6.3.0/../../../crt2.o
 .data          0x004ac000        0x4 c:/mingw/bin/../lib/gcc/mingw32/6.3.0/crtbegin.o
 .data          0x004ac004        0x0 agentf.o
 .data          0x004ac004        0x0 aqsync.o
 .data          0x004ac004        0x0 be_all_s.o
 .data          0x004ac004        0x0 be_misc.o
 .data          0x004ac004        0x0 callback.o
 .data          0x004ac004        0x0 cmdline.o
 .data          0x004ac004        0x0 conf.o
 .data          0x004ac004        0x0 config.o
 .data          0x004ac004        0x0 cproxy.o
 .data          0x004ac004        0x0 dialog.o
 .data          0x004ac004        0x0 ecc.o
 .data          0x004ac004        0x0 errsock.o
 .data          0x004ac004        0x0 ldisc.o
 .data          0x004ac004        0x0 logging.o
 .data          0x004ac004        0x0 mainchan.o
 .data          0x004ac004        0x0 marshal.o
 .data          0x004ac004        0x0 memory.o
 .data          0x004ac004        0x0 minibidi.o
 .data          0x004ac004        0x0 misc.o
 .data          0x004ac004        0x0 miscucs.o
 .data          0x004ac004        0x0 mpint.o
 .data          0x004ac004        0x4 nullplug.o
 .data          0x004ac008       0x24 pgssapi.o
                0x004ac010                GSS_C_NT_EXPORT_NAME
                0x004ac014                GSS_C_NT_ANONYMOUS
                0x004ac018                GSS_C_NT_HOSTBASED_SERVICE
                0x004ac01c                GSS_C_NT_HOSTBASED_SERVICE_X
                0x004ac020                GSS_C_NT_STRING_UID_NAME
                0x004ac024                GSS_C_NT_MACHINE_UID_NAME
                0x004ac028                GSS_C_NT_USER_NAME
 .data          0x004ac02c        0x0 pinger.o
 .data          0x004ac02c        0x0 portfwd.o
 .data          0x004ac02c        0x0 proxy.o
 .data          0x004ac02c        0x0 raw.o
 .data          0x004ac02c        0x0 rlogin.o
 .data          0x004ac02c        0x0 sercfg.o
 .data          0x004ac02c        0x0 sessprep.o
 .data          0x004ac02c        0x0 settings.o
 .data          0x004ac02c        0x0 sizetip.o
 .data          0x004ac02c        0x0 ssh.o
 .data          0x004ac02c        0x0 ssh1bpp.o
 .data          0x004ac02c        0x0 ssh1censor.o
 .data          0x004ac02c        0x0 ssh1connection.o
 .data          0x004ac02c        0x0 ssh1connection-client.o
 .data          0x004ac02c        0x0 ssh1login.o
 .data          0x004ac02c        0x0 ssh2bpp.o
 .data          0x004ac02c        0x0 ssh2bpp-bare.o
 .data          0x004ac02c        0x0 ssh2censor.o
 .data          0x004ac02c        0x0 ssh2connection.o
 .data          0x004ac02c        0x0 ssh2connection-client.o
 .data          0x004ac02c        0x0 ssh2kex-client.o
 .data          0x004ac02c        0x0 ssh2transhk.o
 .data          0x004ac02c        0x0 ssh2transport.o
 .data          0x004ac02c        0x0 ssh2userauth.o
 .data          0x004ac02c        0x0 sshaes.o
 .data          0x004ac02c        0x0 ssharcf.o
 .data          0x004ac02c        0x0 sshauxcrypt.o
 .data          0x004ac02c        0x0 sshblowf.o
 .data          0x004ac02c        0x0 sshccp.o
 .data          0x004ac02c       0x18 sshcommon.o
 .data          0x004ac044        0x0 sshcrc.o
 .data          0x004ac044        0x4 sshcrcda.o
                0x004ac044                ONE
 .data          0x004ac048        0x0 sshdes.o
 .data          0x004ac048        0x0 sshdh.o
 .data          0x004ac048        0x0 sshdss.o
 .data          0x004ac048        0x0 sshecc.o
 .data          0x004ac048        0x0 sshgssc.o
 .data          0x004ac048        0x0 sshhmac.o
 .data          0x004ac048        0x0 sshmac.o
 .data          0x004ac048        0x0 sshmd5.o
 .data          0x004ac048        0x0 sshprng.o
 .data          0x004ac048        0x0 sshpubk.o
 .data          0x004ac048        0x0 sshrand.o
 .data          0x004ac048        0x0 sshrsa.o
 .data          0x004ac048        0x0 sshsh256.o
 .data          0x004ac048        0x0 sshsh512.o
 .data          0x004ac048        0x0 sshsha.o
 .data          0x004ac048        0x0 sshshare.o
 .data          0x004ac048        0x0 sshverstring.o
 .data          0x004ac048        0x0 sshzlib.o
 .data          0x004ac048        0x0 stripctrl.o
 .data          0x004ac048        0x0 telnet.o
 .data          0x004ac048        0x4 terminal.o
                0x004ac048                EMPTY_WINDOW_TITLE
 .data          0x004ac04c        0x0 timing.o
 .data          0x004ac04c        0x0 tree234.o
 .data          0x004ac04c        0x0 utils.o
 .data          0x004ac04c        0x0 version.o
 .data          0x004ac04c        0x0 wcwidth.o
 .data          0x004ac04c        0x0 wildcard.o
 .data          0x004ac04c        0x0 wincapi.o
 .data          0x004ac04c        0x0 wincfg.o
 .data          0x004ac04c        0x0 winctrls.o
 .data          0x004ac04c        0x0 windefs.o
 .data          0x004ac04c       0x14 windlg.o
                0x004ac05c                default_logpolicy
 .data          0x004ac060       0x1c window.o
 .data          0x004ac07c        0x4 ava.o
                0x004ac07c                decimal_point
 .data          0x004ac080        0x0 wingss.o
 .data          0x004ac080        0x0 winhandl.o
 .data          0x004ac080        0x0 winhelp.o
 .data          0x004ac080        0x0 winhsock.o
 .data          0x004ac080        0x0 winjump.o
 .data          0x004ac080        0x0 winmisc.o
 .data          0x004ac080        0x0 winmiscs.o
 .data          0x004ac080        0x0 winnet.o
 .data          0x004ac080        0x0 winnoise.o
 .data          0x004ac080        0x0 winnpc.o
 .data          0x004ac080        0x0 winnps.o
 .data          0x004ac080        0x0 winpgntc.o
 .data          0x004ac080        0x0 winprint.o
 .data          0x004ac080        0x0 winproxy.o
 .data          0x004ac080        0x0 winsecur.o
 .data          0x004ac080        0x0 winser.o
 .data          0x004ac080        0x0 winshare.o
 .data          0x004ac080        0x0 winstore.o
 .data          0x004ac080        0x0 wintime.o
 .data          0x004ac080        0x0 winucs.o
 .data          0x004ac080        0x0 winutils.o
 .data          0x004ac080        0x0 winx11.o
 .data          0x004ac080        0x0 x11fwd.o
 .data          0x004ac080        0x0 c:/mingw/bin/../lib/gcc/mingw32/6.3.0/../../../libadvapi32.a(dchcs00434.o)
 .data          0x004ac080        0x0 c:/mingw/bin/../lib/gcc/mingw32/6.3.0/../../../libadvapi32.a(dchcs00423.o)
 .data          0x004ac080        0x0 c:/mingw/bin/../lib/gcc/mingw32/6.3.0/../../../libadvapi32.a(dchcs00412.o)
 .data          0x004ac080        0x0 c:/mingw/bin/../lib/gcc/mingw32/6.3.0/../../../libadvapi32.a(dchcs00400.o)
 .data          0x004ac080        0x0 c:/mingw/bin/../lib/gcc/mingw32/6.3.0/../../../libadvapi32.a(dchcs00397.o)
 .data          0x004ac080        0x0 c:/mingw/bin/../lib/gcc/mingw32/6.3.0/../../../libadvapi32.a(dchcs00393.o)
 .data          0x004ac080        0x0 c:/mingw/bin/../lib/gcc/mingw32/6.3.0/../../../libadvapi32.a(dchcs00390.o)
 .data          0x004ac080        0x0 c:/mingw/bin/../lib/gcc/mingw32/6.3.0/../../../libadvapi32.a(dchcs00389.o)
 .data          0x004ac080        0x0 c:/mingw/bin/../lib/gcc/mingw32/6.3.0/../../../libadvapi32.a(dchcs00386.o)
 .data          0x004ac080        0x0 c:/mingw/bin/../lib/gcc/mingw32/6.3.0/../../../libadvapi32.a(dchcs00245.o)
 .data          0x004ac080        0x0 c:/mingw/bin/../lib/gcc/mingw32/6.3.0/../../../libadvapi32.a(dchch.o)
 .data          0x004ac080        0x0 c:/mingw/bin/../lib/gcc/mingw32/6.3.0/../../../libadvapi32.a(dchct.o)
 .data          0x004ac080        0x0 c:/mingw/bin/../lib/gcc/mingw32/6.3.0/../../../libcomdlg32.a(duhcs00011.o)
 .data          0x004ac080        0x0 c:/mingw/bin/../lib/gcc/mingw32/6.3.0/../../../libcomdlg32.a(duhcs00009.o)
 .data          0x004ac080        0x0 c:/mingw/bin/../lib/gcc/mingw32/6.3.0/../../../libcomdlg32.a(duhcs00002.o)
 .data          0x004ac080        0x0 c:/mingw/bin/../lib/gcc/mingw32/6.3.0/../../../libcomdlg32.a(duhcs00000.o)
 .data          0x004ac080        0x0 c:/mingw/bin/../lib/gcc/mingw32/6.3.0/../../../libcomdlg32.a(duhch.o)
 .data          0x004ac080        0x0 c:/mingw/bin/../lib/gcc/mingw32/6.3.0/../../../libcomdlg32.a(duhct.o)
 .data          0x004ac080        0x0 c:/mingw/bin/../lib/gcc/mingw32/6.3.0/../../../libgdi32.a(dpics00343.o)
 .data          0x004ac080        0x0 c:/mingw/bin/../lib/gcc/mingw32/6.3.0/../../../libgdi32.a(dpics00342.o)
 .data          0x004ac080        0x0 c:/mingw/bin/../lib/gcc/mingw32/6.3.0/../../../libgdi32.a(dpics00341.o)
 .data          0x004ac080        0x0 c:/mingw/bin/../lib/gcc/mingw32/6.3.0/../../../libgdi32.a(dpics00339.o)
 .data          0x004ac080        0x0 c:/mingw/bin/../lib/gcc/mingw32/6.3.0/../../../libgdi32.a(dpics00323.o)
 .data          0x004ac080        0x0 c:/mingw/bin/../lib/gcc/mingw32/6.3.0/../../../libgdi32.a(dpics00321.o)
 .data          0x004ac080        0x0 c:/mingw/bin/../lib/gcc/mingw32/6.3.0/../../../libgdi32.a(dpics00312.o)
 .data          0x004ac080        0x0 c:/mingw/bin/../lib/gcc/mingw32/6.3.0/../../../libgdi32.a(dpics00311.o)
 .data          0x004ac080        0x0 c:/mingw/bin/../lib/gcc/mingw32/6.3.0/../../../libgdi32.a(dpics00306.o)
 .data          0x004ac080        0x0 c:/mingw/bin/../lib/gcc/mingw32/6.3.0/../../../libgdi32.a(dpics00288.o)
 .data          0x004ac080        0x0 c:/mingw/bin/../lib/gcc/mingw32/6.3.0/../../../libgdi32.a(dpics00287.o)
 .data          0x004ac080        0x0 c:/mingw/bin/../lib/gcc/mingw32/6.3.0/../../../libgdi32.a(dpics00282.o)
 .data          0x004ac080        0x0 c:/mingw/bin/../lib/gcc/mingw32/6.3.0/../../../libgdi32.a(dpics00281.o)
 .data          0x004ac080        0x0 c:/mingw/bin/../lib/gcc/mingw32/6.3.0/../../../libgdi32.a(dpics00263.o)
 .data          0x004ac080        0x0 c:/mingw/bin/../lib/gcc/mingw32/6.3.0/../../../libgdi32.a(dpics00260.o)
 .data          0x004ac080        0x0 c:/mingw/bin/../lib/gcc/mingw32/6.3.0/../../../libgdi32.a(dpics00256.o)
 .data          0x004ac080        0x0 c:/mingw/bin/../lib/gcc/mingw32/6.3.0/../../../libgdi32.a(dpics00234.o)
 .data          0x004ac080        0x0 c:/mingw/bin/../lib/gcc/mingw32/6.3.0/../../../libgdi32.a(dpics00231.o)
 .data          0x004ac080        0x0 c:/mingw/bin/../lib/gcc/mingw32/6.3.0/../../../libgdi32.a(dpics00227.o)
 .data          0x004ac080        0x0 c:/mingw/bin/../lib/gcc/mingw32/6.3.0/../../../libgdi32.a(dpics00219.o)
 .data          0x004ac080        0x0 c:/mingw/bin/../lib/gcc/mingw32/6.3.0/../../../libgdi32.a(dpics00213.o)
 .data          0x004ac080        0x0 c:/mingw/bin/../lib/gcc/mingw32/6.3.0/../../../libgdi32.a(dpics00210.o)
 .data          0x004ac080        0x0 c:/mingw/bin/../lib/gcc/mingw32/6.3.0/../../../libgdi32.a(dpics00201.o)
 .data          0x004ac080        0x0 c:/mingw/bin/../lib/gcc/mingw32/6.3.0/../../../libgdi32.a(dpics00192.o)
 .data          0x004ac080        0x0 c:/mingw/bin/../lib/gcc/mingw32/6.3.0/../../../libgdi32.a(dpics00185.o)
 .data          0x004ac080        0x0 c:/mingw/bin/../lib/gcc/mingw32/6.3.0/../../../libgdi32.a(dpics00148.o)
 .data          0x004ac080        0x0 c:/mingw/bin/../lib/gcc/mingw32/6.3.0/../../../libgdi32.a(dpics00136.o)
 .data          0x004ac080        0x0 c:/mingw/bin/../lib/gcc/mingw32/6.3.0/../../../libgdi32.a(dpics00134.o)
 .data          0x004ac080        0x0 c:/mingw/bin/../lib/gcc/mingw32/6.3.0/../../../libgdi32.a(dpics00131.o)
 .data          0x004ac080        0x0 c:/mingw/bin/../lib/gcc/mingw32/6.3.0/../../../libgdi32.a(dpics00130.o)
 .data          0x004ac080        0x0 c:/mingw/bin/../lib/gcc/mingw32/6.3.0/../../../libgdi32.a(dpics00129.o)
 .data          0x004ac080        0x0 c:/mingw/bin/../lib/gcc/mingw32/6.3.0/../../../libgdi32.a(dpics00126.o)
 .data          0x004ac080        0x0 c:/mingw/bin/../lib/gcc/mingw32/6.3.0/../../../libgdi32.a(dpics00122.o)
 .data          0x004ac080        0x0 c:/mingw/bin/../lib/gcc/mingw32/6.3.0/../../../libgdi32.a(dpics00103.o)
 .data          0x004ac080        0x0 c:/mingw/bin/../lib/gcc/mingw32/6.3.0/../../../libgdi32.a(dpics00102.o)
 .data          0x004ac080        0x0 c:/mingw/bin/../lib/gcc/mingw32/6.3.0/../../../libgdi32.a(dpics00096.o)
 .data          0x004ac080        0x0 c:/mingw/bin/../lib/gcc/mingw32/6.3.0/../../../libgdi32.a(dpics00073.o)
 .data          0x004ac080        0x0 c:/mingw/bin/../lib/gcc/mingw32/6.3.0/../../../libgdi32.a(dpics00070.o)
 .data          0x004ac080        0x0 c:/mingw/bin/../lib/gcc/mingw32/6.3.0/../../../libgdi32.a(dpics00067.o)
 .data          0x004ac080        0x0 c:/mingw/bin/../lib/gcc/mingw32/6.3.0/../../../libgdi32.a(dpics00058.o)
 .data          0x004ac080        0x0 c:/mingw/bin/../lib/gcc/mingw32/6.3.0/../../../libgdi32.a(dpics00056.o)
 .data          0x004ac080        0x0 c:/mingw/bin/../lib/gcc/mingw32/6.3.0/../../../libgdi32.a(dpics00047.o)
 .data          0x004ac080        0x0 c:/mingw/bin/../lib/gcc/mingw32/6.3.0/../../../libgdi32.a(dpics00046.o)
 .data          0x004ac080        0x0 c:/mingw/bin/../lib/gcc/mingw32/6.3.0/../../../libgdi32.a(dpics00034.o)
 .data          0x004ac080        0x0 c:/mingw/bin/../lib/gcc/mingw32/6.3.0/../../../libgdi32.a(dpics00033.o)
 .data          0x004ac080        0x0 c:/mingw/bin/../lib/gcc/mingw32/6.3.0/../../../libgdi32.a(dpics00028.o)
 .data          0x004ac080        0x0 c:/mingw/bin/../lib/gcc/mingw32/6.3.0/../../../libgdi32.a(dpich.o)
 .data          0x004ac080        0x0 c:/mingw/bin/../lib/gcc/mingw32/6.3.0/../../../libgdi32.a(dpict.o)
 .data          0x004ac080        0x0 c:/mingw/bin/../lib/gcc/mingw32/6.3.0/../../../libimm32.a(dojcs00065.o)
 .data          0x004ac080        0x0 c:/mingw/bin/../lib/gcc/mingw32/6.3.0/../../../libimm32.a(dojcs00061.o)
 .data          0x004ac080        0x0 c:/mingw/bin/../lib/gcc/mingw32/6.3.0/../../../libimm32.a(dojcs00059.o)
 .data          0x004ac080        0x0 c:/mingw/bin/../lib/gcc/mingw32/6.3.0/../../../libimm32.a(dojcs00025.o)
 .data          0x004ac080        0x0 c:/mingw/bin/../lib/gcc/mingw32/6.3.0/../../../libimm32.a(dojcs00023.o)
 .data          0x004ac080        0x0 c:/mingw/bin/../lib/gcc/mingw32/6.3.0/../../../libimm32.a(dojch.o)
 .data          0x004ac080        0x0 c:/mingw/bin/../lib/gcc/mingw32/6.3.0/../../../libimm32.a(dojct.o)
 .data          0x004ac080        0x0 c:/mingw/bin/../lib/gcc/mingw32/6.3.0/../../../libole32.a(damcs00072.o)
 .data          0x004ac080        0x0 c:/mingw/bin/../lib/gcc/mingw32/6.3.0/../../../libole32.a(damcs00037.o)
 .data          0x004ac080        0x0 c:/mingw/bin/../lib/gcc/mingw32/6.3.0/../../../libole32.a(damcs00012.o)
 .data          0x004ac080        0x0 c:/mingw/bin/../lib/gcc/mingw32/6.3.0/../../../libole32.a(damch.o)
 .data          0x004ac080        0x0 c:/mingw/bin/../lib/gcc/mingw32/6.3.0/../../../libole32.a(damct.o)
 .data          0x004ac080        0x0 c:/mingw/bin/../lib/gcc/mingw32/6.3.0/../../../libshell32.a(duocs00144.o)
 .data          0x004ac080        0x0 c:/mingw/bin/../lib/gcc/mingw32/6.3.0/../../../libshell32.a(duoch.o)
 .data          0x004ac080        0x0 c:/mingw/bin/../lib/gcc/mingw32/6.3.0/../../../libshell32.a(duoct.o)
 .data          0x004ac080        0x0 c:/mingw/bin/../lib/gcc/mingw32/6.3.0/../../../libuser32.a(dtpcs00622.o)
 .data          0x004ac080        0x0 c:/mingw/bin/../lib/gcc/mingw32/6.3.0/../../../libuser32.a(dtpcs00608.o)
 .data          0x004ac080        0x0 c:/mingw/bin/../lib/gcc/mingw32/6.3.0/../../../libuser32.a(dtpcs00602.o)
 .data          0x004ac080        0x0 c:/mingw/bin/../lib/gcc/mingw32/6.3.0/../../../libuser32.a(dtpcs00598.o)
 .data          0x004ac080        0x0 c:/mingw/bin/../lib/gcc/mingw32/6.3.0/../../../libuser32.a(dtpcs00591.o)
 .data          0x004ac080        0x0 c:/mingw/bin/../lib/gcc/mingw32/6.3.0/../../../libuser32.a(dtpcs00585.o)
 .data          0x004ac080        0x0 c:/mingw/bin/../lib/gcc/mingw32/6.3.0/../../../libuser32.a(dtpcs00582.o)
 .data          0x004ac080        0x0 c:/mingw/bin/../lib/gcc/mingw32/6.3.0/../../../libuser32.a(dtpcs00581.o)
 .data          0x004ac080        0x0 c:/mingw/bin/../lib/gcc/mingw32/6.3.0/../../../libuser32.a(dtpcs00574.o)
 .data          0x004ac080        0x0 c:/mingw/bin/../lib/gcc/mingw32/6.3.0/../../../libuser32.a(dtpcs00572.o)
 .data          0x004ac080        0x0 c:/mingw/bin/../lib/gcc/mingw32/6.3.0/../../../libuser32.a(dtpcs00571.o)
 .data          0x004ac080        0x0 c:/mingw/bin/../lib/gcc/mingw32/6.3.0/../../../libuser32.a(dtpcs00569.o)
 .data          0x004ac080        0x0 c:/mingw/bin/../lib/gcc/mingw32/6.3.0/../../../libuser32.a(dtpcs00563.o)
 .data          0x004ac080        0x0 c:/mingw/bin/../lib/gcc/mingw32/6.3.0/../../../libuser32.a(dtpcs00554.o)
 .data          0x004ac080        0x0 c:/mingw/bin/../lib/gcc/mingw32/6.3.0/../../../libuser32.a(dtpcs00535.o)
 .data          0x004ac080        0x0 c:/mingw/bin/../lib/gcc/mingw32/6.3.0/../../../libuser32.a(dtpcs00534.o)
 .data          0x004ac080        0x0 c:/mingw/bin/../lib/gcc/mingw32/6.3.0/../../../libuser32.a(dtpcs00533.o)
 .data          0x004ac080        0x0 c:/mingw/bin/../lib/gcc/mingw32/6.3.0/../../../libuser32.a(dtpcs00530.o)
 .data          0x004ac080        0x0 c:/mingw/bin/../lib/gcc/mingw32/6.3.0/../../../libuser32.a(dtpcs00525.o)
 .data          0x004ac080        0x0 c:/mingw/bin/../lib/gcc/mingw32/6.3.0/../../../libuser32.a(dtpcs00523.o)
 .data          0x004ac080        0x0 c:/mingw/bin/../lib/gcc/mingw32/6.3.0/../../../libuser32.a(dtpcs00520.o)
 .data          0x004ac080        0x0 c:/mingw/bin/../lib/gcc/mingw32/6.3.0/../../../libuser32.a(dtpcs00519.o)
 .data          0x004ac080        0x0 c:/mingw/bin/../lib/gcc/mingw32/6.3.0/../../../libuser32.a(dtpcs00517.o)
 .data          0x004ac080        0x0 c:/mingw/bin/../lib/gcc/mingw32/6.3.0/../../../libuser32.a(dtpcs00516.o)
 .data          0x004ac080        0x0 c:/mingw/bin/../lib/gcc/mingw32/6.3.0/../../../libuser32.a(dtpcs00508.o)
 .data          0x004ac080        0x0 c:/mingw/bin/../lib/gcc/mingw32/6.3.0/../../../libuser32.a(dtpcs00505.o)
 .data          0x004ac080        0x0 c:/mingw/bin/../lib/gcc/mingw32/6.3.0/../../../libuser32.a(dtpcs00500.o)
 .data          0x004ac080        0x0 c:/mingw/bin/../lib/gcc/mingw32/6.3.0/../../../libuser32.a(dtpcs00494.o)
 .data          0x004ac080        0x0 c:/mingw/bin/../lib/gcc/mingw32/6.3.0/../../../libuser32.a(dtpcs00493.o)
 .data          0x004ac080        0x0 c:/mingw/bin/../lib/gcc/mingw32/6.3.0/../../../libuser32.a(dtpcs00491.o)
 .data          0x004ac080        0x0 c:/mingw/bin/../lib/gcc/mingw32/6.3.0/../../../libuser32.a(dtpcs00483.o)
 .data          0x004ac080        0x0 c:/mingw/bin/../lib/gcc/mingw32/6.3.0/../../../libuser32.a(dtpcs00482.o)
 .data          0x004ac080        0x0 c:/mingw/bin/../lib/gcc/mingw32/6.3.0/../../../libuser32.a(dtpcs00479.o)
 .data          0x004ac080        0x0 c:/mingw/bin/../lib/gcc/mingw32/6.3.0/../../../libuser32.a(dtpcs00468.o)
 .data          0x004ac080        0x0 c:/mingw/bin/../lib/gcc/mingw32/6.3.0/../../../libuser32.a(dtpcs00466.o)
 .data          0x004ac080        0x0 c:/mingw/bin/../lib/gcc/mingw32/6.3.0/../../../libuser32.a(dtpcs00465.o)
 .data          0x004ac080        0x0 c:/mingw/bin/../lib/gcc/mingw32/6.3.0/../../../libuser32.a(dtpcs00464.o)
 .data          0x004ac080        0x0 c:/mingw/bin/../lib/gcc/mingw32/6.3.0/../../../libuser32.a(dtpcs00455.o)
 .data          0x004ac080        0x0 c:/mingw/bin/../lib/gcc/mingw32/6.3.0/../../../libuser32.a(dtpcs00446.o)
 .data          0x004ac080        0x0 c:/mingw/bin/../lib/gcc/mingw32/6.3.0/../../../libuser32.a(dtpcs00445.o)
 .data          0x004ac080        0x0 c:/mingw/bin/../lib/gcc/mingw32/6.3.0/../../../libuser32.a(dtpcs00437.o)
 .data          0x004ac080        0x0 c:/mingw/bin/../lib/gcc/mingw32/6.3.0/../../../libuser32.a(dtpcs00434.o)
 .data          0x004ac080        0x0 c:/mingw/bin/../lib/gcc/mingw32/6.3.0/../../../libuser32.a(dtpcs00433.o)
 .data          0x004ac080        0x0 c:/mingw/bin/../lib/gcc/mingw32/6.3.0/../../../libuser32.a(dtpcs00426.o)
 .data          0x004ac080        0x0 c:/mingw/bin/../lib/gcc/mingw32/6.3.0/../../../libuser32.a(dtpcs00411.o)
 .data          0x004ac080        0x0 c:/mingw/bin/../lib/gcc/mingw32/6.3.0/../../../libuser32.a(dtpcs00409.o)
 .data          0x004ac080        0x0 c:/mingw/bin/../lib/gcc/mingw32/6.3.0/../../../libuser32.a(dtpcs00405.o)
 .data          0x004ac080        0x0 c:/mingw/bin/../lib/gcc/mingw32/6.3.0/../../../libuser32.a(dtpcs00400.o)
 .data          0x004ac080        0x0 c:/mingw/bin/../lib/gcc/mingw32/6.3.0/../../../libuser32.a(dtpcs00398.o)
 .data          0x004ac080        0x0 c:/mingw/bin/../lib/gcc/mingw32/6.3.0/../../../libuser32.a(dtpcs00394.o)
 .data          0x004ac080        0x0 c:/mingw/bin/../lib/gcc/mingw32/6.3.0/../../../libuser32.a(dtpcs00389.o)
 .data          0x004ac080        0x0 c:/mingw/bin/../lib/gcc/mingw32/6.3.0/../../../libuser32.a(dtpcs00386.o)
 .data          0x004ac080        0x0 c:/mingw/bin/../lib/gcc/mingw32/6.3.0/../../../libuser32.a(dtpcs00384.o)
 .data          0x004ac080        0x0 c:/mingw/bin/../lib/gcc/mingw32/6.3.0/../../../libuser32.a(dtpcs00370.o)
 .data          0x004ac080        0x0 c:/mingw/bin/../lib/gcc/mingw32/6.3.0/../../../libuser32.a(dtpcs00364.o)
 .data          0x004ac080        0x0 c:/mingw/bin/../lib/gcc/mingw32/6.3.0/../../../libuser32.a(dtpcs00358.o)
 .data          0x004ac080        0x0 c:/mingw/bin/../lib/gcc/mingw32/6.3.0/../../../libuser32.a(dtpcs00351.o)
 .data          0x004ac080        0x0 c:/mingw/bin/../lib/gcc/mingw32/6.3.0/../../../libuser32.a(dtpcs00350.o)
 .data          0x004ac080        0x0 c:/mingw/bin/../lib/gcc/mingw32/6.3.0/../../../libuser32.a(dtpcs00348.o)
 .data          0x004ac080        0x0 c:/mingw/bin/../lib/gcc/mingw32/6.3.0/../../../libuser32.a(dtpcs00347.o)
 .data          0x004ac080        0x0 c:/mingw/bin/../lib/gcc/mingw32/6.3.0/../../../libuser32.a(dtpcs00342.o)
 .data          0x004ac080        0x0 c:/mingw/bin/../lib/gcc/mingw32/6.3.0/../../../libuser32.a(dtpcs00325.o)
 .data          0x004ac080        0x0 c:/mingw/bin/../lib/gcc/mingw32/6.3.0/../../../libuser32.a(dtpcs00323.o)
 .data          0x004ac080        0x0 c:/mingw/bin/../lib/gcc/mingw32/6.3.0/../../../libuser32.a(dtpcs00318.o)
 .data          0x004ac080        0x0 c:/mingw/bin/../lib/gcc/mingw32/6.3.0/../../../libuser32.a(dtpcs00310.o)
 .data          0x004ac080        0x0 c:/mingw/bin/../lib/gcc/mingw32/6.3.0/../../../libuser32.a(dtpcs00304.o)
 .data          0x004ac080        0x0 c:/mingw/bin/../lib/gcc/mingw32/6.3.0/../../../libuser32.a(dtpcs00296.o)
 .data          0x004ac080        0x0 c:/mingw/bin/../lib/gcc/mingw32/6.3.0/../../../libuser32.a(dtpcs00293.o)
 .data          0x004ac080        0x0 c:/mingw/bin/../lib/gcc/mingw32/6.3.0/../../../libuser32.a(dtpcs00273.o)
 .data          0x004ac080        0x0 c:/mingw/bin/../lib/gcc/mingw32/6.3.0/../../../libuser32.a(dtpcs00269.o)
 .data          0x004ac080        0x0 c:/mingw/bin/../lib/gcc/mingw32/6.3.0/../../../libuser32.a(dtpcs00259.o)
 .data          0x004ac080        0x0 c:/mingw/bin/../lib/gcc/mingw32/6.3.0/../../../libuser32.a(dtpcs00257.o)
 .data          0x004ac080        0x0 c:/mingw/bin/../lib/gcc/mingw32/6.3.0/../../../libuser32.a(dtpcs00255.o)
 .data          0x004ac080        0x0 c:/mingw/bin/../lib/gcc/mingw32/6.3.0/../../../libuser32.a(dtpcs00253.o)
 .data          0x004ac080        0x0 c:/mingw/bin/../lib/gcc/mingw32/6.3.0/../../../libuser32.a(dtpcs00250.o)
 .data          0x004ac080        0x0 c:/mingw/bin/../lib/gcc/mingw32/6.3.0/../../../libuser32.a(dtpcs00248.o)
 .data          0x004ac080        0x0 c:/mingw/bin/../lib/gcc/mingw32/6.3.0/../../../libuser32.a(dtpcs00247.o)
 .data          0x004ac080        0x0 c:/mingw/bin/../lib/gcc/mingw32/6.3.0/../../../libuser32.a(dtpcs00241.o)
 .data          0x004ac080        0x0 c:/mingw/bin/../lib/gcc/mingw32/6.3.0/../../../libuser32.a(dtpcs00238.o)
 .data          0x004ac080        0x0 c:/mingw/bin/../lib/gcc/mingw32/6.3.0/../../../libuser32.a(dtpcs00236.o)
 .data          0x004ac080        0x0 c:/mingw/bin/../lib/gcc/mingw32/6.3.0/../../../libuser32.a(dtpcs00225.o)
 .data          0x004ac080        0x0 c:/mingw/bin/../lib/gcc/mingw32/6.3.0/../../../libuser32.a(dtpcs00224.o)
 .data          0x004ac080        0x0 c:/mingw/bin/../lib/gcc/mingw32/6.3.0/../../../libuser32.a(dtpcs00214.o)
 .data          0x004ac080        0x0 c:/mingw/bin/../lib/gcc/mingw32/6.3.0/../../../libuser32.a(dtpcs00210.o)
 .data          0x004ac080        0x0 c:/mingw/bin/../lib/gcc/mingw32/6.3.0/../../../libuser32.a(dtpcs00184.o)
 .data          0x004ac080        0x0 c:/mingw/bin/../lib/gcc/mingw32/6.3.0/../../../libuser32.a(dtpcs00182.o)
 .data          0x004ac080        0x0 c:/mingw/bin/../lib/gcc/mingw32/6.3.0/../../../libuser32.a(dtpcs00180.o)
 .data          0x004ac080        0x0 c:/mingw/bin/../lib/gcc/mingw32/6.3.0/../../../libuser32.a(dtpcs00178.o)
 .data          0x004ac080        0x0 c:/mingw/bin/../lib/gcc/mingw32/6.3.0/../../../libuser32.a(dtpcs00177.o)
 .data          0x004ac080        0x0 c:/mingw/bin/../lib/gcc/mingw32/6.3.0/../../../libuser32.a(dtpcs00168.o)
 .data          0x004ac080        0x0 c:/mingw/bin/../lib/gcc/mingw32/6.3.0/../../../libuser32.a(dtpcs00163.o)
 .data          0x004ac080        0x0 c:/mingw/bin/../lib/gcc/mingw32/6.3.0/../../../libuser32.a(dtpcs00150.o)
 .data          0x004ac080        0x0 c:/mingw/bin/../lib/gcc/mingw32/6.3.0/../../../libuser32.a(dtpcs00149.o)
 .data          0x004ac080        0x0 c:/mingw/bin/../lib/gcc/mingw32/6.3.0/../../../libuser32.a(dtpcs00147.o)
 .data          0x004ac080        0x0 c:/mingw/bin/../lib/gcc/mingw32/6.3.0/../../../libuser32.a(dtpcs00144.o)
 .data          0x004ac080        0x0 c:/mingw/bin/../lib/gcc/mingw32/6.3.0/../../../libuser32.a(dtpcs00142.o)
 .data          0x004ac080        0x0 c:/mingw/bin/../lib/gcc/mingw32/6.3.0/../../../libuser32.a(dtpcs00140.o)
 .data          0x004ac080        0x0 c:/mingw/bin/../lib/gcc/mingw32/6.3.0/../../../libuser32.a(dtpcs00137.o)
 .data          0x004ac080        0x0 c:/mingw/bin/../lib/gcc/mingw32/6.3.0/../../../libuser32.a(dtpcs00135.o)
 .data          0x004ac080        0x0 c:/mingw/bin/../lib/gcc/mingw32/6.3.0/../../../libuser32.a(dtpcs00134.o)
 .data          0x004ac080        0x0 c:/mingw/bin/../lib/gcc/mingw32/6.3.0/../../../libuser32.a(dtpcs00127.o)
 .data          0x004ac080        0x0 c:/mingw/bin/../lib/gcc/mingw32/6.3.0/../../../libuser32.a(dtpcs00091.o)
 .data          0x004ac080        0x0 c:/mingw/bin/../lib/gcc/mingw32/6.3.0/../../../libuser32.a(dtpcs00090.o)
 .data          0x004ac080        0x0 c:/mingw/bin/../lib/gcc/mingw32/6.3.0/../../../libuser32.a(dtpcs00089.o)
 .data          0x004ac080        0x0 c:/mingw/bin/../lib/gcc/mingw32/6.3.0/../../../libuser32.a(dtpcs00088.o)
 .data          0x004ac080        0x0 c:/mingw/bin/../lib/gcc/mingw32/6.3.0/../../../libuser32.a(dtpcs00080.o)
 .data          0x004ac080        0x0 c:/mingw/bin/../lib/gcc/mingw32/6.3.0/../../../libuser32.a(dtpcs00074.o)
 .data          0x004ac080        0x0 c:/mingw/bin/../lib/gcc/mingw32/6.3.0/../../../libuser32.a(dtpcs00061.o)
 .data          0x004ac080        0x0 c:/mingw/bin/../lib/gcc/mingw32/6.3.0/../../../libuser32.a(dtpcs00056.o)
 .data          0x004ac080        0x0 c:/mingw/bin/../lib/gcc/mingw32/6.3.0/../../../libuser32.a(dtpcs00054.o)
 .data          0x004ac080        0x0 c:/mingw/bin/../lib/gcc/mingw32/6.3.0/../../../libuser32.a(dtpcs00053.o)
 .data          0x004ac080        0x0 c:/mingw/bin/../lib/gcc/mingw32/6.3.0/../../../libuser32.a(dtpcs00011.o)
 .data          0x004ac080        0x0 c:/mingw/bin/../lib/gcc/mingw32/6.3.0/../../../libuser32.a(dtpcs00006.o)
 .data          0x004ac080        0x0 c:/mingw/bin/../lib/gcc/mingw32/6.3.0/../../../libuser32.a(dtpch.o)
 .data          0x004ac080        0x0 c:/mingw/bin/../lib/gcc/mingw32/6.3.0/../../../libuser32.a(dtpct.o)
 .data          0x004ac080        0x4 c:/mingw/bin/../lib/gcc/mingw32/6.3.0/../../../libmingw32.a(CRTglob.o)
                0x004ac080                _CRT_glob
 .data          0x004ac084        0x0 c:/mingw/bin/../lib/gcc/mingw32/6.3.0/../../../libmingw32.a(setargv.o)
 .data          0x004ac084        0x0 c:/mingw/bin/../lib/gcc/mingw32/6.3.0/../../../libmingw32.a(CRTfmode.o)
 .data          0x004ac084        0x0 c:/mingw/bin/../lib/gcc/mingw32/6.3.0/../../../libmingw32.a(cpu_features.o)
 .data          0x004ac084        0x4 c:/mingw/bin/../lib/gcc/mingw32/6.3.0/../../../libmingw32.a(CRT_fp10.o)
                0x004ac084                _CRT_fenv
 .data          0x004ac088        0x4 c:/mingw/bin/../lib/gcc/mingw32/6.3.0/../../../libmingw32.a(txtmode.o)
                0x004ac088                _fmode
 .data          0x004ac08c        0x0 c:/mingw/bin/../lib/gcc/mingw32/6.3.0/../../../libmingw32.a(main.o)
 .data          0x004ac08c        0x4 c:/mingw/bin/../lib/gcc/mingw32/6.3.0/../../../libmingw32.a(gccmain.o)
 .data          0x004ac090        0x0 c:/mingw/bin/../lib/gcc/mingw32/6.3.0/../../../libmingw32.a(tlssup.o)
 .data          0x004ac090        0x0 c:/mingw/bin/../lib/gcc/mingw32/6.3.0/../../../libmingw32.a(tlsthrd.o)
 .data          0x004ac090        0x0 c:/mingw/bin/../lib/gcc/mingw32/6.3.0/../../../libmingw32.a(pseudo-reloc.o)
 .data          0x004ac090        0x0 c:/mingw/bin/../lib/gcc/mingw32/6.3.0/../../../libmingw32.a(pseudo-reloc-list.o)
 .data          0x004ac090        0x0 c:/mingw/bin/../lib/gcc/mingw32/6.3.0/../../../libmingw32.a(crtst.o)
 .data          0x004ac090        0x0 c:/mingw/bin/../lib/gcc/mingw32/6.3.0/libgcc.a(_chkstk_ms.o)
 .data          0x004ac090        0x0 c:/mingw/bin/../lib/gcc/mingw32/6.3.0/libgcc.a(_ctors.o)
 .data          0x004ac090        0x0 c:/mingw/bin/../lib/gcc/mingw32/6.3.0/libgcc.a(_udivdi3.o)
 .data          0x004ac090        0x4 c:/mingw/bin/../lib/gcc/mingw32/6.3.0/../../../libmingwex.a(fesetenv.o)
 .data          0x004ac094       0x14 c:/mingw/bin/../lib/gcc/mingw32/6.3.0/../../../libmingwex.a(strtodnrp.o)
 .data          0x004ac0a8        0x0 c:/mingw/bin/../lib/gcc/mingw32/6.3.0/../../../libmingwex.a(vfprintf.o)
 .data          0x004ac0a8        0x0 c:/mingw/bin/../lib/gcc/mingw32/6.3.0/../../../libmingwex.a(vsnprintf.o)
 .data          0x004ac0a8        0x0 c:/mingw/bin/../lib/gcc/mingw32/6.3.0/../../../libmingwex.a(vsprintf.o)
 .data          0x004ac0a8        0x0 c:/mingw/bin/../lib/gcc/mingw32/6.3.0/../../../libmingwex.a(glob.o)
 .data          0x004ac0a8        0x0 c:/mingw/bin/../lib/gcc/mingw32/6.3.0/../../../libmingwex.a(dirname.o)
 .data          0x004ac0a8        0x0 c:/mingw/bin/../lib/gcc/mingw32/6.3.0/../../../libmingwex.a(dirent.o)
 .data          0x004ac0a8        0x0 c:/mingw/bin/../lib/gcc/mingw32/6.3.0/../../../libmingwex.a(mbrtowc.o)
 .data          0x004ac0a8        0x0 c:/mingw/bin/../lib/gcc/mingw32/6.3.0/../../../libmingwex.a(wcrtomb.o)
 .data          0x004ac0a8        0x0 c:/mingw/bin/../lib/gcc/mingw32/6.3.0/../../../libmingwex.a(strtodg.o)
 .data          0x004ac0a8        0x0 c:/mingw/bin/../lib/gcc/mingw32/6.3.0/../../../libmingwex.a(hexnan.o)
 .data          0x004ac0a8        0x4 c:/mingw/bin/../lib/gcc/mingw32/6.3.0/../../../libmingwex.a(misc.o)
 .data          0x004ac0ac       0x14 c:/mingw/bin/../lib/gcc/mingw32/6.3.0/../../../libmingwex.a(pformat.o)
 .data          0x004ac0c0        0x0 c:/mingw/bin/../lib/gcc/mingw32/6.3.0/../../../libmingwex.a(varofmt.o)
 .data          0x004ac0c0        0x0 c:/mingw/bin/../lib/gcc/mingw32/6.3.0/../../../libmingwex.a(gethex.o)
 .data          0x004ac0c0        0x0 c:/mingw/bin/../lib/gcc/mingw32/6.3.0/../../../libmingwex.a(gdtoa.o)
 .data          0x004ac0c0        0x0 c:/mingw/bin/../lib/gcc/mingw32/6.3.0/../../../libmingwex.a(gmisc.o)
 .data          0x004ac0c0        0x0 c:/mingw/bin/../lib/gcc/mingw32/6.3.0/../../../libmingwex.a(smisc.o)
 .data          0x004ac0c0        0x0 c:/mingw/bin/../lib/gcc/mingw32/6.3.0/../../../libmingwex.a(sum.o)
 .data          0x004ac0c0        0x0 c:/mingw/bin/../lib/gcc/mingw32/6.3.0/../../../libmingwex.a(hd_init.o)
 .data          0x004ac0c0        0x0 c:/mingw/bin/../lib/gcc/mingw32/6.3.0/../../../libmingwex.a(dmisc.o)
 .data          0x004ac0c0        0x0 c:/mingw/bin/../lib/gcc/mingw32/6.3.0/../../../libmsvcrt.a(djpvbs01325.o)
 .data          0x004ac0c0        0x0 c:/mingw/bin/../lib/gcc/mingw32/6.3.0/../../../libmsvcrt.a(djpvbs01311.o)
 .data          0x004ac0c0        0x0 c:/mingw/bin/../lib/gcc/mingw32/6.3.0/../../../libmsvcrt.a(djpvbs01308.o)
 .data          0x004ac0c0        0x0 c:/mingw/bin/../lib/gcc/mingw32/6.3.0/../../../libmsvcrt.a(djpvbs01284.o)
 .data          0x004ac0c0        0x0 c:/mingw/bin/../lib/gcc/mingw32/6.3.0/../../../libmsvcrt.a(djpvbs01281.o)
 .data          0x004ac0c0        0x0 c:/mingw/bin/../lib/gcc/mingw32/6.3.0/../../../libmsvcrt.a(djpvbs01278.o)
 .data          0x004ac0c0        0x0 c:/mingw/bin/../lib/gcc/mingw32/6.3.0/../../../libmsvcrt.a(djpvbs01277.o)
 .data          0x004ac0c0        0x0 c:/mingw/bin/../lib/gcc/mingw32/6.3.0/../../../libmsvcrt.a(djpvbs01272.o)
 .data          0x004ac0c0        0x0 c:/mingw/bin/../lib/gcc/mingw32/6.3.0/../../../libmsvcrt.a(djpvbs01269.o)
 .data          0x004ac0c0        0x0 c:/mingw/bin/../lib/gcc/mingw32/6.3.0/../../../libmsvcrt.a(djpvbs01263.o)
 .data          0x004ac0c0        0x0 c:/mingw/bin/../lib/gcc/mingw32/6.3.0/../../../libmsvcrt.a(djpvbs01262.o)
 .data          0x004ac0c0        0x0 c:/mingw/bin/../lib/gcc/mingw32/6.3.0/../../../libmsvcrt.a(djpvbs01258.o)
 .data          0x004ac0c0        0x0 c:/mingw/bin/../lib/gcc/mingw32/6.3.0/../../../libmsvcrt.a(djpvbs01257.o)
 .data          0x004ac0c0        0x0 c:/mingw/bin/../lib/gcc/mingw32/6.3.0/../../../libmsvcrt.a(djpvbs01256.o)
 .data          0x004ac0c0        0x0 c:/mingw/bin/../lib/gcc/mingw32/6.3.0/../../../libmsvcrt.a(djpvbs01253.o)
 .data          0x004ac0c0        0x0 c:/mingw/bin/../lib/gcc/mingw32/6.3.0/../../../libmsvcrt.a(djpvbs01252.o)
 .data          0x004ac0c0        0x0 c:/mingw/bin/../lib/gcc/mingw32/6.3.0/../../../libmsvcrt.a(djpvbs01249.o)
 .data          0x004ac0c0        0x0 c:/mingw/bin/../lib/gcc/mingw32/6.3.0/../../../libmsvcrt.a(djpvbs01248.o)
 .data          0x004ac0c0        0x0 c:/mingw/bin/../lib/gcc/mingw32/6.3.0/../../../libmsvcrt.a(djpvbs01245.o)
 .data          0x004ac0c0        0x0 c:/mingw/bin/../lib/gcc/mingw32/6.3.0/../../../libmsvcrt.a(djpvbs01243.o)
 .data          0x004ac0c0        0x0 c:/mingw/bin/../lib/gcc/mingw32/6.3.0/../../../libmsvcrt.a(djpvbs01242.o)
 .data          0x004ac0c0        0x0 c:/mingw/bin/../lib/gcc/mingw32/6.3.0/../../../libmsvcrt.a(djpvbs01241.o)
 .data          0x004ac0c0        0x0 c:/mingw/bin/../lib/gcc/mingw32/6.3.0/../../../libmsvcrt.a(djpvbs01240.o)
 .data          0x004ac0c0        0x0 c:/mingw/bin/../lib/gcc/mingw32/6.3.0/../../../libmsvcrt.a(djpvbs01238.o)
 .data          0x004ac0c0        0x0 c:/mingw/bin/../lib/gcc/mingw32/6.3.0/../../../libmsvcrt.a(djpvbs01236.o)
 .data          0x004ac0c0        0x0 c:/mingw/bin/../lib/gcc/mingw32/6.3.0/../../../libmsvcrt.a(djpvbs01229.o)
 .data          0x004ac0c0        0x0 c:/mingw/bin/../lib/gcc/mingw32/6.3.0/../../../libmsvcrt.a(djpvbs01227.o)
 .data          0x004ac0c0        0x0 c:/mingw/bin/../lib/gcc/mingw32/6.3.0/../../../libmsvcrt.a(djpvbs01223.o)
 .data          0x004ac0c0        0x0 c:/mingw/bin/../lib/gcc/mingw32/6.3.0/../../../libmsvcrt.a(djpvbs01220.o)
 .data          0x004ac0c0        0x0 c:/mingw/bin/../lib/gcc/mingw32/6.3.0/../../../libmsvcrt.a(djpvbs01215.o)
 .data          0x004ac0c0        0x0 c:/mingw/bin/../lib/gcc/mingw32/6.3.0/../../../libmsvcrt.a(djpvbs01203.o)
 .data          0x004ac0c0        0x0 c:/mingw/bin/../lib/gcc/mingw32/6.3.0/../../../libmsvcrt.a(djpvbs01201.o)
 .data          0x004ac0c0        0x0 c:/mingw/bin/../lib/gcc/mingw32/6.3.0/../../../libmsvcrt.a(djpvbs01199.o)
 .data          0x004ac0c0        0x0 c:/mingw/bin/../lib/gcc/mingw32/6.3.0/../../../libmsvcrt.a(djpvbs01198.o)
 .data          0x004ac0c0        0x0 c:/mingw/bin/../lib/gcc/mingw32/6.3.0/../../../libmsvcrt.a(djpvbs01197.o)
 .data          0x004ac0c0        0x0 c:/mingw/bin/../lib/gcc/mingw32/6.3.0/../../../libmsvcrt.a(djpvbs01194.o)
 .data          0x004ac0c0        0x0 c:/mingw/bin/../lib/gcc/mingw32/6.3.0/../../../libmsvcrt.a(djpvbs01187.o)
 .data          0x004ac0c0        0x0 c:/mingw/bin/../lib/gcc/mingw32/6.3.0/../../../libmsvcrt.a(djpvbs01182.o)
 .data          0x004ac0c0        0x0 c:/mingw/bin/../lib/gcc/mingw32/6.3.0/../../../libmsvcrt.a(djpvbs01169.o)
 .data          0x004ac0c0        0x0 c:/mingw/bin/../lib/gcc/mingw32/6.3.0/../../../libmsvcrt.a(djpvbs01147.o)
 .data          0x004ac0c0        0x0 c:/mingw/bin/../lib/gcc/mingw32/6.3.0/../../../libmsvcrt.a(djpvbs01142.o)
 .data          0x004ac0c0        0x0 c:/mingw/bin/../lib/gcc/mingw32/6.3.0/../../../libmsvcrt.a(djpvbs01131.o)
 .data          0x004ac0c0        0x0 c:/mingw/bin/../lib/gcc/mingw32/6.3.0/../../../libmsvcrt.a(djpvbs01130.o)
 .data          0x004ac0c0        0x0 c:/mingw/bin/../lib/gcc/mingw32/6.3.0/../../../libmsvcrt.a(djpvbs01127.o)
 .data          0x004ac0c0        0x0 c:/mingw/bin/../lib/gcc/mingw32/6.3.0/../../../libmsvcrt.a(djpvbs01126.o)
 .data          0x004ac0c0        0x0 c:/mingw/bin/../lib/gcc/mingw32/6.3.0/../../../libmsvcrt.a(djpvbs01122.o)
 .data          0x004ac0c0        0x0 c:/mingw/bin/../lib/gcc/mingw32/6.3.0/../../../libmsvcrt.a(djpvbs01117.o)
 .data          0x004ac0c0        0x0 c:/mingw/bin/../lib/gcc/mingw32/6.3.0/../../../libmsvcrt.a(djpvbs01115.o)
 .data          0x004ac0c0        0x0 c:/mingw/bin/../lib/gcc/mingw32/6.3.0/../../../libmsvcrt.a(djpvbs01114.o)
 .data          0x004ac0c0        0x0 c:/mingw/bin/../lib/gcc/mingw32/6.3.0/../../../libmsvcrt.a(djpvbs01111.o)
 .data          0x004ac0c0        0x0 c:/mingw/bin/../lib/gcc/mingw32/6.3.0/../../../libmsvcrt.a(djpvbs01108.o)
 .data          0x004ac0c0        0x0 c:/mingw/bin/../lib/gcc/mingw32/6.3.0/../../../libmsvcrt.a(djpvbs01106.o)
 .data          0x004ac0c0        0x0 c:/mingw/bin/../lib/gcc/mingw32/6.3.0/../../../libmsvcrt.a(djpvbs01098.o)
 .data          0x004ac0c0        0x0 c:/mingw/bin/../lib/gcc/mingw32/6.3.0/../../../libmsvcrt.a(djpvbs01093.o)
 .data          0x004ac0c0        0x0 c:/mingw/bin/../lib/gcc/mingw32/6.3.0/../../../libmsvcrt.a(djpvbs01091.o)
 .data          0x004ac0c0        0x0 c:/mingw/bin/../lib/gcc/mingw32/6.3.0/../../../libmsvcrt.a(djpvbs01083.o)
 .data          0x004ac0c0        0x0 c:/mingw/bin/../lib/gcc/mingw32/6.3.0/../../../libmsvcrt.a(djpvbs00813.o)
 .data          0x004ac0c0        0x0 c:/mingw/bin/../lib/gcc/mingw32/6.3.0/../../../libmsvcrt.a(djpvbs00803.o)
 .data          0x004ac0c0        0x0 c:/mingw/bin/../lib/gcc/mingw32/6.3.0/../../../libmsvcrt.a(djpvbs00753.o)
 .data          0x004ac0c0        0x0 c:/mingw/bin/../lib/gcc/mingw32/6.3.0/../../../libmsvcrt.a(djpvbs00698.o)
 .data          0x004ac0c0        0x0 c:/mingw/bin/../lib/gcc/mingw32/6.3.0/../../../libmsvcrt.a(djpvbs00689.o)
 .data          0x004ac0c0        0x0 c:/mingw/bin/../lib/gcc/mingw32/6.3.0/../../../libmsvcrt.a(djpvbs00422.o)
 .data          0x004ac0c0        0x0 c:/mingw/bin/../lib/gcc/mingw32/6.3.0/../../../libmsvcrt.a(djpvbs00417.o)
 .data          0x004ac0c0        0x0 c:/mingw/bin/../lib/gcc/mingw32/6.3.0/../../../libmsvcrt.a(djpvbs00350.o)
 .data          0x004ac0c0        0x0 c:/mingw/bin/../lib/gcc/mingw32/6.3.0/../../../libmsvcrt.a(djpvbs00324.o)
 .data          0x004ac0c0        0x0 c:/mingw/bin/../lib/gcc/mingw32/6.3.0/../../../libmsvcrt.a(djpvbs00285.o)
 .data          0x004ac0c0        0x0 c:/mingw/bin/../lib/gcc/mingw32/6.3.0/../../../libmsvcrt.a(djpvbs00219.o)
 .data          0x004ac0c0        0x0 c:/mingw/bin/../lib/gcc/mingw32/6.3.0/../../../libmsvcrt.a(djpvbs00201.o)
 .data          0x004ac0c0        0x0 c:/mingw/bin/../lib/gcc/mingw32/6.3.0/../../../libmsvcrt.a(djpvbs00153.o)
 .data          0x004ac0c0        0x0 c:/mingw/bin/../lib/gcc/mingw32/6.3.0/../../../libmsvcrt.a(djpvbs00133.o)
 .data          0x004ac0c0        0x0 c:/mingw/bin/../lib/gcc/mingw32/6.3.0/../../../libmsvcrt.a(djpvbs00131.o)
 .data          0x004ac0c0        0x0 c:/mingw/bin/../lib/gcc/mingw32/6.3.0/../../../libmsvcrt.a(djpvbs00119.o)
 .data          0x004ac0c0        0x0 c:/mingw/bin/../lib/gcc/mingw32/6.3.0/../../../libmsvcrt.a(djpvbs00088.o)
 .data          0x004ac0c0        0x0 c:/mingw/bin/../lib/gcc/mingw32/6.3.0/../../../libmsvcrt.a(djpvbh.o)
 .data          0x004ac0c0        0x0 c:/mingw/bin/../lib/gcc/mingw32/6.3.0/../../../libmsvcrt.a(djpvbt.o)
 .data          0x004ac0c0        0x0 c:/mingw/bin/../lib/gcc/mingw32/6.3.0/../../../libkernel32.a(dujcs01267.o)
 .data          0x004ac0c0        0x0 c:/mingw/bin/../lib/gcc/mingw32/6.3.0/../../../libkernel32.a(dujcs01247.o)
 .data          0x004ac0c0        0x0 c:/mingw/bin/../lib/gcc/mingw32/6.3.0/../../../libkernel32.a(dujcs01223.o)
 .data          0x004ac0c0        0x0 c:/mingw/bin/../lib/gcc/mingw32/6.3.0/../../../libkernel32.a(dujcs01215.o)
 .data          0x004ac0c0        0x0 c:/mingw/bin/../lib/gcc/mingw32/6.3.0/../../../libkernel32.a(dujcs01213.o)
 .data          0x004ac0c0        0x0 c:/mingw/bin/../lib/gcc/mingw32/6.3.0/../../../libkernel32.a(dujcs01188.o)
 .data          0x004ac0c0        0x0 c:/mingw/bin/../lib/gcc/mingw32/6.3.0/../../../libkernel32.a(dujcs01173.o)
 .data          0x004ac0c0        0x0 c:/mingw/bin/../lib/gcc/mingw32/6.3.0/../../../libkernel32.a(dujcs01152.o)
 .data          0x004ac0c0        0x0 c:/mingw/bin/../lib/gcc/mingw32/6.3.0/../../../libkernel32.a(dujcs01140.o)
 .data          0x004ac0c0        0x0 c:/mingw/bin/../lib/gcc/mingw32/6.3.0/../../../libkernel32.a(dujcs01088.o)
 .data          0x004ac0c0        0x0 c:/mingw/bin/../lib/gcc/mingw32/6.3.0/../../../libkernel32.a(dujcs01065.o)
 .data          0x004ac0c0        0x0 c:/mingw/bin/../lib/gcc/mingw32/6.3.0/../../../libkernel32.a(dujcs01052.o)
 .data          0x004ac0c0        0x0 c:/mingw/bin/../lib/gcc/mingw32/6.3.0/../../../libkernel32.a(dujcs01014.o)
 .data          0x004ac0c0        0x0 c:/mingw/bin/../lib/gcc/mingw32/6.3.0/../../../libkernel32.a(dujcs01013.o)
 .data          0x004ac0c0        0x0 c:/mingw/bin/../lib/gcc/mingw32/6.3.0/../../../libkernel32.a(dujcs01010.o)
 .data          0x004ac0c0        0x0 c:/mingw/bin/../lib/gcc/mingw32/6.3.0/../../../libkernel32.a(dujcs00947.o)
 .data          0x004ac0c0        0x0 c:/mingw/bin/../lib/gcc/mingw32/6.3.0/../../../libkernel32.a(dujcs00922.o)
 .data          0x004ac0c0        0x0 c:/mingw/bin/../lib/gcc/mingw32/6.3.0/../../../libkernel32.a(dujcs00860.o)
 .data          0x004ac0c0        0x0 c:/mingw/bin/../lib/gcc/mingw32/6.3.0/../../../libkernel32.a(dujcs00859.o)
 .data          0x004ac0c0        0x0 c:/mingw/bin/../lib/gcc/mingw32/6.3.0/../../../libkernel32.a(dujcs00844.o)
 .data          0x004ac0c0        0x0 c:/mingw/bin/../lib/gcc/mingw32/6.3.0/../../../libkernel32.a(dujcs00827.o)
 .data          0x004ac0c0        0x0 c:/mingw/bin/../lib/gcc/mingw32/6.3.0/../../../libkernel32.a(dujcs00818.o)
 .data          0x004ac0c0        0x0 c:/mingw/bin/../lib/gcc/mingw32/6.3.0/../../../libkernel32.a(dujcs00817.o)
 .data          0x004ac0c0        0x0 c:/mingw/bin/../lib/gcc/mingw32/6.3.0/../../../libkernel32.a(dujcs00814.o)
 .data          0x004ac0c0        0x0 c:/mingw/bin/../lib/gcc/mingw32/6.3.0/../../../libkernel32.a(dujcs00763.o)
 .data          0x004ac0c0        0x0 c:/mingw/bin/../lib/gcc/mingw32/6.3.0/../../../libkernel32.a(dujcs00744.o)
 .data          0x004ac0c0        0x0 c:/mingw/bin/../lib/gcc/mingw32/6.3.0/../../../libkernel32.a(dujcs00734.o)
 .data          0x004ac0c0        0x0 c:/mingw/bin/../lib/gcc/mingw32/6.3.0/../../../libkernel32.a(dujcs00705.o)
 .data          0x004ac0c0        0x0 c:/mingw/bin/../lib/gcc/mingw32/6.3.0/../../../libkernel32.a(dujcs00699.o)
 .data          0x004ac0c0        0x0 c:/mingw/bin/../lib/gcc/mingw32/6.3.0/../../../libkernel32.a(dujcs00698.o)
 .data          0x004ac0c0        0x0 c:/mingw/bin/../lib/gcc/mingw32/6.3.0/../../../libkernel32.a(dujcs00694.o)
 .data          0x004ac0c0        0x0 c:/mingw/bin/../lib/gcc/mingw32/6.3.0/../../../libkernel32.a(dujcs00687.o)
 .data          0x004ac0c0        0x0 c:/mingw/bin/../lib/gcc/mingw32/6.3.0/../../../libkernel32.a(dujcs00682.o)
 .data          0x004ac0c0        0x0 c:/mingw/bin/../lib/gcc/mingw32/6.3.0/../../../libkernel32.a(dujcs00656.o)
 .data          0x004ac0c0        0x0 c:/mingw/bin/../lib/gcc/mingw32/6.3.0/../../../libkernel32.a(dujcs00653.o)
 .data          0x004ac0c0        0x0 c:/mingw/bin/../lib/gcc/mingw32/6.3.0/../../../libkernel32.a(dujcs00629.o)
 .data          0x004ac0c0        0x0 c:/mingw/bin/../lib/gcc/mingw32/6.3.0/../../../libkernel32.a(dujcs00619.o)
 .data          0x004ac0c0        0x0 c:/mingw/bin/../lib/gcc/mingw32/6.3.0/../../../libkernel32.a(dujcs00606.o)
 .data          0x004ac0c0        0x0 c:/mingw/bin/../lib/gcc/mingw32/6.3.0/../../../libkernel32.a(dujcs00590.o)
 .data          0x004ac0c0        0x0 c:/mingw/bin/../lib/gcc/mingw32/6.3.0/../../../libkernel32.a(dujcs00577.o)
 .data          0x004ac0c0        0x0 c:/mingw/bin/../lib/gcc/mingw32/6.3.0/../../../libkernel32.a(dujcs00564.o)
 .data          0x004ac0c0        0x0 c:/mingw/bin/../lib/gcc/mingw32/6.3.0/../../../libkernel32.a(dujcs00563.o)
 .data          0x004ac0c0        0x0 c:/mingw/bin/../lib/gcc/mingw32/6.3.0/../../../libkernel32.a(dujcs00529.o)
 .data          0x004ac0c0        0x0 c:/mingw/bin/../lib/gcc/mingw32/6.3.0/../../../libkernel32.a(dujcs00527.o)
 .data          0x004ac0c0        0x0 c:/mingw/bin/../lib/gcc/mingw32/6.3.0/../../../libkernel32.a(dujcs00512.o)
 .data          0x004ac0c0        0x0 c:/mingw/bin/../lib/gcc/mingw32/6.3.0/../../../libkernel32.a(dujcs00511.o)
 .data          0x004ac0c0        0x0 c:/mingw/bin/../lib/gcc/mingw32/6.3.0/../../../libkernel32.a(dujcs00510.o)
 .data          0x004ac0c0        0x0 c:/mingw/bin/../lib/gcc/mingw32/6.3.0/../../../libkernel32.a(dujcs00482.o)
 .data          0x004ac0c0        0x0 c:/mingw/bin/../lib/gcc/mingw32/6.3.0/../../../libkernel32.a(dujcs00473.o)
 .data          0x004ac0c0        0x0 c:/mingw/bin/../lib/gcc/mingw32/6.3.0/../../../libkernel32.a(dujcs00451.o)
 .data          0x004ac0c0        0x0 c:/mingw/bin/../lib/gcc/mingw32/6.3.0/../../../libkernel32.a(dujcs00450.o)
 .data          0x004ac0c0        0x0 c:/mingw/bin/../lib/gcc/mingw32/6.3.0/../../../libkernel32.a(dujcs00447.o)
 .data          0x004ac0c0        0x0 c:/mingw/bin/../lib/gcc/mingw32/6.3.0/../../../libkernel32.a(dujcs00446.o)
 .data          0x004ac0c0        0x0 c:/mingw/bin/../lib/gcc/mingw32/6.3.0/../../../libkernel32.a(dujcs00444.o)
 .data          0x004ac0c0        0x0 c:/mingw/bin/../lib/gcc/mingw32/6.3.0/../../../libkernel32.a(dujcs00426.o)
 .data          0x004ac0c0        0x0 c:/mingw/bin/../lib/gcc/mingw32/6.3.0/../../../libkernel32.a(dujcs00388.o)
 .data          0x004ac0c0        0x0 c:/mingw/bin/../lib/gcc/mingw32/6.3.0/../../../libkernel32.a(dujcs00386.o)
 .data          0x004ac0c0        0x0 c:/mingw/bin/../lib/gcc/mingw32/6.3.0/../../../libkernel32.a(dujcs00368.o)
 .data          0x004ac0c0        0x0 c:/mingw/bin/../lib/gcc/mingw32/6.3.0/../../../libkernel32.a(dujcs00358.o)
 .data          0x004ac0c0        0x0 c:/mingw/bin/../lib/gcc/mingw32/6.3.0/../../../libkernel32.a(dujcs00352.o)
 .data          0x004ac0c0        0x0 c:/mingw/bin/../lib/gcc/mingw32/6.3.0/../../../libkernel32.a(dujcs00347.o)
 .data          0x004ac0c0        0x0 c:/mingw/bin/../lib/gcc/mingw32/6.3.0/../../../libkernel32.a(dujcs00321.o)
 .data          0x004ac0c0        0x0 c:/mingw/bin/../lib/gcc/mingw32/6.3.0/../../../libkernel32.a(dujcs00304.o)
 .data          0x004ac0c0        0x0 c:/mingw/bin/../lib/gcc/mingw32/6.3.0/../../../libkernel32.a(dujcs00300.o)
 .data          0x004ac0c0        0x0 c:/mingw/bin/../lib/gcc/mingw32/6.3.0/../../../libkernel32.a(dujcs00279.o)
 .data          0x004ac0c0        0x0 c:/mingw/bin/../lib/gcc/mingw32/6.3.0/../../../libkernel32.a(dujcs00236.o)
 .data          0x004ac0c0        0x0 c:/mingw/bin/../lib/gcc/mingw32/6.3.0/../../../libkernel32.a(dujcs00209.o)
 .data          0x004ac0c0        0x0 c:/mingw/bin/../lib/gcc/mingw32/6.3.0/../../../libkernel32.a(dujcs00207.o)
 .data          0x004ac0c0        0x0 c:/mingw/bin/../lib/gcc/mingw32/6.3.0/../../../libkernel32.a(dujcs00179.o)
 .data          0x004ac0c0        0x0 c:/mingw/bin/../lib/gcc/mingw32/6.3.0/../../../libkernel32.a(dujcs00163.o)
 .data          0x004ac0c0        0x0 c:/mingw/bin/../lib/gcc/mingw32/6.3.0/../../../libkernel32.a(dujcs00160.o)
 .data          0x004ac0c0        0x0 c:/mingw/bin/../lib/gcc/mingw32/6.3.0/../../../libkernel32.a(dujcs00136.o)
 .data          0x004ac0c0        0x0 c:/mingw/bin/../lib/gcc/mingw32/6.3.0/../../../libkernel32.a(dujcs00135.o)
 .data          0x004ac0c0        0x0 c:/mingw/bin/../lib/gcc/mingw32/6.3.0/../../../libkernel32.a(dujcs00129.o)
 .data          0x004ac0c0        0x0 c:/mingw/bin/../lib/gcc/mingw32/6.3.0/../../../libkernel32.a(dujcs00082.o)
 .data          0x004ac0c0        0x0 c:/mingw/bin/../lib/gcc/mingw32/6.3.0/../../../libkernel32.a(dujcs00079.o)
 .data          0x004ac0c0        0x0 c:/mingw/bin/../lib/gcc/mingw32/6.3.0/../../../libkernel32.a(dujcs00054.o)
 .data          0x004ac0c0        0x0 c:/mingw/bin/../lib/gcc/mingw32/6.3.0/../../../libkernel32.a(dujch.o)
 .data          0x004ac0c0        0x0 c:/mingw/bin/../lib/gcc/mingw32/6.3.0/../../../libkernel32.a(dujct.o)
 .data          0x004ac0c0        0x0 c:/mingw/bin/../lib/gcc/mingw32/6.3.0/libgcc.a(_umoddi3.o)
 .data          0x004ac0c0        0x0 c:/mingw/bin/../lib/gcc/mingw32/6.3.0/../../../libmoldname.a(dagwbs00082.o)
 .data          0x004ac0c0        0x0 c:/mingw/bin/../lib/gcc/mingw32/6.3.0/../../../libmoldname.a(dagwbs00080.o)
 .data          0x004ac0c0        0x0 c:/mingw/bin/../lib/gcc/mingw32/6.3.0/../../../libmoldname.a(dagwbh.o)
 .data          0x004ac0c0        0x0 c:/mingw/bin/../lib/gcc/mingw32/6.3.0/../../../libmoldname.a(dagwbt.o)
 .data          0x004ac0c0        0x0 c:/mingw/bin/../lib/gcc/mingw32/6.3.0/crtend.o
 *(.data2)
 *(SORT(.data$*))
 *(.jcr)
 .jcr           0x004ac0c0        0x0 c:/mingw/bin/../lib/gcc/mingw32/6.3.0/crtbegin.o
 .jcr           0x004ac0c0        0x4 c:/mingw/bin/../lib/gcc/mingw32/6.3.0/crtend.o
                0x004ac0c4                __data_end__ = .
 *(.data_cygwin_nocopy)

.rdata          0x004ad000    0x20800
 *(.rdata)
 .rdata         0x004ad000       0x64 c:/mingw/bin/../lib/gcc/mingw32/6.3.0/crtbegin.o
 *fill*         0x004ad064       0x1c 
 .rdata         0x004ad080       0xc0 agentf.o
 .rdata         0x004ad140       0x18 aqsync.o
 .rdata         0x004ad158       0x28 be_all_s.o
                0x004ad158                backends
                0x004ad170                be_default_protocol
                0x004ad17c                appname
 .rdata         0x004ad180       0xb8 be_misc.o
 .rdata         0x004ad238      0x360 cmdline.o
 *fill*         0x004ad598        0x8 
 .rdata         0x004ad5a0      0x7e0 conf.o
 .rdata         0x004add80     0x3620 config.o
 .rdata         0x004b13a0      0x140 cproxy.o
 .rdata         0x004b14e0       0x30 dialog.o
 .rdata         0x004b1510       0x6c ecc.o
 *fill*         0x004b157c        0x4 
 .rdata         0x004b1580       0x20 errsock.o
 .rdata         0x004b15a0       0x30 ldisc.o
 .rdata         0x004b15d0      0x278 logging.o
 *fill*         0x004b1848       0x18 
 .rdata         0x004b1860      0x4e0 mainchan.o
 .rdata         0x004b1d40        0x4 marshal.o
 .rdata         0x004b1d44       0x5c memory.o
 .rdata         0x004b1da0     0x2da0 minibidi.o
                0x004b4860                shapetypes
 .rdata         0x004b4b40      0x11c misc.o
 .rdata         0x004b4c5c      0x1d0 mpint.o
 .rdata         0x004b4e2c       0x18 nullplug.o
                0x004b4e2c                nullplug
 *fill*         0x004b4e44       0x1c 
 .rdata         0x004b4e60       0xa0 pgssapi.o
                0x004b4e60                GSS_MECH_KRB5
 .rdata         0x004b4f00      0x3e0 portfwd.o
 .rdata         0x004b52e0      0x7c0 proxy.o
 .rdata         0x004b5aa0       0x80 raw.o
                0x004b5ac0                raw_backend
 .rdata         0x004b5b20       0xc0 rlogin.o
                0x004b5b80                rlogin_backend
 .rdata         0x004b5be0      0x240 sercfg.o
 .rdata         0x004b5e20        0x4 sessprep.o
 *fill*         0x004b5e24       0x1c 
 .rdata         0x004b5e40     0x1200 settings.o
                0x004b6da0                ttymodes
 .rdata         0x004b7040       0x14 sizetip.o
 *fill*         0x004b7054        0xc 
 .rdata         0x004b7060      0x140 ssh.o
                0x004b7140                ssh_backend
 .rdata         0x004b71a0      0x218 ssh1bpp.o
 *fill*         0x004b73b8        0x8 
 .rdata         0x004b73c0      0x2e0 ssh1connection.o
 .rdata         0x004b76a0      0x280 ssh1connection-client.o
 .rdata         0x004b7920      0xe00 ssh1login.o
 .rdata         0x004b8720      0x338 ssh2bpp.o
 .rdata         0x004b8a58       0x94 ssh2bpp-bare.o
 .rdata         0x004b8aec       0x14 ssh2censor.o
 .rdata         0x004b8b00      0x560 ssh2connection.o
 .rdata         0x004b9060      0x33c ssh2connection-client.o
 .rdata         0x004b939c      0xa2c ssh2kex-client.o
 .rdata         0x004b9dc8       0x20 ssh2transhk.o
 *fill*         0x004b9de8       0x18 
 .rdata         0x004b9e00      0x9e0 ssh2transport.o
                0x004ba7a0                ssh2_hostkey_algs
 .rdata         0x004ba7e0      0xc80 ssh2userauth.o
 .rdata         0x004bb460      0x940 sshaes.o
                0x004bb4a4                ssh2_aes
                0x004bb5a0                ssh_aes256_sdctr
                0x004bb5e0                extra_aes256_sdctr
                0x004bb620                ssh_aes256_sdctr_hw
                0x004bb680                ssh_aes256_sdctr_sw
                0x004bb6e0                ssh_aes256_cbc
                0x004bb720                extra_aes256_cbc
                0x004bb760                ssh_aes256_cbc_hw
                0x004bb7c0                ssh_aes256_cbc_sw
                0x004bb840                ssh_aes192_sdctr
                0x004bb880                extra_aes192_sdctr
                0x004bb8c0                ssh_aes192_sdctr_hw
                0x004bb920                ssh_aes192_sdctr_sw
                0x004bb9a0                ssh_aes192_cbc
                0x004bb9e0                extra_aes192_cbc
                0x004bba20                ssh_aes192_cbc_hw
                0x004bba80                ssh_aes192_cbc_sw
                0x004bbb00                ssh_aes128_sdctr
                0x004bbb40                extra_aes128_sdctr
                0x004bbb80                ssh_aes128_sdctr_hw
                0x004bbbe0                ssh_aes128_sdctr_sw
                0x004bbc60                ssh_aes128_cbc
                0x004bbca0                extra_aes128_cbc
                0x004bbce0                ssh_aes128_cbc_hw
                0x004bbd40                ssh_aes128_cbc_sw
 .rdata         0x004bbda0      0x100 ssharcf.o
                0x004bbdc0                ssh2_arcfour
                0x004bbe00                ssh_arcfour256_ssh2
                0x004bbe60                ssh_arcfour128_ssh2
 .rdata         0x004bbea0     0x11c0 sshblowf.o
                0x004bbec0                ssh2_blowfish
                0x004bbf00                ssh_blowfish_ssh2_ctr
                0x004bbf60                ssh_blowfish_ssh2
                0x004bbfc0                ssh_blowfish_ssh1
 .rdata         0x004bd060       0xe0 sshccp.o
                0x004bd06c                ssh2_ccp
                0x004bd0a0                ssh2_chacha20_poly1305
                0x004bd100                ssh2_poly1305
 .rdata         0x004bd140     0x1080 sshcommon.o
 .rdata         0x004be1c0       0x58 sshcrcda.o
 *fill*         0x004be218        0x8 
 .rdata         0x004be220      0x4e0 sshdes.o
                0x004be500                ssh_3des_ssh1
                0x004be540                ssh2_3des
                0x004be580                ssh_3des_ssh2_ctr
                0x004be5e0                ssh_3des_ssh2
                0x004be620                ssh2_des
                0x004be660                ssh_des_sshcom_ssh2
                0x004be6c0                ssh_des
 .rdata         0x004be700      0x584 sshdh.o
                0x004bea5c                ssh_gssk5_sha1_kex
                0x004beb38                ssh_diffiehellman_gex
                0x004bebc4                ssh_diffiehellman_group14
                0x004bec40                ssh_diffiehellman_group1
 *fill*         0x004bec84       0x1c 
 .rdata         0x004beca0       0x80 sshdss.o
                0x004bece0                ssh_dss
 .rdata         0x004bed20      0xde0 sshecc.o
                0x004bf7cc                n_ec_nist_curve_lengths
                0x004bf7d0                ec_nist_curve_lengths
                0x004bf7dc                ssh_ecdh_kex
                0x004bf808                ssh_ec_kex_nistp521
                0x004bf81c                kex_extra_nistp521
                0x004bf844                ssh_ec_kex_nistp384
                0x004bf858                kex_extra_nistp384
                0x004bf880                ssh_ec_kex_nistp256
                0x004bf894                kex_extra_nistp256
                0x004bf8c8                ssh_ec_kex_curve25519
                0x004bf920                ssh_ecdsa_nistp521
                0x004bf960                sign_extra_nistp521
                0x004bf9a0                ssh_ecdsa_nistp384
                0x004bf9e0                sign_extra_nistp384
                0x004bfa20                ssh_ecdsa_nistp256
                0x004bfa60                sign_extra_nistp256
                0x004bfaa0                ssh_ecdsa_ed25519
                0x004bfae0                sign_extra_ed25519
 .rdata         0x004bfb00        0x8 sshgssc.o
 *fill*         0x004bfb08       0x18 
 .rdata         0x004bfb20      0x2c0 sshhmac.o
                0x004bfb80                ssh_hmac_sha1_96_buggy
                0x004bfbc4                ssh_hmac_sha1_96_buggy_extra
                0x004bfbe0                ssh_hmac_sha1_buggy
                0x004bfc20                ssh_hmac_sha1_buggy_extra
                0x004bfc60                ssh_hmac_sha1_96
                0x004bfc90                ssh_hmac_sha1_96_extra
                0x004bfcc0                ssh_hmac_sha1
                0x004bfcec                ssh_hmac_sha1_extra
                0x004bfd20                ssh_hmac_md5
                0x004bfd4c                ssh_hmac_md5_extra
                0x004bfda0                ssh_hmac_sha256
                0x004bfdcc                ssh_hmac_sha256_extra
 .rdata         0x004bfde0       0x2c sshmac.o
 *fill*         0x004bfe0c       0x14 
 .rdata         0x004bfe20       0x60 sshmd5.o
                0x004bfe40                ssh_md5
 .rdata         0x004bfe80       0x58 sshprng.o
 *fill*         0x004bfed8        0x8 
 .rdata         0x004bfee0      0x800 sshpubk.o
 .rdata         0x004c06e0       0x2c sshrand.o
 *fill*         0x004c070c       0x14 
 .rdata         0x004c0720      0x220 sshrsa.o
                0x004c087c                ssh_rsa_kex
                0x004c0900                ssh_rsa
 .rdata         0x004c0940      0x400 sshsh256.o
                0x004c09e0                ssh_sha256_hw
                0x004c0a40                ssh_sha256_sw
                0x004c0be0                ssh_sha256
 .rdata         0x004c0d40      0x3a0 sshsh512.o
                0x004c1060                ssh_sha384
                0x004c10a0                ssh_sha512
 .rdata         0x004c10e0      0x1e0 sshsha.o
                0x004c1160                ssh_sha1_hw
                0x004c11c0                ssh_sha1_sw
                0x004c1240                ssh_sha1
 .rdata         0x004c12c0      0x700 sshshare.o
 .rdata         0x004c19c0      0x694 sshverstring.o
 *fill*         0x004c2054        0xc 
 .rdata         0x004c2060      0x560 sshzlib.o
                0x004c21a0                ssh_zlib
 .rdata         0x004c25c0       0xa0 stripctrl.o
 .rdata         0x004c2660      0xac0 telnet.o
                0x004c2f60                telnet_backend
 .rdata         0x004c3120      0xfe0 terminal.o
                0x004c40ec                optionalrgb_none
                0x004c40f0                sel_nl
                0x004c40f4                sco2ansicolour
 .rdata         0x004c4100       0x30 tree234.o
 *fill*         0x004c4130       0x10 
 .rdata         0x004c4140      0x1c0 utils.o
 .rdata         0x004c4300       0x60 version.o
                0x004c4300                commitid
                0x004c432c                sshver
                0x004c433c                ver
 .rdata         0x004c4360      0xd80 wcwidth.o
 .rdata         0x004c50e0       0xfc wildcard.o
 .rdata         0x004c51dc      0x9a4 wincfg.o
 .rdata         0x004c5b80      0x5c8 winctrls.o
 .rdata         0x004c6148       0x38 windefs.o
 .rdata         0x004c6180      0xfe0 windlg.o
 .rdata         0x004c7160      0xb00 window.o
                0x004c7b74                win_seat
                0x004c7bc8                share_can_be_upstream
                0x004c7bc9                share_can_be_downstream
 .rdata         0x004c7c60        0x8 ava.o
 *fill*         0x004c7c68       0x18 
 .rdata         0x004c7c80      0x660 wingss.o
                0x004c8204                gss_mech_krb5
                0x004c8240                gsslibkeywords
                0x004c82c0                gsslibnames
                0x004c82cc                ngsslibs
 .rdata         0x004c82e0       0x88 winhandl.o
 *fill*         0x004c8368       0x18 
 .rdata         0x004c8380      0x100 winhsock.o
 .rdata         0x004c8480      0x17c winjump.o
 .rdata         0x004c85fc       0xbc winmisc.o
 *fill*         0x004c86b8        0x8 
 .rdata         0x004c86c0      0xae0 winnet.o
 .rdata         0x004c91a0       0x48 winnoise.o
 .rdata         0x004c91e8       0x6c winpgntc.o
 .rdata         0x004c9254       0xb0 winprint.o
 .rdata         0x004c9304       0x54 winproxy.o
 .rdata         0x004c9358       0x54 winsecur.o
 *fill*         0x004c93ac       0x14 
 .rdata         0x004c93c0      0x2c0 winser.o
                0x004c9620                serial_backend
 .rdata         0x004c9680      0x1f8 winstore.o
 *fill*         0x004c9878        0x8 
 .rdata         0x004c9880     0x1e20 winucs.o
 .rdata         0x004cb6a0      0x214 winutils.o
 .rdata         0x004cb8b4        0x4 winx11.o
                0x004cb8b4                platform_uses_x11_unix_by_default
 *fill*         0x004cb8b8        0x8 
 .rdata         0x004cb8c0      0x3c0 x11fwd.o
                0x004cbc70                x11_authnames
 .rdata         0x004cbc80        0x4 c:/mingw/bin/../lib/gcc/mingw32/6.3.0/../../../libmingw32.a(tlssup.o)
                0x004cbc80                __dyn_tls_init_callback
 .rdata         0x004cbc84       0xac c:/mingw/bin/../lib/gcc/mingw32/6.3.0/../../../libmingw32.a(pseudo-reloc.o)
 .rdata         0x004cbd30       0x1c c:/mingw/bin/../lib/gcc/mingw32/6.3.0/../../../libmingwex.a(strtodnrp.o)
 .rdata         0x004cbd4c       0x14 c:/mingw/bin/../lib/gcc/mingw32/6.3.0/../../../libmingwex.a(glob.o)
 .rdata         0x004cbd60        0x8 c:/mingw/bin/../lib/gcc/mingw32/6.3.0/../../../libmingwex.a(dirname.o)
 *fill*         0x004cbd68       0x18 
 .rdata         0x004cbd80      0x160 c:/mingw/bin/../lib/gcc/mingw32/6.3.0/../../../libmingwex.a(strtodg.o)
 .rdata         0x004cbee0      0x160 c:/mingw/bin/../lib/gcc/mingw32/6.3.0/../../../libmingwex.a(misc.o)
                0x004cbf00                __tens_D2A
                0x004cbfc0                __tinytens_D2A
                0x004cc000                __bigtens_D2A
 .rdata         0x004cc040      0x290 c:/mingw/bin/../lib/gcc/mingw32/6.3.0/../../../libmingwex.a(pformat.o)
 .rdata         0x004cc2d0       0x68 c:/mingw/bin/../lib/gcc/mingw32/6.3.0/../../../libmingwex.a(gdtoa.o)
 .rdata         0x004cc338       0x1c c:/mingw/bin/../lib/gcc/mingw32/6.3.0/../../../libmingwex.a(hd_init.o)
 *(SORT(.rdata$*))
 .rdata$zzz     0x004cc354       0x14 c:/mingw/bin/../lib/gcc/mingw32/6.3.0/../../../crt2.o
 .rdata$zzz     0x004cc368       0x14 c:/mingw/bin/../lib/gcc/mingw32/6.3.0/crtbegin.o
 .rdata$zzz     0x004cc37c       0x24 agentf.o
 .rdata$zzz     0x004cc3a0       0x24 aqsync.o
 .rdata$zzz     0x004cc3c4       0x24 be_all_s.o
 .rdata$zzz     0x004cc3e8       0x24 be_misc.o
 .rdata$zzz     0x004cc40c       0x24 callback.o
 .rdata$zzz     0x004cc430       0x24 cmdline.o
 .rdata$zzz     0x004cc454       0x24 conf.o
 .rdata$zzz     0x004cc478       0x24 config.o
 .rdata$zzz     0x004cc49c       0x24 cproxy.o
 .rdata$zzz     0x004cc4c0       0x24 dialog.o
 .rdata$zzz     0x004cc4e4       0x24 ecc.o
 .rdata$zzz     0x004cc508       0x24 errsock.o
 .rdata$zzz     0x004cc52c       0x24 ldisc.o
 .rdata$zzz     0x004cc550       0x24 logging.o
 .rdata$zzz     0x004cc574       0x24 mainchan.o
 .rdata$zzz     0x004cc598       0x24 marshal.o
 .rdata$zzz     0x004cc5bc       0x24 memory.o
 .rdata$zzz     0x004cc5e0       0x24 minibidi.o
 .rdata$zzz     0x004cc604       0x24 misc.o
 .rdata$zzz     0x004cc628       0x24 miscucs.o
 .rdata$zzz     0x004cc64c       0x24 mpint.o
 .rdata$zzz     0x004cc670       0x24 nullplug.o
 .rdata$zzz     0x004cc694       0x24 pgssapi.o
 .rdata$zzz     0x004cc6b8       0x24 pinger.o
 .rdata$zzz     0x004cc6dc       0x24 portfwd.o
 .rdata$zzz     0x004cc700       0x24 proxy.o
 .rdata$zzz     0x004cc724       0x24 raw.o
 .rdata$zzz     0x004cc748       0x24 rlogin.o
 .rdata$zzz     0x004cc76c       0x24 sercfg.o
 .rdata$zzz     0x004cc790       0x24 sessprep.o
 .rdata$zzz     0x004cc7b4       0x24 settings.o
 .rdata$zzz     0x004cc7d8       0x24 sizetip.o
 .rdata$zzz     0x004cc7fc       0x24 ssh.o
 .rdata$zzz     0x004cc820       0x24 ssh1bpp.o
 .rdata$zzz     0x004cc844       0x24 ssh1censor.o
 .rdata$zzz     0x004cc868       0x24 ssh1connection.o
 .rdata$zzz     0x004cc88c       0x24 ssh1connection-client.o
 .rdata$zzz     0x004cc8b0       0x24 ssh1login.o
 .rdata$zzz     0x004cc8d4       0x24 ssh2bpp.o
 .rdata$zzz     0x004cc8f8       0x24 ssh2bpp-bare.o
 .rdata$zzz     0x004cc91c       0x24 ssh2censor.o
 .rdata$zzz     0x004cc940       0x24 ssh2connection.o
 .rdata$zzz     0x004cc964       0x24 ssh2connection-client.o
 .rdata$zzz     0x004cc988       0x24 ssh2kex-client.o
 .rdata$zzz     0x004cc9ac       0x24 ssh2transhk.o
 .rdata$zzz     0x004cc9d0       0x24 ssh2transport.o
 .rdata$zzz     0x004cc9f4       0x24 ssh2userauth.o
 .rdata$zzz     0x004cca18       0x24 sshaes.o
 .rdata$zzz     0x004cca3c       0x24 ssharcf.o
 .rdata$zzz     0x004cca60       0x24 sshauxcrypt.o
 .rdata$zzz     0x004cca84       0x24 sshblowf.o
 .rdata$zzz     0x004ccaa8       0x24 sshccp.o
 .rdata$zzz     0x004ccacc       0x24 sshcommon.o
 .rdata$zzz     0x004ccaf0       0x24 sshcrc.o
 .rdata$zzz     0x004ccb14       0x24 sshcrcda.o
 .rdata$zzz     0x004ccb38       0x24 sshdes.o
 .rdata$zzz     0x004ccb5c       0x24 sshdh.o
 .rdata$zzz     0x004ccb80       0x24 sshdss.o
 .rdata$zzz     0x004ccba4       0x24 sshecc.o
 .rdata$zzz     0x004ccbc8       0x24 sshgssc.o
 .rdata$zzz     0x004ccbec       0x24 sshhmac.o
 .rdata$zzz     0x004ccc10       0x24 sshmac.o
 .rdata$zzz     0x004ccc34       0x24 sshmd5.o
 .rdata$zzz     0x004ccc58       0x24 sshprng.o
 .rdata$zzz     0x004ccc7c       0x24 sshpubk.o
 .rdata$zzz     0x004ccca0       0x24 sshrand.o
 .rdata$zzz     0x004cccc4       0x24 sshrsa.o
 .rdata$zzz     0x004ccce8       0x24 sshsh256.o
 .rdata$zzz     0x004ccd0c       0x24 sshsh512.o
 .rdata$zzz     0x004ccd30       0x24 sshsha.o
 .rdata$zzz     0x004ccd54       0x24 sshshare.o
 .rdata$zzz     0x004ccd78       0x24 sshverstring.o
 .rdata$zzz     0x004ccd9c       0x24 sshzlib.o
 .rdata$zzz     0x004ccdc0       0x24 stripctrl.o
 .rdata$zzz     0x004ccde4       0x24 telnet.o
 .rdata$zzz     0x004cce08       0x24 terminal.o
 .rdata$zzz     0x004cce2c       0x24 timing.o
 .rdata$zzz     0x004cce50       0x24 tree234.o
 .rdata$zzz     0x004cce74       0x24 utils.o
 .rdata$zzz     0x004cce98       0x24 version.o
 .rdata$zzz     0x004ccebc       0x24 wcwidth.o
 .rdata$zzz     0x004ccee0       0x24 wildcard.o
 .rdata$zzz     0x004ccf04       0x24 wincapi.o
 .rdata$zzz     0x004ccf28       0x24 wincfg.o
 .rdata$zzz     0x004ccf4c       0x24 winctrls.o
 .rdata$zzz     0x004ccf70       0x24 windefs.o
 .rdata$zzz     0x004ccf94       0x24 windlg.o
 .rdata$zzz     0x004ccfb8       0x24 window.o
 .rdata$zzz     0x004ccfdc       0x24 ava.o
 .rdata$zzz     0x004cd000       0x24 wingss.o
 .rdata$zzz     0x004cd024       0x24 winhandl.o
 .rdata$zzz     0x004cd048       0x24 winhelp.o
 .rdata$zzz     0x004cd06c       0x24 winhsock.o
 .rdata$zzz     0x004cd090       0x24 winjump.o
 .rdata$zzz     0x004cd0b4       0x24 winmisc.o
 .rdata$zzz     0x004cd0d8       0x24 winmiscs.o
 .rdata$zzz     0x004cd0fc       0x24 winnet.o
 .rdata$zzz     0x004cd120       0x24 winnoise.o
 .rdata$zzz     0x004cd144       0x24 winnpc.o
 .rdata$zzz     0x004cd168       0x24 winnps.o
 .rdata$zzz     0x004cd18c       0x24 winpgntc.o
 .rdata$zzz     0x004cd1b0       0x24 winprint.o
 .rdata$zzz     0x004cd1d4       0x24 winproxy.o
 .rdata$zzz     0x004cd1f8       0x24 winsecur.o
 .rdata$zzz     0x004cd21c       0x24 winser.o
 .rdata$zzz     0x004cd240       0x24 winshare.o
 .rdata$zzz     0x004cd264       0x24 winstore.o
 .rdata$zzz     0x004cd288       0x24 wintime.o
 .rdata$zzz     0x004cd2ac       0x24 winucs.o
 .rdata$zzz     0x004cd2d0       0x24 winutils.o
 .rdata$zzz     0x004cd2f4       0x24 winx11.o
 .rdata$zzz     0x004cd318       0x24 x11fwd.o
 .rdata$zzz     0x004cd33c       0x14 c:/mingw/bin/../lib/gcc/mingw32/6.3.0/../../../libmingw32.a(CRTglob.o)
 .rdata$zzz     0x004cd350       0x14 c:/mingw/bin/../lib/gcc/mingw32/6.3.0/../../../libmingw32.a(setargv.o)
 .rdata$zzz     0x004cd364       0x14 c:/mingw/bin/../lib/gcc/mingw32/6.3.0/../../../libmingw32.a(CRTfmode.o)
 .rdata$zzz     0x004cd378       0x14 c:/mingw/bin/../lib/gcc/mingw32/6.3.0/../../../libmingw32.a(CRT_fp10.o)
 .rdata$zzz     0x004cd38c       0x14 c:/mingw/bin/../lib/gcc/mingw32/6.3.0/../../../libmingw32.a(txtmode.o)
 .rdata$zzz     0x004cd3a0       0x14 c:/mingw/bin/../lib/gcc/mingw32/6.3.0/../../../libmingw32.a(main.o)
 .rdata$zzz     0x004cd3b4       0x14 c:/mingw/bin/../lib/gcc/mingw32/6.3.0/../../../libmingw32.a(gccmain.o)
 .rdata$zzz     0x004cd3c8       0x14 c:/mingw/bin/../lib/gcc/mingw32/6.3.0/../../../libmingw32.a(tlssup.o)
 .rdata$zzz     0x004cd3dc       0x14 c:/mingw/bin/../lib/gcc/mingw32/6.3.0/../../../libmingw32.a(tlsthrd.o)
 .rdata$zzz     0x004cd3f0       0x14 c:/mingw/bin/../lib/gcc/mingw32/6.3.0/../../../libmingw32.a(pseudo-reloc.o)
 .rdata$zzz     0x004cd404       0x14 c:/mingw/bin/../lib/gcc/mingw32/6.3.0/../../../libmingw32.a(pseudo-reloc-list.o)
 .rdata$zzz     0x004cd418       0x14 c:/mingw/bin/../lib/gcc/mingw32/6.3.0/../../../libmingw32.a(crtst.o)
 .rdata$zzz     0x004cd42c       0x14 c:/mingw/bin/../lib/gcc/mingw32/6.3.0/libgcc.a(_ctors.o)
 .rdata$zzz     0x004cd440       0x14 c:/mingw/bin/../lib/gcc/mingw32/6.3.0/libgcc.a(_udivdi3.o)
 .rdata$zzz     0x004cd454       0x14 c:/mingw/bin/../lib/gcc/mingw32/6.3.0/../../../libmingwex.a(fesetenv.o)
 .rdata$zzz     0x004cd468       0x14 c:/mingw/bin/../lib/gcc/mingw32/6.3.0/../../../libmingwex.a(strtodnrp.o)
 .rdata$zzz     0x004cd47c       0x14 c:/mingw/bin/../lib/gcc/mingw32/6.3.0/../../../libmingwex.a(vfprintf.o)
 .rdata$zzz     0x004cd490       0x14 c:/mingw/bin/../lib/gcc/mingw32/6.3.0/../../../libmingwex.a(vsnprintf.o)
 .rdata$zzz     0x004cd4a4       0x14 c:/mingw/bin/../lib/gcc/mingw32/6.3.0/../../../libmingwex.a(vsprintf.o)
 .rdata$zzz     0x004cd4b8       0x14 c:/mingw/bin/../lib/gcc/mingw32/6.3.0/../../../libmingwex.a(glob.o)
 .rdata$zzz     0x004cd4cc       0x14 c:/mingw/bin/../lib/gcc/mingw32/6.3.0/../../../libmingwex.a(dirname.o)
 .rdata$zzz     0x004cd4e0       0x14 c:/mingw/bin/../lib/gcc/mingw32/6.3.0/../../../libmingwex.a(dirent.o)
 .rdata$zzz     0x004cd4f4       0x14 c:/mingw/bin/../lib/gcc/mingw32/6.3.0/../../../libmingwex.a(mbrtowc.o)
 .rdata$zzz     0x004cd508       0x14 c:/mingw/bin/../lib/gcc/mingw32/6.3.0/../../../libmingwex.a(wcrtomb.o)
 .rdata$zzz     0x004cd51c       0x14 c:/mingw/bin/../lib/gcc/mingw32/6.3.0/../../../libmingwex.a(strtodg.o)
 .rdata$zzz     0x004cd530       0x14 c:/mingw/bin/../lib/gcc/mingw32/6.3.0/../../../libmingwex.a(hexnan.o)
 .rdata$zzz     0x004cd544       0x14 c:/mingw/bin/../lib/gcc/mingw32/6.3.0/../../../libmingwex.a(misc.o)
 .rdata$zzz     0x004cd558       0x14 c:/mingw/bin/../lib/gcc/mingw32/6.3.0/../../../libmingwex.a(pformat.o)
 .rdata$zzz     0x004cd56c       0x14 c:/mingw/bin/../lib/gcc/mingw32/6.3.0/../../../libmingwex.a(varofmt.o)
 .rdata$zzz     0x004cd580       0x14 c:/mingw/bin/../lib/gcc/mingw32/6.3.0/../../../libmingwex.a(gethex.o)
 .rdata$zzz     0x004cd594       0x14 c:/mingw/bin/../lib/gcc/mingw32/6.3.0/../../../libmingwex.a(gdtoa.o)
 .rdata$zzz     0x004cd5a8       0x14 c:/mingw/bin/../lib/gcc/mingw32/6.3.0/../../../libmingwex.a(gmisc.o)
 .rdata$zzz     0x004cd5bc       0x14 c:/mingw/bin/../lib/gcc/mingw32/6.3.0/../../../libmingwex.a(smisc.o)
 .rdata$zzz     0x004cd5d0       0x14 c:/mingw/bin/../lib/gcc/mingw32/6.3.0/../../../libmingwex.a(sum.o)
 .rdata$zzz     0x004cd5e4       0x14 c:/mingw/bin/../lib/gcc/mingw32/6.3.0/../../../libmingwex.a(hd_init.o)
 .rdata$zzz     0x004cd5f8       0x14 c:/mingw/bin/../lib/gcc/mingw32/6.3.0/../../../libmingwex.a(dmisc.o)
 .rdata$zzz     0x004cd60c       0x14 c:/mingw/bin/../lib/gcc/mingw32/6.3.0/libgcc.a(_umoddi3.o)
 .rdata$zzz     0x004cd620       0x14 c:/mingw/bin/../lib/gcc/mingw32/6.3.0/crtend.o
                0x004cd634                __rt_psrelocs_start = .
 *(.rdata_runtime_pseudo_reloc)
                0x004cd634                __rt_psrelocs_end = .
                0x00000000                __rt_psrelocs_size = (__rt_psrelocs_end - __rt_psrelocs_start)
                0x004cd634                ___RUNTIME_PSEUDO_RELOC_LIST_END__ = .
                0x004cd634                __RUNTIME_PSEUDO_RELOC_LIST_END__ = .
                0x004cd634                ___RUNTIME_PSEUDO_RELOC_LIST__ = (. - __rt_psrelocs_size)
                0x004cd634                __RUNTIME_PSEUDO_RELOC_LIST__ = (. - __rt_psrelocs_size)

.eh_frame       0x004ce000    0x1a600
 *(.eh_frame*)
 .eh_frame      0x004ce000       0xb8 c:/mingw/bin/../lib/gcc/mingw32/6.3.0/../../../crt2.o
 .eh_frame      0x004ce0b8       0x64 c:/mingw/bin/../lib/gcc/mingw32/6.3.0/crtbegin.o
                0x004ce0b8                __EH_FRAME_BEGIN__
 .eh_frame      0x004ce11c      0x178 agentf.o
 .eh_frame      0x004ce294       0x34 aqsync.o
 .eh_frame      0x004ce2c8       0xb8 be_misc.o
 .eh_frame      0x004ce380       0xe8 callback.o
 .eh_frame      0x004ce468      0x16c cmdline.o
 .eh_frame      0x004ce5d4      0x534 conf.o
 .eh_frame      0x004ceb08      0xa5c config.o
 .eh_frame      0x004cf564      0x100 cproxy.o
 .eh_frame      0x004cf664      0x564 dialog.o
 .eh_frame      0x004cfbc8      0x91c ecc.o
 .eh_frame      0x004d04e4       0x98 errsock.o
 .eh_frame      0x004d057c      0x1a0 ldisc.o
 .eh_frame      0x004d071c      0x348 logging.o
 .eh_frame      0x004d0a64      0x460 mainchan.o
 .eh_frame      0x004d0ec4      0x3cc marshal.o
 .eh_frame      0x004d1290       0xc4 memory.o
 .eh_frame      0x004d1354       0xe0 minibidi.o
 .eh_frame      0x004d1434      0x3e0 misc.o
 .eh_frame      0x004d1814       0x74 miscucs.o
 .eh_frame      0x004d1888     0x1360 mpint.o
 .eh_frame      0x004d2be8       0x68 nullplug.o
 .eh_frame      0x004d2c50       0xf8 pinger.o
 .eh_frame      0x004d2d48      0x550 portfwd.o
 .eh_frame      0x004d3298      0x60c proxy.o
 .eh_frame      0x004d38a4      0x264 raw.o
 .eh_frame      0x004d3b08      0x2c4 rlogin.o
 .eh_frame      0x004d3dcc      0x108 sercfg.o
 .eh_frame      0x004d3ed4       0x58 sessprep.o
 .eh_frame      0x004d3f2c      0x574 settings.o
 .eh_frame      0x004d44a0      0x224 sizetip.o
 .eh_frame      0x004d46c4      0x70c ssh.o
 .eh_frame      0x004d4dd0      0x200 ssh1bpp.o
 .eh_frame      0x004d4fd0       0x70 ssh1censor.o
 .eh_frame      0x004d5040      0x5d0 ssh1connection.o
 .eh_frame      0x004d5610      0x488 ssh1connection-client.o
 .eh_frame      0x004d5a98      0x1d0 ssh1login.o
 .eh_frame      0x004d5c68      0x314 ssh2bpp.o
 .eh_frame      0x004d5f7c      0x140 ssh2bpp-bare.o
 .eh_frame      0x004d60bc       0x50 ssh2censor.o
 .eh_frame      0x004d610c      0x8e8 ssh2connection.o
 .eh_frame      0x004d69f4      0x48c ssh2connection-client.o
 .eh_frame      0x004d6e80       0x70 ssh2kex-client.o
 .eh_frame      0x004d6ef0      0x134 ssh2transhk.o
 .eh_frame      0x004d7024      0x508 ssh2transport.o
 .eh_frame      0x004d752c      0x2d4 ssh2userauth.o
 .eh_frame      0x004d7800      0x5b4 sshaes.o
 .eh_frame      0x004d7db4       0xf8 ssharcf.o
 .eh_frame      0x004d7eac      0x300 sshauxcrypt.o
 .eh_frame      0x004d81ac      0x348 sshblowf.o
 .eh_frame      0x004d84f4      0x304 sshccp.o
 .eh_frame      0x004d87f8      0x908 sshcommon.o
 .eh_frame      0x004d9100       0x78 sshcrc.o
 .eh_frame      0x004d9178      0x10c sshcrcda.o
 .eh_frame      0x004d9284      0x4a0 sshdes.o
 .eh_frame      0x004d9724      0x178 sshdh.o
 .eh_frame      0x004d989c      0x2d8 sshdss.o
 .eh_frame      0x004d9b74      0xb34 sshecc.o
 .eh_frame      0x004da6a8      0x268 sshgssc.o
 .eh_frame      0x004da910      0x13c sshhmac.o
 .eh_frame      0x004daa4c       0xc0 sshmac.o
 .eh_frame      0x004dab0c      0x168 sshmd5.o
 .eh_frame      0x004dac74      0x198 sshprng.o
 .eh_frame      0x004dae0c      0x764 sshpubk.o
 .eh_frame      0x004db570      0x194 sshrand.o
 .eh_frame      0x004db704      0x6c4 sshrsa.o
 .eh_frame      0x004dbdc8      0x280 sshsh256.o
 .eh_frame      0x004dc048      0x254 sshsh512.o
 .eh_frame      0x004dc29c      0x278 sshsha.o
 .eh_frame      0x004dc514      0x700 sshshare.o
 .eh_frame      0x004dcc14      0x1c0 sshverstring.o
 .eh_frame      0x004dcdd4      0x2ec sshzlib.o
 .eh_frame      0x004dd0c0      0x198 stripctrl.o
 .eh_frame      0x004dd258      0x41c telnet.o
 .eh_frame      0x004dd674     0x1754 terminal.o
 .eh_frame      0x004dedc8      0x114 timing.o
 .eh_frame      0x004deedc      0x2c0 tree234.o
 .eh_frame      0x004df19c      0x9bc utils.o
 .eh_frame      0x004dfb58      0x120 wcwidth.o
 .eh_frame      0x004dfc78      0x18c wildcard.o
 .eh_frame      0x004dfe04       0xf8 wincfg.o
 .eh_frame      0x004dfefc     0x1220 winctrls.o
 .eh_frame      0x004e111c       0xd8 windefs.o
 .eh_frame      0x004e11f4      0x788 windlg.o
 .eh_frame      0x004e197c     0x19f4 window.o
 .eh_frame      0x004e3370       0xf8 ava.o
 .eh_frame      0x004e3468      0x384 wingss.o
 .eh_frame      0x004e37ec      0x3d8 winhandl.o
 .eh_frame      0x004e3bc4       0x7c winhelp.o
 .eh_frame      0x004e3c40      0x270 winhsock.o
 .eh_frame      0x004e3eb0      0x280 winjump.o
 .eh_frame      0x004e4130      0x44c winmisc.o
 .eh_frame      0x004e457c       0x38 winmiscs.o
 .eh_frame      0x004e45b4      0x8f8 winnet.o
 .eh_frame      0x004e4eac      0x174 winnoise.o
 .eh_frame      0x004e5020       0xc8 winpgntc.o
 .eh_frame      0x004e50e8      0x1b8 winprint.o
 .eh_frame      0x004e52a0       0xec winproxy.o
 .eh_frame      0x004e538c       0x2c winsecur.o
 .eh_frame      0x004e53b8      0x308 winser.o
 .eh_frame      0x004e56c0       0x40 winshare.o
 .eh_frame      0x004e5700      0x768 winstore.o
 .eh_frame      0x004e5e68       0x48 wintime.o
 .eh_frame      0x004e5eb0      0x2fc winucs.o
 .eh_frame      0x004e61ac      0x1b4 winutils.o
 .eh_frame      0x004e6360       0x44 winx11.o
 .eh_frame      0x004e63a4      0x50c x11fwd.o
 .eh_frame      0x004e68b0       0x58 c:/mingw/bin/../lib/gcc/mingw32/6.3.0/../../../libmingw32.a(setargv.o)
 .eh_frame      0x004e6908       0x40 c:/mingw/bin/../lib/gcc/mingw32/6.3.0/../../../libmingw32.a(cpu_features.o)
 .eh_frame      0x004e6948       0x58 c:/mingw/bin/../lib/gcc/mingw32/6.3.0/../../../libmingw32.a(main.o)
 .eh_frame      0x004e69a0       0x68 c:/mingw/bin/../lib/gcc/mingw32/6.3.0/../../../libmingw32.a(gccmain.o)
 .eh_frame      0x004e6a08       0x88 c:/mingw/bin/../lib/gcc/mingw32/6.3.0/../../../libmingw32.a(tlssup.o)
 .eh_frame      0x004e6a90      0x108 c:/mingw/bin/../lib/gcc/mingw32/6.3.0/../../../libmingw32.a(tlsthrd.o)
 .eh_frame      0x004e6b98       0xd8 c:/mingw/bin/../lib/gcc/mingw32/6.3.0/../../../libmingw32.a(pseudo-reloc.o)
 .eh_frame      0x004e6c70       0x9c c:/mingw/bin/../lib/gcc/mingw32/6.3.0/libgcc.a(_udivdi3.o)
 .eh_frame      0x004e6d0c       0x34 c:/mingw/bin/../lib/gcc/mingw32/6.3.0/../../../libmingwex.a(fesetenv.o)
 .eh_frame      0x004e6d40       0x34 c:/mingw/bin/../lib/gcc/mingw32/6.3.0/../../../libmingwex.a(strtodnrp.o)
 .eh_frame      0x004e6d74       0x30 c:/mingw/bin/../lib/gcc/mingw32/6.3.0/../../../libmingwex.a(vfprintf.o)
 .eh_frame      0x004e6da4       0x50 c:/mingw/bin/../lib/gcc/mingw32/6.3.0/../../../libmingwex.a(vsnprintf.o)
 .eh_frame      0x004e6df4       0x38 c:/mingw/bin/../lib/gcc/mingw32/6.3.0/../../../libmingwex.a(vsprintf.o)
 .eh_frame      0x004e6e2c      0x25c c:/mingw/bin/../lib/gcc/mingw32/6.3.0/../../../libmingwex.a(glob.o)
 .eh_frame      0x004e7088       0x58 c:/mingw/bin/../lib/gcc/mingw32/6.3.0/../../../libmingwex.a(dirname.o)
 .eh_frame      0x004e70e0      0x1c4 c:/mingw/bin/../lib/gcc/mingw32/6.3.0/../../../libmingwex.a(dirent.o)
 .eh_frame      0x004e72a4      0x130 c:/mingw/bin/../lib/gcc/mingw32/6.3.0/../../../libmingwex.a(mbrtowc.o)
 .eh_frame      0x004e73d4       0xf8 c:/mingw/bin/../lib/gcc/mingw32/6.3.0/../../../libmingwex.a(wcrtomb.o)
 .eh_frame      0x004e74cc      0x124 c:/mingw/bin/../lib/gcc/mingw32/6.3.0/../../../libmingwex.a(strtodg.o)
 .eh_frame      0x004e75f0       0x84 c:/mingw/bin/../lib/gcc/mingw32/6.3.0/../../../libmingwex.a(hexnan.o)
 .eh_frame      0x004e7674      0x380 c:/mingw/bin/../lib/gcc/mingw32/6.3.0/../../../libmingwex.a(misc.o)
 .eh_frame      0x004e79f4      0x4e0 c:/mingw/bin/../lib/gcc/mingw32/6.3.0/../../../libmingwex.a(pformat.o)
 .eh_frame      0x004e7ed4       0xa0 c:/mingw/bin/../lib/gcc/mingw32/6.3.0/../../../libmingwex.a(gethex.o)
 .eh_frame      0x004e7f74       0xa0 c:/mingw/bin/../lib/gcc/mingw32/6.3.0/../../../libmingwex.a(gdtoa.o)
 .eh_frame      0x004e8014       0x98 c:/mingw/bin/../lib/gcc/mingw32/6.3.0/../../../libmingwex.a(gmisc.o)
 .eh_frame      0x004e80ac      0x138 c:/mingw/bin/../lib/gcc/mingw32/6.3.0/../../../libmingwex.a(smisc.o)
 .eh_frame      0x004e81e4       0x58 c:/mingw/bin/../lib/gcc/mingw32/6.3.0/../../../libmingwex.a(sum.o)
 .eh_frame      0x004e823c       0x2c c:/mingw/bin/../lib/gcc/mingw32/6.3.0/../../../libmingwex.a(hd_init.o)
 .eh_frame      0x004e8268       0xc4 c:/mingw/bin/../lib/gcc/mingw32/6.3.0/../../../libmingwex.a(dmisc.o)
 .eh_frame      0x004e832c       0x9c c:/mingw/bin/../lib/gcc/mingw32/6.3.0/libgcc.a(_umoddi3.o)
 .eh_frame      0x004e83c8       0x3c c:/mingw/bin/../lib/gcc/mingw32/6.3.0/crtend.o

.pdata
 *(.pdata*)

.bss            0x004e9000     0x4cc0
                0x004e9000                __bss_start__ = .
 *(.bss)
 .bss           0x004e9000        0x8 c:/mingw/bin/../lib/gcc/mingw32/6.3.0/../../../crt2.o
                0x004e9000                _argv
                0x004e9004                _argc
 .bss           0x004e9008       0x18 c:/mingw/bin/../lib/gcc/mingw32/6.3.0/crtbegin.o
 .bss           0x004e9020        0x0 agentf.o
 .bss           0x004e9020        0x0 aqsync.o
 .bss           0x004e9020        0x0 be_all_s.o
 .bss           0x004e9020        0x0 be_misc.o
 .bss           0x004e9020       0x14 callback.o
                0x004e9020                notify_ctx
                0x004e9024                notify_frontend
                0x004e9028                cbtail
                0x004e902c                cbhead
                0x004e9030                cbcurr
 .bss           0x004e9034       0x24 cmdline.o
                0x004e9034                cmdline_tooltype
 .bss           0x004e9058        0x0 conf.o
 .bss           0x004e9058        0x0 config.o
 .bss           0x004e9058        0x0 cproxy.o
 .bss           0x004e9058        0x0 dialog.o
 .bss           0x004e9058        0x0 ecc.o
 .bss           0x004e9058        0x0 errsock.o
 .bss           0x004e9058        0x0 ldisc.o
 .bss           0x004e9058        0x0 logging.o
 .bss           0x004e9058        0x0 mainchan.o
 .bss           0x004e9058        0x0 marshal.o
 .bss           0x004e9058        0x0 memory.o
 .bss           0x004e9058        0x0 minibidi.o
 .bss           0x004e9058        0x0 misc.o
 .bss           0x004e9058        0x0 miscucs.o
 .bss           0x004e9058        0x0 mpint.o
 .bss           0x004e9058        0x0 nullplug.o
 .bss           0x004e9058        0x0 pgssapi.o
 .bss           0x004e9058        0x0 pinger.o
 .bss           0x004e9058        0x0 portfwd.o
 .bss           0x004e9058        0x0 proxy.o
 .bss           0x004e9058        0x0 raw.o
 .bss           0x004e9058        0x0 rlogin.o
 .bss           0x004e9058        0x0 sercfg.o
 .bss           0x004e9058        0x0 sessprep.o
 .bss           0x004e9058        0x0 settings.o
 .bss           0x004e9058       0x18 sizetip.o
 .bss           0x004e9070        0x0 ssh.o
 .bss           0x004e9070        0x0 ssh1bpp.o
 .bss           0x004e9070        0x0 ssh1censor.o
 .bss           0x004e9070        0x0 ssh1connection.o
 .bss           0x004e9070        0x0 ssh1connection-client.o
 .bss           0x004e9070        0x0 ssh1login.o
 .bss           0x004e9070        0x0 ssh2bpp.o
 .bss           0x004e9070        0x0 ssh2bpp-bare.o
 .bss           0x004e9070        0x0 ssh2censor.o
 .bss           0x004e9070        0x0 ssh2connection.o
 .bss           0x004e9070        0x0 ssh2connection-client.o
 .bss           0x004e9070        0x0 ssh2kex-client.o
 .bss           0x004e9070        0x0 ssh2transhk.o
 .bss           0x004e9070        0x0 ssh2transport.o
 .bss           0x004e9070        0x0 ssh2userauth.o
 .bss           0x004e9070        0x4 sshaes.o
 .bss           0x004e9074        0x0 ssharcf.o
 .bss           0x004e9074        0x0 sshauxcrypt.o
 .bss           0x004e9074        0x0 sshblowf.o
 .bss           0x004e9074        0x0 sshccp.o
 .bss           0x004e9074        0x0 sshcommon.o
 .bss           0x004e9074        0x0 sshcrc.o
 .bss           0x004e9074        0x4 sshcrcda.o
                0x004e9074                ZERO
 .bss           0x004e9078        0x0 sshdes.o
 .bss           0x004e9078        0x0 sshdh.o
 .bss           0x004e9078        0x0 sshdss.o
 *fill*         0x004e9078        0x8 
 .bss           0x004e9080      0x140 sshecc.o
 .bss           0x004e91c0        0x0 sshgssc.o
 .bss           0x004e91c0        0x0 sshhmac.o
 .bss           0x004e91c0        0x0 sshmac.o
 .bss           0x004e91c0        0x0 sshmd5.o
 .bss           0x004e91c0        0x0 sshprng.o
 .bss           0x004e91c0        0x8 sshpubk.o
                0x004e91c0                ssh2_wrong_passphrase
 .bss           0x004e91c8       0x10 sshrand.o
                0x004e91c8                random_active
 .bss           0x004e91d8        0x0 sshrsa.o
 .bss           0x004e91d8        0x4 sshsh256.o
 .bss           0x004e91dc        0x0 sshsh512.o
 .bss           0x004e91dc        0x4 sshsha.o
 .bss           0x004e91e0        0x0 sshshare.o
 .bss           0x004e91e0        0x0 sshverstring.o
 .bss           0x004e91e0        0x0 sshzlib.o
 .bss           0x004e91e0        0x0 stripctrl.o
 .bss           0x004e91e0        0x0 telnet.o
 .bss           0x004e91e0        0x4 terminal.o
                0x004e91e0                integral
 .bss           0x004e91e4        0xc timing.o
 .bss           0x004e91f0        0x0 tree234.o
 .bss           0x004e91f0        0x0 utils.o
 .bss           0x004e91f0        0x0 version.o
 .bss           0x004e91f0        0x0 wcwidth.o
 .bss           0x004e91f0        0x0 wildcard.o
 .bss           0x004e91f0        0x0 wincapi.o
 .bss           0x004e91f0        0x0 wincfg.o
 *fill*         0x004e91f0       0x10 
 .bss           0x004e9200       0x80 winctrls.o
 .bss           0x004e9280        0x0 windefs.o
 .bss           0x004e9280      0x520 windlg.o
 .bss           0x004e97a0     0x1540 window.o
 .bss           0x004eace0        0x4 ava.o
                0x004eace0                vermelho23
                0x004eace1                vermelho22
 .bss           0x004eace4       0x2c wingss.o
                0x004eace4                gsslogmsg
 .bss           0x004ead10        0x4 winhandl.o
 .bss           0x004ead14        0x0 winhelp.o
 .bss           0x004ead14        0x8 winhsock.o
 *fill*         0x004ead1c        0x4 
 .bss           0x004ead20      0x820 winjump.o
 .bss           0x004eb540       0x24 winmisc.o
 .bss           0x004eb564        0x0 winmiscs.o
 *fill*         0x004eb564       0x1c 
 .bss           0x004eb580      0x6e0 winnet.o
 .bss           0x004ebc60       0x10 winnoise.o
 .bss           0x004ebc70        0x0 winnpc.o
 .bss           0x004ebc70        0x0 winnps.o
 .bss           0x004ebc70        0x0 winpgntc.o
 .bss           0x004ebc70       0x24 winprint.o
 .bss           0x004ebc94        0x0 winproxy.o
 .bss           0x004ebc94        0x0 winsecur.o
 .bss           0x004ebc94        0x0 winser.o
 .bss           0x004ebc94        0x0 winshare.o
 .bss           0x004ebc94        0x8 winstore.o
 .bss           0x004ebc9c        0x0 wintime.o
 *fill*         0x004ebc9c        0x4 
 .bss           0x004ebca0       0x40 winucs.o
 .bss           0x004ebce0        0x0 winutils.o
 .bss           0x004ebce0        0x0 winx11.o
 .bss           0x004ebce0        0x0 x11fwd.o
 .bss           0x004ebce0        0x0 c:/mingw/bin/../lib/gcc/mingw32/6.3.0/../../../libadvapi32.a(dchcs00434.o)
 .bss           0x004ebce0        0x0 c:/mingw/bin/../lib/gcc/mingw32/6.3.0/../../../libadvapi32.a(dchcs00423.o)
 .bss           0x004ebce0        0x0 c:/mingw/bin/../lib/gcc/mingw32/6.3.0/../../../libadvapi32.a(dchcs00412.o)
 .bss           0x004ebce0        0x0 c:/mingw/bin/../lib/gcc/mingw32/6.3.0/../../../libadvapi32.a(dchcs00400.o)
 .bss           0x004ebce0        0x0 c:/mingw/bin/../lib/gcc/mingw32/6.3.0/../../../libadvapi32.a(dchcs00397.o)
 .bss           0x004ebce0        0x0 c:/mingw/bin/../lib/gcc/mingw32/6.3.0/../../../libadvapi32.a(dchcs00393.o)
 .bss           0x004ebce0        0x0 c:/mingw/bin/../lib/gcc/mingw32/6.3.0/../../../libadvapi32.a(dchcs00390.o)
 .bss           0x004ebce0        0x0 c:/mingw/bin/../lib/gcc/mingw32/6.3.0/../../../libadvapi32.a(dchcs00389.o)
 .bss           0x004ebce0        0x0 c:/mingw/bin/../lib/gcc/mingw32/6.3.0/../../../libadvapi32.a(dchcs00386.o)
 .bss           0x004ebce0        0x0 c:/mingw/bin/../lib/gcc/mingw32/6.3.0/../../../libadvapi32.a(dchcs00245.o)
 .bss           0x004ebce0        0x0 c:/mingw/bin/../lib/gcc/mingw32/6.3.0/../../../libadvapi32.a(dchch.o)
 .bss           0x004ebce0        0x0 c:/mingw/bin/../lib/gcc/mingw32/6.3.0/../../../libadvapi32.a(dchct.o)
 .bss           0x004ebce0        0x0 c:/mingw/bin/../lib/gcc/mingw32/6.3.0/../../../libcomdlg32.a(duhcs00011.o)
 .bss           0x004ebce0        0x0 c:/mingw/bin/../lib/gcc/mingw32/6.3.0/../../../libcomdlg32.a(duhcs00009.o)
 .bss           0x004ebce0        0x0 c:/mingw/bin/../lib/gcc/mingw32/6.3.0/../../../libcomdlg32.a(duhcs00002.o)
 .bss           0x004ebce0        0x0 c:/mingw/bin/../lib/gcc/mingw32/6.3.0/../../../libcomdlg32.a(duhcs00000.o)
 .bss           0x004ebce0        0x0 c:/mingw/bin/../lib/gcc/mingw32/6.3.0/../../../libcomdlg32.a(duhch.o)
 .bss           0x004ebce0        0x0 c:/mingw/bin/../lib/gcc/mingw32/6.3.0/../../../libcomdlg32.a(duhct.o)
 .bss           0x004ebce0        0x0 c:/mingw/bin/../lib/gcc/mingw32/6.3.0/../../../libgdi32.a(dpics00343.o)
 .bss           0x004ebce0        0x0 c:/mingw/bin/../lib/gcc/mingw32/6.3.0/../../../libgdi32.a(dpics00342.o)
 .bss           0x004ebce0        0x0 c:/mingw/bin/../lib/gcc/mingw32/6.3.0/../../../libgdi32.a(dpics00341.o)
 .bss           0x004ebce0        0x0 c:/mingw/bin/../lib/gcc/mingw32/6.3.0/../../../libgdi32.a(dpics00339.o)
 .bss           0x004ebce0        0x0 c:/mingw/bin/../lib/gcc/mingw32/6.3.0/../../../libgdi32.a(dpics00323.o)
 .bss           0x004ebce0        0x0 c:/mingw/bin/../lib/gcc/mingw32/6.3.0/../../../libgdi32.a(dpics00321.o)
 .bss           0x004ebce0        0x0 c:/mingw/bin/../lib/gcc/mingw32/6.3.0/../../../libgdi32.a(dpics00312.o)
 .bss           0x004ebce0        0x0 c:/mingw/bin/../lib/gcc/mingw32/6.3.0/../../../libgdi32.a(dpics00311.o)
 .bss           0x004ebce0        0x0 c:/mingw/bin/../lib/gcc/mingw32/6.3.0/../../../libgdi32.a(dpics00306.o)
 .bss           0x004ebce0        0x0 c:/mingw/bin/../lib/gcc/mingw32/6.3.0/../../../libgdi32.a(dpics00288.o)
 .bss           0x004ebce0        0x0 c:/mingw/bin/../lib/gcc/mingw32/6.3.0/../../../libgdi32.a(dpics00287.o)
 .bss           0x004ebce0        0x0 c:/mingw/bin/../lib/gcc/mingw32/6.3.0/../../../libgdi32.a(dpics00282.o)
 .bss           0x004ebce0        0x0 c:/mingw/bin/../lib/gcc/mingw32/6.3.0/../../../libgdi32.a(dpics00281.o)
 .bss           0x004ebce0        0x0 c:/mingw/bin/../lib/gcc/mingw32/6.3.0/../../../libgdi32.a(dpics00263.o)
 .bss           0x004ebce0        0x0 c:/mingw/bin/../lib/gcc/mingw32/6.3.0/../../../libgdi32.a(dpics00260.o)
 .bss           0x004ebce0        0x0 c:/mingw/bin/../lib/gcc/mingw32/6.3.0/../../../libgdi32.a(dpics00256.o)
 .bss           0x004ebce0        0x0 c:/mingw/bin/../lib/gcc/mingw32/6.3.0/../../../libgdi32.a(dpics00234.o)
 .bss           0x004ebce0        0x0 c:/mingw/bin/../lib/gcc/mingw32/6.3.0/../../../libgdi32.a(dpics00231.o)
 .bss           0x004ebce0        0x0 c:/mingw/bin/../lib/gcc/mingw32/6.3.0/../../../libgdi32.a(dpics00227.o)
 .bss           0x004ebce0        0x0 c:/mingw/bin/../lib/gcc/mingw32/6.3.0/../../../libgdi32.a(dpics00219.o)
 .bss           0x004ebce0        0x0 c:/mingw/bin/../lib/gcc/mingw32/6.3.0/../../../libgdi32.a(dpics00213.o)
 .bss           0x004ebce0        0x0 c:/mingw/bin/../lib/gcc/mingw32/6.3.0/../../../libgdi32.a(dpics00210.o)
 .bss           0x004ebce0        0x0 c:/mingw/bin/../lib/gcc/mingw32/6.3.0/../../../libgdi32.a(dpics00201.o)
 .bss           0x004ebce0        0x0 c:/mingw/bin/../lib/gcc/mingw32/6.3.0/../../../libgdi32.a(dpics00192.o)
 .bss           0x004ebce0        0x0 c:/mingw/bin/../lib/gcc/mingw32/6.3.0/../../../libgdi32.a(dpics00185.o)
 .bss           0x004ebce0        0x0 c:/mingw/bin/../lib/gcc/mingw32/6.3.0/../../../libgdi32.a(dpics00148.o)
 .bss           0x004ebce0        0x0 c:/mingw/bin/../lib/gcc/mingw32/6.3.0/../../../libgdi32.a(dpics00136.o)
 .bss           0x004ebce0        0x0 c:/mingw/bin/../lib/gcc/mingw32/6.3.0/../../../libgdi32.a(dpics00134.o)
 .bss           0x004ebce0        0x0 c:/mingw/bin/../lib/gcc/mingw32/6.3.0/../../../libgdi32.a(dpics00131.o)
 .bss           0x004ebce0        0x0 c:/mingw/bin/../lib/gcc/mingw32/6.3.0/../../../libgdi32.a(dpics00130.o)
 .bss           0x004ebce0        0x0 c:/mingw/bin/../lib/gcc/mingw32/6.3.0/../../../libgdi32.a(dpics00129.o)
 .bss           0x004ebce0        0x0 c:/mingw/bin/../lib/gcc/mingw32/6.3.0/../../../libgdi32.a(dpics00126.o)
 .bss           0x004ebce0        0x0 c:/mingw/bin/../lib/gcc/mingw32/6.3.0/../../../libgdi32.a(dpics00122.o)
 .bss           0x004ebce0        0x0 c:/mingw/bin/../lib/gcc/mingw32/6.3.0/../../../libgdi32.a(dpics00103.o)
 .bss           0x004ebce0        0x0 c:/mingw/bin/../lib/gcc/mingw32/6.3.0/../../../libgdi32.a(dpics00102.o)
 .bss           0x004ebce0        0x0 c:/mingw/bin/../lib/gcc/mingw32/6.3.0/../../../libgdi32.a(dpics00096.o)
 .bss           0x004ebce0        0x0 c:/mingw/bin/../lib/gcc/mingw32/6.3.0/../../../libgdi32.a(dpics00073.o)
 .bss           0x004ebce0        0x0 c:/mingw/bin/../lib/gcc/mingw32/6.3.0/../../../libgdi32.a(dpics00070.o)
 .bss           0x004ebce0        0x0 c:/mingw/bin/../lib/gcc/mingw32/6.3.0/../../../libgdi32.a(dpics00067.o)
 .bss           0x004ebce0        0x0 c:/mingw/bin/../lib/gcc/mingw32/6.3.0/../../../libgdi32.a(dpics00058.o)
 .bss           0x004ebce0        0x0 c:/mingw/bin/../lib/gcc/mingw32/6.3.0/../../../libgdi32.a(dpics00056.o)
 .bss           0x004ebce0        0x0 c:/mingw/bin/../lib/gcc/mingw32/6.3.0/../../../libgdi32.a(dpics00047.o)
 .bss           0x004ebce0        0x0 c:/mingw/bin/../lib/gcc/mingw32/6.3.0/../../../libgdi32.a(dpics00046.o)
 .bss           0x004ebce0        0x0 c:/mingw/bin/../lib/gcc/mingw32/6.3.0/../../../libgdi32.a(dpics00034.o)
 .bss           0x004ebce0        0x0 c:/mingw/bin/../lib/gcc/mingw32/6.3.0/../../../libgdi32.a(dpics00033.o)
 .bss           0x004ebce0        0x0 c:/mingw/bin/../lib/gcc/mingw32/6.3.0/../../../libgdi32.a(dpics00028.o)
 .bss           0x004ebce0        0x0 c:/mingw/bin/../lib/gcc/mingw32/6.3.0/../../../libgdi32.a(dpich.o)
 .bss           0x004ebce0        0x0 c:/mingw/bin/../lib/gcc/mingw32/6.3.0/../../../libgdi32.a(dpict.o)
 .bss           0x004ebce0        0x0 c:/mingw/bin/../lib/gcc/mingw32/6.3.0/../../../libimm32.a(dojcs00065.o)
 .bss           0x004ebce0        0x0 c:/mingw/bin/../lib/gcc/mingw32/6.3.0/../../../libimm32.a(dojcs00061.o)
 .bss           0x004ebce0        0x0 c:/mingw/bin/../lib/gcc/mingw32/6.3.0/../../../libimm32.a(dojcs00059.o)
 .bss           0x004ebce0        0x0 c:/mingw/bin/../lib/gcc/mingw32/6.3.0/../../../libimm32.a(dojcs00025.o)
 .bss           0x004ebce0        0x0 c:/mingw/bin/../lib/gcc/mingw32/6.3.0/../../../libimm32.a(dojcs00023.o)
 .bss           0x004ebce0        0x0 c:/mingw/bin/../lib/gcc/mingw32/6.3.0/../../../libimm32.a(dojch.o)
 .bss           0x004ebce0        0x0 c:/mingw/bin/../lib/gcc/mingw32/6.3.0/../../../libimm32.a(dojct.o)
 .bss           0x004ebce0        0x0 c:/mingw/bin/../lib/gcc/mingw32/6.3.0/../../../libole32.a(damcs00072.o)
 .bss           0x004ebce0        0x0 c:/mingw/bin/../lib/gcc/mingw32/6.3.0/../../../libole32.a(damcs00037.o)
 .bss           0x004ebce0        0x0 c:/mingw/bin/../lib/gcc/mingw32/6.3.0/../../../libole32.a(damcs00012.o)
 .bss           0x004ebce0        0x0 c:/mingw/bin/../lib/gcc/mingw32/6.3.0/../../../libole32.a(damch.o)
 .bss           0x004ebce0        0x0 c:/mingw/bin/../lib/gcc/mingw32/6.3.0/../../../libole32.a(damct.o)
 .bss           0x004ebce0        0x0 c:/mingw/bin/../lib/gcc/mingw32/6.3.0/../../../libshell32.a(duocs00144.o)
 .bss           0x004ebce0        0x0 c:/mingw/bin/../lib/gcc/mingw32/6.3.0/../../../libshell32.a(duoch.o)
 .bss           0x004ebce0        0x0 c:/mingw/bin/../lib/gcc/mingw32/6.3.0/../../../libshell32.a(duoct.o)
 .bss           0x004ebce0        0x0 c:/mingw/bin/../lib/gcc/mingw32/6.3.0/../../../libuser32.a(dtpcs00622.o)
 .bss           0x004ebce0        0x0 c:/mingw/bin/../lib/gcc/mingw32/6.3.0/../../../libuser32.a(dtpcs00608.o)
 .bss           0x004ebce0        0x0 c:/mingw/bin/../lib/gcc/mingw32/6.3.0/../../../libuser32.a(dtpcs00602.o)
 .bss           0x004ebce0        0x0 c:/mingw/bin/../lib/gcc/mingw32/6.3.0/../../../libuser32.a(dtpcs00598.o)
 .bss           0x004ebce0        0x0 c:/mingw/bin/../lib/gcc/mingw32/6.3.0/../../../libuser32.a(dtpcs00591.o)
 .bss           0x004ebce0        0x0 c:/mingw/bin/../lib/gcc/mingw32/6.3.0/../../../libuser32.a(dtpcs00585.o)
 .bss           0x004ebce0        0x0 c:/mingw/bin/../lib/gcc/mingw32/6.3.0/../../../libuser32.a(dtpcs00582.o)
 .bss           0x004ebce0        0x0 c:/mingw/bin/../lib/gcc/mingw32/6.3.0/../../../libuser32.a(dtpcs00581.o)
 .bss           0x004ebce0        0x0 c:/mingw/bin/../lib/gcc/mingw32/6.3.0/../../../libuser32.a(dtpcs00574.o)
 .bss           0x004ebce0        0x0 c:/mingw/bin/../lib/gcc/mingw32/6.3.0/../../../libuser32.a(dtpcs00572.o)
 .bss           0x004ebce0        0x0 c:/mingw/bin/../lib/gcc/mingw32/6.3.0/../../../libuser32.a(dtpcs00571.o)
 .bss           0x004ebce0        0x0 c:/mingw/bin/../lib/gcc/mingw32/6.3.0/../../../libuser32.a(dtpcs00569.o)
 .bss           0x004ebce0        0x0 c:/mingw/bin/../lib/gcc/mingw32/6.3.0/../../../libuser32.a(dtpcs00563.o)
 .bss           0x004ebce0        0x0 c:/mingw/bin/../lib/gcc/mingw32/6.3.0/../../../libuser32.a(dtpcs00554.o)
 .bss           0x004ebce0        0x0 c:/mingw/bin/../lib/gcc/mingw32/6.3.0/../../../libuser32.a(dtpcs00535.o)
 .bss           0x004ebce0        0x0 c:/mingw/bin/../lib/gcc/mingw32/6.3.0/../../../libuser32.a(dtpcs00534.o)
 .bss           0x004ebce0        0x0 c:/mingw/bin/../lib/gcc/mingw32/6.3.0/../../../libuser32.a(dtpcs00533.o)
 .bss           0x004ebce0        0x0 c:/mingw/bin/../lib/gcc/mingw32/6.3.0/../../../libuser32.a(dtpcs00530.o)
 .bss           0x004ebce0        0x0 c:/mingw/bin/../lib/gcc/mingw32/6.3.0/../../../libuser32.a(dtpcs00525.o)
 .bss           0x004ebce0        0x0 c:/mingw/bin/../lib/gcc/mingw32/6.3.0/../../../libuser32.a(dtpcs00523.o)
 .bss           0x004ebce0        0x0 c:/mingw/bin/../lib/gcc/mingw32/6.3.0/../../../libuser32.a(dtpcs00520.o)
 .bss           0x004ebce0        0x0 c:/mingw/bin/../lib/gcc/mingw32/6.3.0/../../../libuser32.a(dtpcs00519.o)
 .bss           0x004ebce0        0x0 c:/mingw/bin/../lib/gcc/mingw32/6.3.0/../../../libuser32.a(dtpcs00517.o)
 .bss           0x004ebce0        0x0 c:/mingw/bin/../lib/gcc/mingw32/6.3.0/../../../libuser32.a(dtpcs00516.o)
 .bss           0x004ebce0        0x0 c:/mingw/bin/../lib/gcc/mingw32/6.3.0/../../../libuser32.a(dtpcs00508.o)
 .bss           0x004ebce0        0x0 c:/mingw/bin/../lib/gcc/mingw32/6.3.0/../../../libuser32.a(dtpcs00505.o)
 .bss           0x004ebce0        0x0 c:/mingw/bin/../lib/gcc/mingw32/6.3.0/../../../libuser32.a(dtpcs00500.o)
 .bss           0x004ebce0        0x0 c:/mingw/bin/../lib/gcc/mingw32/6.3.0/../../../libuser32.a(dtpcs00494.o)
 .bss           0x004ebce0        0x0 c:/mingw/bin/../lib/gcc/mingw32/6.3.0/../../../libuser32.a(dtpcs00493.o)
 .bss           0x004ebce0        0x0 c:/mingw/bin/../lib/gcc/mingw32/6.3.0/../../../libuser32.a(dtpcs00491.o)
 .bss           0x004ebce0        0x0 c:/mingw/bin/../lib/gcc/mingw32/6.3.0/../../../libuser32.a(dtpcs00483.o)
 .bss           0x004ebce0        0x0 c:/mingw/bin/../lib/gcc/mingw32/6.3.0/../../../libuser32.a(dtpcs00482.o)
 .bss           0x004ebce0        0x0 c:/mingw/bin/../lib/gcc/mingw32/6.3.0/../../../libuser32.a(dtpcs00479.o)
 .bss           0x004ebce0        0x0 c:/mingw/bin/../lib/gcc/mingw32/6.3.0/../../../libuser32.a(dtpcs00468.o)
 .bss           0x004ebce0        0x0 c:/mingw/bin/../lib/gcc/mingw32/6.3.0/../../../libuser32.a(dtpcs00466.o)
 .bss           0x004ebce0        0x0 c:/mingw/bin/../lib/gcc/mingw32/6.3.0/../../../libuser32.a(dtpcs00465.o)
 .bss           0x004ebce0        0x0 c:/mingw/bin/../lib/gcc/mingw32/6.3.0/../../../libuser32.a(dtpcs00464.o)
 .bss           0x004ebce0        0x0 c:/mingw/bin/../lib/gcc/mingw32/6.3.0/../../../libuser32.a(dtpcs00455.o)
 .bss           0x004ebce0        0x0 c:/mingw/bin/../lib/gcc/mingw32/6.3.0/../../../libuser32.a(dtpcs00446.o)
 .bss           0x004ebce0        0x0 c:/mingw/bin/../lib/gcc/mingw32/6.3.0/../../../libuser32.a(dtpcs00445.o)
 .bss           0x004ebce0        0x0 c:/mingw/bin/../lib/gcc/mingw32/6.3.0/../../../libuser32.a(dtpcs00437.o)
 .bss           0x004ebce0        0x0 c:/mingw/bin/../lib/gcc/mingw32/6.3.0/../../../libuser32.a(dtpcs00434.o)
 .bss           0x004ebce0        0x0 c:/mingw/bin/../lib/gcc/mingw32/6.3.0/../../../libuser32.a(dtpcs00433.o)
 .bss           0x004ebce0        0x0 c:/mingw/bin/../lib/gcc/mingw32/6.3.0/../../../libuser32.a(dtpcs00426.o)
 .bss           0x004ebce0        0x0 c:/mingw/bin/../lib/gcc/mingw32/6.3.0/../../../libuser32.a(dtpcs00411.o)
 .bss           0x004ebce0        0x0 c:/mingw/bin/../lib/gcc/mingw32/6.3.0/../../../libuser32.a(dtpcs00409.o)
 .bss           0x004ebce0        0x0 c:/mingw/bin/../lib/gcc/mingw32/6.3.0/../../../libuser32.a(dtpcs00405.o)
 .bss           0x004ebce0        0x0 c:/mingw/bin/../lib/gcc/mingw32/6.3.0/../../../libuser32.a(dtpcs00400.o)
 .bss           0x004ebce0        0x0 c:/mingw/bin/../lib/gcc/mingw32/6.3.0/../../../libuser32.a(dtpcs00398.o)
 .bss           0x004ebce0        0x0 c:/mingw/bin/../lib/gcc/mingw32/6.3.0/../../../libuser32.a(dtpcs00394.o)
 .bss           0x004ebce0        0x0 c:/mingw/bin/../lib/gcc/mingw32/6.3.0/../../../libuser32.a(dtpcs00389.o)
 .bss           0x004ebce0        0x0 c:/mingw/bin/../lib/gcc/mingw32/6.3.0/../../../libuser32.a(dtpcs00386.o)
 .bss           0x004ebce0        0x0 c:/mingw/bin/../lib/gcc/mingw32/6.3.0/../../../libuser32.a(dtpcs00384.o)
 .bss           0x004ebce0        0x0 c:/mingw/bin/../lib/gcc/mingw32/6.3.0/../../../libuser32.a(dtpcs00370.o)
 .bss           0x004ebce0        0x0 c:/mingw/bin/../lib/gcc/mingw32/6.3.0/../../../libuser32.a(dtpcs00364.o)
 .bss           0x004ebce0        0x0 c:/mingw/bin/../lib/gcc/mingw32/6.3.0/../../../libuser32.a(dtpcs00358.o)
 .bss           0x004ebce0        0x0 c:/mingw/bin/../lib/gcc/mingw32/6.3.0/../../../libuser32.a(dtpcs00351.o)
 .bss           0x004ebce0        0x0 c:/mingw/bin/../lib/gcc/mingw32/6.3.0/../../../libuser32.a(dtpcs00350.o)
 .bss           0x004ebce0        0x0 c:/mingw/bin/../lib/gcc/mingw32/6.3.0/../../../libuser32.a(dtpcs00348.o)
 .bss           0x004ebce0        0x0 c:/mingw/bin/../lib/gcc/mingw32/6.3.0/../../../libuser32.a(dtpcs00347.o)
 .bss           0x004ebce0        0x0 c:/mingw/bin/../lib/gcc/mingw32/6.3.0/../../../libuser32.a(dtpcs00342.o)
 .bss           0x004ebce0        0x0 c:/mingw/bin/../lib/gcc/mingw32/6.3.0/../../../libuser32.a(dtpcs00325.o)
 .bss           0x004ebce0        0x0 c:/mingw/bin/../lib/gcc/mingw32/6.3.0/../../../libuser32.a(dtpcs00323.o)
 .bss           0x004ebce0        0x0 c:/mingw/bin/../lib/gcc/mingw32/6.3.0/../../../libuser32.a(dtpcs00318.o)
 .bss           0x004ebce0        0x0 c:/mingw/bin/../lib/gcc/mingw32/6.3.0/../../../libuser32.a(dtpcs00310.o)
 .bss           0x004ebce0        0x0 c:/mingw/bin/../lib/gcc/mingw32/6.3.0/../../../libuser32.a(dtpcs00304.o)
 .bss           0x004ebce0        0x0 c:/mingw/bin/../lib/gcc/mingw32/6.3.0/../../../libuser32.a(dtpcs00296.o)
 .bss           0x004ebce0        0x0 c:/mingw/bin/../lib/gcc/mingw32/6.3.0/../../../libuser32.a(dtpcs00293.o)
 .bss           0x004ebce0        0x0 c:/mingw/bin/../lib/gcc/mingw32/6.3.0/../../../libuser32.a(dtpcs00273.o)
 .bss           0x004ebce0        0x0 c:/mingw/bin/../lib/gcc/mingw32/6.3.0/../../../libuser32.a(dtpcs00269.o)
 .bss           0x004ebce0        0x0 c:/mingw/bin/../lib/gcc/mingw32/6.3.0/../../../libuser32.a(dtpcs00259.o)
 .bss           0x004ebce0        0x0 c:/mingw/bin/../lib/gcc/mingw32/6.3.0/../../../libuser32.a(dtpcs00257.o)
 .bss           0x004ebce0        0x0 c:/mingw/bin/../lib/gcc/mingw32/6.3.0/../../../libuser32.a(dtpcs00255.o)
 .bss           0x004ebce0        0x0 c:/mingw/bin/../lib/gcc/mingw32/6.3.0/../../../libuser32.a(dtpcs00253.o)
 .bss           0x004ebce0        0x0 c:/mingw/bin/../lib/gcc/mingw32/6.3.0/../../../libuser32.a(dtpcs00250.o)
 .bss           0x004ebce0        0x0 c:/mingw/bin/../lib/gcc/mingw32/6.3.0/../../../libuser32.a(dtpcs00248.o)
 .bss           0x004ebce0        0x0 c:/mingw/bin/../lib/gcc/mingw32/6.3.0/../../../libuser32.a(dtpcs00247.o)
 .bss           0x004ebce0        0x0 c:/mingw/bin/../lib/gcc/mingw32/6.3.0/../../../libuser32.a(dtpcs00241.o)
 .bss           0x004ebce0        0x0 c:/mingw/bin/../lib/gcc/mingw32/6.3.0/../../../libuser32.a(dtpcs00238.o)
 .bss           0x004ebce0        0x0 c:/mingw/bin/../lib/gcc/mingw32/6.3.0/../../../libuser32.a(dtpcs00236.o)
 .bss           0x004ebce0        0x0 c:/mingw/bin/../lib/gcc/mingw32/6.3.0/../../../libuser32.a(dtpcs00225.o)
 .bss           0x004ebce0        0x0 c:/mingw/bin/../lib/gcc/mingw32/6.3.0/../../../libuser32.a(dtpcs00224.o)
 .bss           0x004ebce0        0x0 c:/mingw/bin/../lib/gcc/mingw32/6.3.0/../../../libuser32.a(dtpcs00214.o)
 .bss           0x004ebce0        0x0 c:/mingw/bin/../lib/gcc/mingw32/6.3.0/../../../libuser32.a(dtpcs00210.o)
 .bss           0x004ebce0        0x0 c:/mingw/bin/../lib/gcc/mingw32/6.3.0/../../../libuser32.a(dtpcs00184.o)
 .bss           0x004ebce0        0x0 c:/mingw/bin/../lib/gcc/mingw32/6.3.0/../../../libuser32.a(dtpcs00182.o)
 .bss           0x004ebce0        0x0 c:/mingw/bin/../lib/gcc/mingw32/6.3.0/../../../libuser32.a(dtpcs00180.o)
 .bss           0x004ebce0        0x0 c:/mingw/bin/../lib/gcc/mingw32/6.3.0/../../../libuser32.a(dtpcs00178.o)
 .bss           0x004ebce0        0x0 c:/mingw/bin/../lib/gcc/mingw32/6.3.0/../../../libuser32.a(dtpcs00177.o)
 .bss           0x004ebce0        0x0 c:/mingw/bin/../lib/gcc/mingw32/6.3.0/../../../libuser32.a(dtpcs00168.o)
 .bss           0x004ebce0        0x0 c:/mingw/bin/../lib/gcc/mingw32/6.3.0/../../../libuser32.a(dtpcs00163.o)
 .bss           0x004ebce0        0x0 c:/mingw/bin/../lib/gcc/mingw32/6.3.0/../../../libuser32.a(dtpcs00150.o)
 .bss           0x004ebce0        0x0 c:/mingw/bin/../lib/gcc/mingw32/6.3.0/../../../libuser32.a(dtpcs00149.o)
 .bss           0x004ebce0        0x0 c:/mingw/bin/../lib/gcc/mingw32/6.3.0/../../../libuser32.a(dtpcs00147.o)
 .bss           0x004ebce0        0x0 c:/mingw/bin/../lib/gcc/mingw32/6.3.0/../../../libuser32.a(dtpcs00144.o)
 .bss           0x004ebce0        0x0 c:/mingw/bin/../lib/gcc/mingw32/6.3.0/../../../libuser32.a(dtpcs00142.o)
 .bss           0x004ebce0        0x0 c:/mingw/bin/../lib/gcc/mingw32/6.3.0/../../../libuser32.a(dtpcs00140.o)
 .bss           0x004ebce0        0x0 c:/mingw/bin/../lib/gcc/mingw32/6.3.0/../../../libuser32.a(dtpcs00137.o)
 .bss           0x004ebce0        0x0 c:/mingw/bin/../lib/gcc/mingw32/6.3.0/../../../libuser32.a(dtpcs00135.o)
 .bss           0x004ebce0        0x0 c:/mingw/bin/../lib/gcc/mingw32/6.3.0/../../../libuser32.a(dtpcs00134.o)
 .bss           0x004ebce0        0x0 c:/mingw/bin/../lib/gcc/mingw32/6.3.0/../../../libuser32.a(dtpcs00127.o)
 .bss           0x004ebce0        0x0 c:/mingw/bin/../lib/gcc/mingw32/6.3.0/../../../libuser32.a(dtpcs00091.o)
 .bss           0x004ebce0        0x0 c:/mingw/bin/../lib/gcc/mingw32/6.3.0/../../../libuser32.a(dtpcs00090.o)
 .bss           0x004ebce0        0x0 c:/mingw/bin/../lib/gcc/mingw32/6.3.0/../../../libuser32.a(dtpcs00089.o)
 .bss           0x004ebce0        0x0 c:/mingw/bin/../lib/gcc/mingw32/6.3.0/../../../libuser32.a(dtpcs00088.o)
 .bss           0x004ebce0        0x0 c:/mingw/bin/../lib/gcc/mingw32/6.3.0/../../../libuser32.a(dtpcs00080.o)
 .bss           0x004ebce0        0x0 c:/mingw/bin/../lib/gcc/mingw32/6.3.0/../../../libuser32.a(dtpcs00074.o)
 .bss           0x004ebce0        0x0 c:/mingw/bin/../lib/gcc/mingw32/6.3.0/../../../libuser32.a(dtpcs00061.o)
 .bss           0x004ebce0        0x0 c:/mingw/bin/../lib/gcc/mingw32/6.3.0/../../../libuser32.a(dtpcs00056.o)
 .bss           0x004ebce0        0x0 c:/mingw/bin/../lib/gcc/mingw32/6.3.0/../../../libuser32.a(dtpcs00054.o)
 .bss           0x004ebce0        0x0 c:/mingw/bin/../lib/gcc/mingw32/6.3.0/../../../libuser32.a(dtpcs00053.o)
 .bss           0x004ebce0        0x0 c:/mingw/bin/../lib/gcc/mingw32/6.3.0/../../../libuser32.a(dtpcs00011.o)
 .bss           0x004ebce0        0x0 c:/mingw/bin/../lib/gcc/mingw32/6.3.0/../../../libuser32.a(dtpcs00006.o)
 .bss           0x004ebce0        0x0 c:/mingw/bin/../lib/gcc/mingw32/6.3.0/../../../libuser32.a(dtpch.o)
 .bss           0x004ebce0        0x0 c:/mingw/bin/../lib/gcc/mingw32/6.3.0/../../../libuser32.a(dtpct.o)
 .bss           0x004ebce0        0x0 c:/mingw/bin/../lib/gcc/mingw32/6.3.0/../../../libmingw32.a(CRTglob.o)
 .bss           0x004ebce0        0x0 c:/mingw/bin/../lib/gcc/mingw32/6.3.0/../../../libmingw32.a(setargv.o)
 .bss           0x004ebce0        0x4 c:/mingw/bin/../lib/gcc/mingw32/6.3.0/../../../libmingw32.a(CRTfmode.o)
                0x004ebce0                _CRT_fmode
 .bss           0x004ebce4        0x4 c:/mingw/bin/../lib/gcc/mingw32/6.3.0/../../../libmingw32.a(cpu_features.o)
                0x004ebce4                __cpu_features
 .bss           0x004ebce8        0x0 c:/mingw/bin/../lib/gcc/mingw32/6.3.0/../../../libmingw32.a(CRT_fp10.o)
 .bss           0x004ebce8        0x0 c:/mingw/bin/../lib/gcc/mingw32/6.3.0/../../../libmingw32.a(txtmode.o)
 .bss           0x004ebce8        0x0 c:/mingw/bin/../lib/gcc/mingw32/6.3.0/../../../libmingw32.a(main.o)
 .bss           0x004ebce8        0x4 c:/mingw/bin/../lib/gcc/mingw32/6.3.0/../../../libmingw32.a(gccmain.o)
 .bss           0x004ebcec       0x10 c:/mingw/bin/../lib/gcc/mingw32/6.3.0/../../../libmingw32.a(tlssup.o)
                0x004ebcec                mingw_initltssuo_force
                0x004ebcf0                mingw_initltsdyn_force
                0x004ebcf4                mingw_initltsdrot_force
                0x004ebcf8                _tls_index
 .bss           0x004ebcfc       0x20 c:/mingw/bin/../lib/gcc/mingw32/6.3.0/../../../libmingw32.a(tlsthrd.o)
 .bss           0x004ebd1c        0x4 c:/mingw/bin/../lib/gcc/mingw32/6.3.0/../../../libmingw32.a(pseudo-reloc.o)
 .bss           0x004ebd20        0x4 c:/mingw/bin/../lib/gcc/mingw32/6.3.0/../../../libmingw32.a(pseudo-reloc-list.o)
 .bss           0x004ebd24        0x4 c:/mingw/bin/../lib/gcc/mingw32/6.3.0/../../../libmingw32.a(crtst.o)
                0x004ebd24                _CRT_MT
 .bss           0x004ebd28        0x0 c:/mingw/bin/../lib/gcc/mingw32/6.3.0/libgcc.a(_chkstk_ms.o)
 .bss           0x004ebd28        0x0 c:/mingw/bin/../lib/gcc/mingw32/6.3.0/libgcc.a(_ctors.o)
 .bss           0x004ebd28        0x0 c:/mingw/bin/../lib/gcc/mingw32/6.3.0/libgcc.a(_udivdi3.o)
 .bss           0x004ebd28        0x0 c:/mingw/bin/../lib/gcc/mingw32/6.3.0/../../../libmingwex.a(fesetenv.o)
 .bss           0x004ebd28        0x0 c:/mingw/bin/../lib/gcc/mingw32/6.3.0/../../../libmingwex.a(strtodnrp.o)
 .bss           0x004ebd28        0x0 c:/mingw/bin/../lib/gcc/mingw32/6.3.0/../../../libmingwex.a(vfprintf.o)
 .bss           0x004ebd28        0x0 c:/mingw/bin/../lib/gcc/mingw32/6.3.0/../../../libmingwex.a(vsnprintf.o)
 .bss           0x004ebd28        0x0 c:/mingw/bin/../lib/gcc/mingw32/6.3.0/../../../libmingwex.a(vsprintf.o)
 .bss           0x004ebd28        0x0 c:/mingw/bin/../lib/gcc/mingw32/6.3.0/../../../libmingwex.a(glob.o)
 .bss           0x004ebd28        0x4 c:/mingw/bin/../lib/gcc/mingw32/6.3.0/../../../libmingwex.a(dirname.o)
 .bss           0x004ebd2c        0x0 c:/mingw/bin/../lib/gcc/mingw32/6.3.0/../../../libmingwex.a(dirent.o)
 .bss           0x004ebd2c        0xc c:/mingw/bin/../lib/gcc/mingw32/6.3.0/../../../libmingwex.a(mbrtowc.o)
 .bss           0x004ebd38        0x0 c:/mingw/bin/../lib/gcc/mingw32/6.3.0/../../../libmingwex.a(wcrtomb.o)
 .bss           0x004ebd38        0x0 c:/mingw/bin/../lib/gcc/mingw32/6.3.0/../../../libmingwex.a(strtodg.o)
 .bss           0x004ebd38        0x0 c:/mingw/bin/../lib/gcc/mingw32/6.3.0/../../../libmingwex.a(hexnan.o)
 *fill*         0x004ebd38        0x8 
 .bss           0x004ebd40      0x9a0 c:/mingw/bin/../lib/gcc/mingw32/6.3.0/../../../libmingwex.a(misc.o)
 .bss           0x004ec6e0        0x0 c:/mingw/bin/../lib/gcc/mingw32/6.3.0/../../../libmingwex.a(pformat.o)
 .bss           0x004ec6e0        0x4 c:/mingw/bin/../lib/gcc/mingw32/6.3.0/../../../libmingwex.a(varofmt.o)
                0x004ec6e0                __mingw_output_format_flags
 .bss           0x004ec6e4        0x0 c:/mingw/bin/../lib/gcc/mingw32/6.3.0/../../../libmingwex.a(gethex.o)
 .bss           0x004ec6e4        0x0 c:/mingw/bin/../lib/gcc/mingw32/6.3.0/../../../libmingwex.a(gdtoa.o)
 .bss           0x004ec6e4        0x0 c:/mingw/bin/../lib/gcc/mingw32/6.3.0/../../../libmingwex.a(gmisc.o)
 .bss           0x004ec6e4        0x0 c:/mingw/bin/../lib/gcc/mingw32/6.3.0/../../../libmingwex.a(smisc.o)
 .bss           0x004ec6e4        0x0 c:/mingw/bin/../lib/gcc/mingw32/6.3.0/../../../libmingwex.a(sum.o)
 .bss           0x004ec6e4        0x0 c:/mingw/bin/../lib/gcc/mingw32/6.3.0/../../../libmingwex.a(hd_init.o)
 .bss           0x004ec6e4        0x0 c:/mingw/bin/../lib/gcc/mingw32/6.3.0/../../../libmingwex.a(dmisc.o)
 .bss           0x004ec6e4        0x0 c:/mingw/bin/../lib/gcc/mingw32/6.3.0/../../../libmsvcrt.a(djpvbs01325.o)
 .bss           0x004ec6e4        0x0 c:/mingw/bin/../lib/gcc/mingw32/6.3.0/../../../libmsvcrt.a(djpvbs01311.o)
 .bss           0x004ec6e4        0x0 c:/mingw/bin/../lib/gcc/mingw32/6.3.0/../../../libmsvcrt.a(djpvbs01308.o)
 .bss           0x004ec6e4        0x0 c:/mingw/bin/../lib/gcc/mingw32/6.3.0/../../../libmsvcrt.a(djpvbs01284.o)
 .bss           0x004ec6e4        0x0 c:/mingw/bin/../lib/gcc/mingw32/6.3.0/../../../libmsvcrt.a(djpvbs01281.o)
 .bss           0x004ec6e4        0x0 c:/mingw/bin/../lib/gcc/mingw32/6.3.0/../../../libmsvcrt.a(djpvbs01278.o)
 .bss           0x004ec6e4        0x0 c:/mingw/bin/../lib/gcc/mingw32/6.3.0/../../../libmsvcrt.a(djpvbs01277.o)
 .bss           0x004ec6e4        0x0 c:/mingw/bin/../lib/gcc/mingw32/6.3.0/../../../libmsvcrt.a(djpvbs01272.o)
 .bss           0x004ec6e4        0x0 c:/mingw/bin/../lib/gcc/mingw32/6.3.0/../../../libmsvcrt.a(djpvbs01269.o)
 .bss           0x004ec6e4        0x0 c:/mingw/bin/../lib/gcc/mingw32/6.3.0/../../../libmsvcrt.a(djpvbs01263.o)
 .bss           0x004ec6e4        0x0 c:/mingw/bin/../lib/gcc/mingw32/6.3.0/../../../libmsvcrt.a(djpvbs01262.o)
 .bss           0x004ec6e4        0x0 c:/mingw/bin/../lib/gcc/mingw32/6.3.0/../../../libmsvcrt.a(djpvbs01258.o)
 .bss           0x004ec6e4        0x0 c:/mingw/bin/../lib/gcc/mingw32/6.3.0/../../../libmsvcrt.a(djpvbs01257.o)
 .bss           0x004ec6e4        0x0 c:/mingw/bin/../lib/gcc/mingw32/6.3.0/../../../libmsvcrt.a(djpvbs01256.o)
 .bss           0x004ec6e4        0x0 c:/mingw/bin/../lib/gcc/mingw32/6.3.0/../../../libmsvcrt.a(djpvbs01253.o)
 .bss           0x004ec6e4        0x0 c:/mingw/bin/../lib/gcc/mingw32/6.3.0/../../../libmsvcrt.a(djpvbs01252.o)
 .bss           0x004ec6e4        0x0 c:/mingw/bin/../lib/gcc/mingw32/6.3.0/../../../libmsvcrt.a(djpvbs01249.o)
 .bss           0x004ec6e4        0x0 c:/mingw/bin/../lib/gcc/mingw32/6.3.0/../../../libmsvcrt.a(djpvbs01248.o)
 .bss           0x004ec6e4        0x0 c:/mingw/bin/../lib/gcc/mingw32/6.3.0/../../../libmsvcrt.a(djpvbs01245.o)
 .bss           0x004ec6e4        0x0 c:/mingw/bin/../lib/gcc/mingw32/6.3.0/../../../libmsvcrt.a(djpvbs01243.o)
 .bss           0x004ec6e4        0x0 c:/mingw/bin/../lib/gcc/mingw32/6.3.0/../../../libmsvcrt.a(djpvbs01242.o)
 .bss           0x004ec6e4        0x0 c:/mingw/bin/../lib/gcc/mingw32/6.3.0/../../../libmsvcrt.a(djpvbs01241.o)
 .bss           0x004ec6e4        0x0 c:/mingw/bin/../lib/gcc/mingw32/6.3.0/../../../libmsvcrt.a(djpvbs01240.o)
 .bss           0x004ec6e4        0x0 c:/mingw/bin/../lib/gcc/mingw32/6.3.0/../../../libmsvcrt.a(djpvbs01238.o)
 .bss           0x004ec6e4        0x0 c:/mingw/bin/../lib/gcc/mingw32/6.3.0/../../../libmsvcrt.a(djpvbs01236.o)
 .bss           0x004ec6e4        0x0 c:/mingw/bin/../lib/gcc/mingw32/6.3.0/../../../libmsvcrt.a(djpvbs01229.o)
 .bss           0x004ec6e4        0x0 c:/mingw/bin/../lib/gcc/mingw32/6.3.0/../../../libmsvcrt.a(djpvbs01227.o)
 .bss           0x004ec6e4        0x0 c:/mingw/bin/../lib/gcc/mingw32/6.3.0/../../../libmsvcrt.a(djpvbs01223.o)
 .bss           0x004ec6e4        0x0 c:/mingw/bin/../lib/gcc/mingw32/6.3.0/../../../libmsvcrt.a(djpvbs01220.o)
 .bss           0x004ec6e4        0x0 c:/mingw/bin/../lib/gcc/mingw32/6.3.0/../../../libmsvcrt.a(djpvbs01215.o)
 .bss           0x004ec6e4        0x0 c:/mingw/bin/../lib/gcc/mingw32/6.3.0/../../../libmsvcrt.a(djpvbs01203.o)
 .bss           0x004ec6e4        0x0 c:/mingw/bin/../lib/gcc/mingw32/6.3.0/../../../libmsvcrt.a(djpvbs01201.o)
 .bss           0x004ec6e4        0x0 c:/mingw/bin/../lib/gcc/mingw32/6.3.0/../../../libmsvcrt.a(djpvbs01199.o)
 .bss           0x004ec6e4        0x0 c:/mingw/bin/../lib/gcc/mingw32/6.3.0/../../../libmsvcrt.a(djpvbs01198.o)
 .bss           0x004ec6e4        0x0 c:/mingw/bin/../lib/gcc/mingw32/6.3.0/../../../libmsvcrt.a(djpvbs01197.o)
 .bss           0x004ec6e4        0x0 c:/mingw/bin/../lib/gcc/mingw32/6.3.0/../../../libmsvcrt.a(djpvbs01194.o)
 .bss           0x004ec6e4        0x0 c:/mingw/bin/../lib/gcc/mingw32/6.3.0/../../../libmsvcrt.a(djpvbs01187.o)
 .bss           0x004ec6e4        0x0 c:/mingw/bin/../lib/gcc/mingw32/6.3.0/../../../libmsvcrt.a(djpvbs01182.o)
 .bss           0x004ec6e4        0x0 c:/mingw/bin/../lib/gcc/mingw32/6.3.0/../../../libmsvcrt.a(djpvbs01169.o)
 .bss           0x004ec6e4        0x0 c:/mingw/bin/../lib/gcc/mingw32/6.3.0/../../../libmsvcrt.a(djpvbs01147.o)
 .bss           0x004ec6e4        0x0 c:/mingw/bin/../lib/gcc/mingw32/6.3.0/../../../libmsvcrt.a(djpvbs01142.o)
 .bss           0x004ec6e4        0x0 c:/mingw/bin/../lib/gcc/mingw32/6.3.0/../../../libmsvcrt.a(djpvbs01131.o)
 .bss           0x004ec6e4        0x0 c:/mingw/bin/../lib/gcc/mingw32/6.3.0/../../../libmsvcrt.a(djpvbs01130.o)
 .bss           0x004ec6e4        0x0 c:/mingw/bin/../lib/gcc/mingw32/6.3.0/../../../libmsvcrt.a(djpvbs01127.o)
 .bss           0x004ec6e4        0x0 c:/mingw/bin/../lib/gcc/mingw32/6.3.0/../../../libmsvcrt.a(djpvbs01126.o)
 .bss           0x004ec6e4        0x0 c:/mingw/bin/../lib/gcc/mingw32/6.3.0/../../../libmsvcrt.a(djpvbs01122.o)
 .bss           0x004ec6e4        0x0 c:/mingw/bin/../lib/gcc/mingw32/6.3.0/../../../libmsvcrt.a(djpvbs01117.o)
 .bss           0x004ec6e4        0x0 c:/mingw/bin/../lib/gcc/mingw32/6.3.0/../../../libmsvcrt.a(djpvbs01115.o)
 .bss           0x004ec6e4        0x0 c:/mingw/bin/../lib/gcc/mingw32/6.3.0/../../../libmsvcrt.a(djpvbs01114.o)
 .bss           0x004ec6e4        0x0 c:/mingw/bin/../lib/gcc/mingw32/6.3.0/../../../libmsvcrt.a(djpvbs01111.o)
 .bss           0x004ec6e4        0x0 c:/mingw/bin/../lib/gcc/mingw32/6.3.0/../../../libmsvcrt.a(djpvbs01108.o)
 .bss           0x004ec6e4        0x0 c:/mingw/bin/../lib/gcc/mingw32/6.3.0/../../../libmsvcrt.a(djpvbs01106.o)
 .bss           0x004ec6e4        0x0 c:/mingw/bin/../lib/gcc/mingw32/6.3.0/../../../libmsvcrt.a(djpvbs01098.o)
 .bss           0x004ec6e4        0x0 c:/mingw/bin/../lib/gcc/mingw32/6.3.0/../../../libmsvcrt.a(djpvbs01093.o)
 .bss           0x004ec6e4        0x0 c:/mingw/bin/../lib/gcc/mingw32/6.3.0/../../../libmsvcrt.a(djpvbs01091.o)
 .bss           0x004ec6e4        0x0 c:/mingw/bin/../lib/gcc/mingw32/6.3.0/../../../libmsvcrt.a(djpvbs01083.o)
 .bss           0x004ec6e4        0x0 c:/mingw/bin/../lib/gcc/mingw32/6.3.0/../../../libmsvcrt.a(djpvbs00813.o)
 .bss           0x004ec6e4        0x0 c:/mingw/bin/../lib/gcc/mingw32/6.3.0/../../../libmsvcrt.a(djpvbs00803.o)
 .bss           0x004ec6e4        0x0 c:/mingw/bin/../lib/gcc/mingw32/6.3.0/../../../libmsvcrt.a(djpvbs00753.o)
 .bss           0x004ec6e4        0x0 c:/mingw/bin/../lib/gcc/mingw32/6.3.0/../../../libmsvcrt.a(djpvbs00698.o)
 .bss           0x004ec6e4        0x0 c:/mingw/bin/../lib/gcc/mingw32/6.3.0/../../../libmsvcrt.a(djpvbs00689.o)
 .bss           0x004ec6e4        0x0 c:/mingw/bin/../lib/gcc/mingw32/6.3.0/../../../libmsvcrt.a(djpvbs00422.o)
 .bss           0x004ec6e4        0x0 c:/mingw/bin/../lib/gcc/mingw32/6.3.0/../../../libmsvcrt.a(djpvbs00417.o)
 .bss           0x004ec6e4        0x0 c:/mingw/bin/../lib/gcc/mingw32/6.3.0/../../../libmsvcrt.a(djpvbs00350.o)
 .bss           0x004ec6e4        0x0 c:/mingw/bin/../lib/gcc/mingw32/6.3.0/../../../libmsvcrt.a(djpvbs00324.o)
 .bss           0x004ec6e4        0x0 c:/mingw/bin/../lib/gcc/mingw32/6.3.0/../../../libmsvcrt.a(djpvbs00285.o)
 .bss           0x004ec6e4        0x0 c:/mingw/bin/../lib/gcc/mingw32/6.3.0/../../../libmsvcrt.a(djpvbs00219.o)
 .bss           0x004ec6e4        0x0 c:/mingw/bin/../lib/gcc/mingw32/6.3.0/../../../libmsvcrt.a(djpvbs00201.o)
 .bss           0x004ec6e4        0x0 c:/mingw/bin/../lib/gcc/mingw32/6.3.0/../../../libmsvcrt.a(djpvbs00153.o)
 .bss           0x004ec6e4        0x0 c:/mingw/bin/../lib/gcc/mingw32/6.3.0/../../../libmsvcrt.a(djpvbs00133.o)
 .bss           0x004ec6e4        0x0 c:/mingw/bin/../lib/gcc/mingw32/6.3.0/../../../libmsvcrt.a(djpvbs00131.o)
 .bss           0x004ec6e4        0x0 c:/mingw/bin/../lib/gcc/mingw32/6.3.0/../../../libmsvcrt.a(djpvbs00119.o)
 .bss           0x004ec6e4        0x0 c:/mingw/bin/../lib/gcc/mingw32/6.3.0/../../../libmsvcrt.a(djpvbs00088.o)
 .bss           0x004ec6e4        0x0 c:/mingw/bin/../lib/gcc/mingw32/6.3.0/../../../libmsvcrt.a(djpvbh.o)
 .bss           0x004ec6e4        0x0 c:/mingw/bin/../lib/gcc/mingw32/6.3.0/../../../libmsvcrt.a(djpvbt.o)
 .bss           0x004ec6e4        0x0 c:/mingw/bin/../lib/gcc/mingw32/6.3.0/../../../libkernel32.a(dujcs01267.o)
 .bss           0x004ec6e4        0x0 c:/mingw/bin/../lib/gcc/mingw32/6.3.0/../../../libkernel32.a(dujcs01247.o)
 .bss           0x004ec6e4        0x0 c:/mingw/bin/../lib/gcc/mingw32/6.3.0/../../../libkernel32.a(dujcs01223.o)
 .bss           0x004ec6e4        0x0 c:/mingw/bin/../lib/gcc/mingw32/6.3.0/../../../libkernel32.a(dujcs01215.o)
 .bss           0x004ec6e4        0x0 c:/mingw/bin/../lib/gcc/mingw32/6.3.0/../../../libkernel32.a(dujcs01213.o)
 .bss           0x004ec6e4        0x0 c:/mingw/bin/../lib/gcc/mingw32/6.3.0/../../../libkernel32.a(dujcs01188.o)
 .bss           0x004ec6e4        0x0 c:/mingw/bin/../lib/gcc/mingw32/6.3.0/../../../libkernel32.a(dujcs01173.o)
 .bss           0x004ec6e4        0x0 c:/mingw/bin/../lib/gcc/mingw32/6.3.0/../../../libkernel32.a(dujcs01152.o)
 .bss           0x004ec6e4        0x0 c:/mingw/bin/../lib/gcc/mingw32/6.3.0/../../../libkernel32.a(dujcs01140.o)
 .bss           0x004ec6e4        0x0 c:/mingw/bin/../lib/gcc/mingw32/6.3.0/../../../libkernel32.a(dujcs01088.o)
 .bss           0x004ec6e4        0x0 c:/mingw/bin/../lib/gcc/mingw32/6.3.0/../../../libkernel32.a(dujcs01065.o)
 .bss           0x004ec6e4        0x0 c:/mingw/bin/../lib/gcc/mingw32/6.3.0/../../../libkernel32.a(dujcs01052.o)
 .bss           0x004ec6e4        0x0 c:/mingw/bin/../lib/gcc/mingw32/6.3.0/../../../libkernel32.a(dujcs01014.o)
 .bss           0x004ec6e4        0x0 c:/mingw/bin/../lib/gcc/mingw32/6.3.0/../../../libkernel32.a(dujcs01013.o)
 .bss           0x004ec6e4        0x0 c:/mingw/bin/../lib/gcc/mingw32/6.3.0/../../../libkernel32.a(dujcs01010.o)
 .bss           0x004ec6e4        0x0 c:/mingw/bin/../lib/gcc/mingw32/6.3.0/../../../libkernel32.a(dujcs00947.o)
 .bss           0x004ec6e4        0x0 c:/mingw/bin/../lib/gcc/mingw32/6.3.0/../../../libkernel32.a(dujcs00922.o)
 .bss           0x004ec6e4        0x0 c:/mingw/bin/../lib/gcc/mingw32/6.3.0/../../../libkernel32.a(dujcs00860.o)
 .bss           0x004ec6e4        0x0 c:/mingw/bin/../lib/gcc/mingw32/6.3.0/../../../libkernel32.a(dujcs00859.o)
 .bss           0x004ec6e4        0x0 c:/mingw/bin/../lib/gcc/mingw32/6.3.0/../../../libkernel32.a(dujcs00844.o)
 .bss           0x004ec6e4        0x0 c:/mingw/bin/../lib/gcc/mingw32/6.3.0/../../../libkernel32.a(dujcs00827.o)
 .bss           0x004ec6e4        0x0 c:/mingw/bin/../lib/gcc/mingw32/6.3.0/../../../libkernel32.a(dujcs00818.o)
 .bss           0x004ec6e4        0x0 c:/mingw/bin/../lib/gcc/mingw32/6.3.0/../../../libkernel32.a(dujcs00817.o)
 .bss           0x004ec6e4        0x0 c:/mingw/bin/../lib/gcc/mingw32/6.3.0/../../../libkernel32.a(dujcs00814.o)
 .bss           0x004ec6e4        0x0 c:/mingw/bin/../lib/gcc/mingw32/6.3.0/../../../libkernel32.a(dujcs00763.o)
 .bss           0x004ec6e4        0x0 c:/mingw/bin/../lib/gcc/mingw32/6.3.0/../../../libkernel32.a(dujcs00744.o)
 .bss           0x004ec6e4        0x0 c:/mingw/bin/../lib/gcc/mingw32/6.3.0/../../../libkernel32.a(dujcs00734.o)
 .bss           0x004ec6e4        0x0 c:/mingw/bin/../lib/gcc/mingw32/6.3.0/../../../libkernel32.a(dujcs00705.o)
 .bss           0x004ec6e4        0x0 c:/mingw/bin/../lib/gcc/mingw32/6.3.0/../../../libkernel32.a(dujcs00699.o)
 .bss           0x004ec6e4        0x0 c:/mingw/bin/../lib/gcc/mingw32/6.3.0/../../../libkernel32.a(dujcs00698.o)
 .bss           0x004ec6e4        0x0 c:/mingw/bin/../lib/gcc/mingw32/6.3.0/../../../libkernel32.a(dujcs00694.o)
 .bss           0x004ec6e4        0x0 c:/mingw/bin/../lib/gcc/mingw32/6.3.0/../../../libkernel32.a(dujcs00687.o)
 .bss           0x004ec6e4        0x0 c:/mingw/bin/../lib/gcc/mingw32/6.3.0/../../../libkernel32.a(dujcs00682.o)
 .bss           0x004ec6e4        0x0 c:/mingw/bin/../lib/gcc/mingw32/6.3.0/../../../libkernel32.a(dujcs00656.o)
 .bss           0x004ec6e4        0x0 c:/mingw/bin/../lib/gcc/mingw32/6.3.0/../../../libkernel32.a(dujcs00653.o)
 .bss           0x004ec6e4        0x0 c:/mingw/bin/../lib/gcc/mingw32/6.3.0/../../../libkernel32.a(dujcs00629.o)
 .bss           0x004ec6e4        0x0 c:/mingw/bin/../lib/gcc/mingw32/6.3.0/../../../libkernel32.a(dujcs00619.o)
 .bss           0x004ec6e4        0x0 c:/mingw/bin/../lib/gcc/mingw32/6.3.0/../../../libkernel32.a(dujcs00606.o)
 .bss           0x004ec6e4        0x0 c:/mingw/bin/../lib/gcc/mingw32/6.3.0/../../../libkernel32.a(dujcs00590.o)
 .bss           0x004ec6e4        0x0 c:/mingw/bin/../lib/gcc/mingw32/6.3.0/../../../libkernel32.a(dujcs00577.o)
 .bss           0x004ec6e4        0x0 c:/mingw/bin/../lib/gcc/mingw32/6.3.0/../../../libkernel32.a(dujcs00564.o)
 .bss           0x004ec6e4        0x0 c:/mingw/bin/../lib/gcc/mingw32/6.3.0/../../../libkernel32.a(dujcs00563.o)
 .bss           0x004ec6e4        0x0 c:/mingw/bin/../lib/gcc/mingw32/6.3.0/../../../libkernel32.a(dujcs00529.o)
 .bss           0x004ec6e4        0x0 c:/mingw/bin/../lib/gcc/mingw32/6.3.0/../../../libkernel32.a(dujcs00527.o)
 .bss           0x004ec6e4        0x0 c:/mingw/bin/../lib/gcc/mingw32/6.3.0/../../../libkernel32.a(dujcs00512.o)
 .bss           0x004ec6e4        0x0 c:/mingw/bin/../lib/gcc/mingw32/6.3.0/../../../libkernel32.a(dujcs00511.o)
 .bss           0x004ec6e4        0x0 c:/mingw/bin/../lib/gcc/mingw32/6.3.0/../../../libkernel32.a(dujcs00510.o)
 .bss           0x004ec6e4        0x0 c:/mingw/bin/../lib/gcc/mingw32/6.3.0/../../../libkernel32.a(dujcs00482.o)
 .bss           0x004ec6e4        0x0 c:/mingw/bin/../lib/gcc/mingw32/6.3.0/../../../libkernel32.a(dujcs00473.o)
 .bss           0x004ec6e4        0x0 c:/mingw/bin/../lib/gcc/mingw32/6.3.0/../../../libkernel32.a(dujcs00451.o)
 .bss           0x004ec6e4        0x0 c:/mingw/bin/../lib/gcc/mingw32/6.3.0/../../../libkernel32.a(dujcs00450.o)
 .bss           0x004ec6e4        0x0 c:/mingw/bin/../lib/gcc/mingw32/6.3.0/../../../libkernel32.a(dujcs00447.o)
 .bss           0x004ec6e4        0x0 c:/mingw/bin/../lib/gcc/mingw32/6.3.0/../../../libkernel32.a(dujcs00446.o)
 .bss           0x004ec6e4        0x0 c:/mingw/bin/../lib/gcc/mingw32/6.3.0/../../../libkernel32.a(dujcs00444.o)
 .bss           0x004ec6e4        0x0 c:/mingw/bin/../lib/gcc/mingw32/6.3.0/../../../libkernel32.a(dujcs00426.o)
 .bss           0x004ec6e4        0x0 c:/mingw/bin/../lib/gcc/mingw32/6.3.0/../../../libkernel32.a(dujcs00388.o)
 .bss           0x004ec6e4        0x0 c:/mingw/bin/../lib/gcc/mingw32/6.3.0/../../../libkernel32.a(dujcs00386.o)
 .bss           0x004ec6e4        0x0 c:/mingw/bin/../lib/gcc/mingw32/6.3.0/../../../libkernel32.a(dujcs00368.o)
 .bss           0x004ec6e4        0x0 c:/mingw/bin/../lib/gcc/mingw32/6.3.0/../../../libkernel32.a(dujcs00358.o)
 .bss           0x004ec6e4        0x0 c:/mingw/bin/../lib/gcc/mingw32/6.3.0/../../../libkernel32.a(dujcs00352.o)
 .bss           0x004ec6e4        0x0 c:/mingw/bin/../lib/gcc/mingw32/6.3.0/../../../libkernel32.a(dujcs00347.o)
 .bss           0x004ec6e4        0x0 c:/mingw/bin/../lib/gcc/mingw32/6.3.0/../../../libkernel32.a(dujcs00321.o)
 .bss           0x004ec6e4        0x0 c:/mingw/bin/../lib/gcc/mingw32/6.3.0/../../../libkernel32.a(dujcs00304.o)
 .bss           0x004ec6e4        0x0 c:/mingw/bin/../lib/gcc/mingw32/6.3.0/../../../libkernel32.a(dujcs00300.o)
 .bss           0x004ec6e4        0x0 c:/mingw/bin/../lib/gcc/mingw32/6.3.0/../../../libkernel32.a(dujcs00279.o)
 .bss           0x004ec6e4        0x0 c:/mingw/bin/../lib/gcc/mingw32/6.3.0/../../../libkernel32.a(dujcs00236.o)
 .bss           0x004ec6e4        0x0 c:/mingw/bin/../lib/gcc/mingw32/6.3.0/../../../libkernel32.a(dujcs00209.o)
 .bss           0x004ec6e4        0x0 c:/mingw/bin/../lib/gcc/mingw32/6.3.0/../../../libkernel32.a(dujcs00207.o)
 .bss           0x004ec6e4        0x0 c:/mingw/bin/../lib/gcc/mingw32/6.3.0/../../../libkernel32.a(dujcs00179.o)
 .bss           0x004ec6e4        0x0 c:/mingw/bin/../lib/gcc/mingw32/6.3.0/../../../libkernel32.a(dujcs00163.o)
 .bss           0x004ec6e4        0x0 c:/mingw/bin/../lib/gcc/mingw32/6.3.0/../../../libkernel32.a(dujcs00160.o)
 .bss           0x004ec6e4        0x0 c:/mingw/bin/../lib/gcc/mingw32/6.3.0/../../../libkernel32.a(dujcs00136.o)
 .bss           0x004ec6e4        0x0 c:/mingw/bin/../lib/gcc/mingw32/6.3.0/../../../libkernel32.a(dujcs00135.o)
 .bss           0x004ec6e4        0x0 c:/mingw/bin/../lib/gcc/mingw32/6.3.0/../../../libkernel32.a(dujcs00129.o)
 .bss           0x004ec6e4        0x0 c:/mingw/bin/../lib/gcc/mingw32/6.3.0/../../../libkernel32.a(dujcs00082.o)
 .bss           0x004ec6e4        0x0 c:/mingw/bin/../lib/gcc/mingw32/6.3.0/../../../libkernel32.a(dujcs00079.o)
 .bss           0x004ec6e4        0x0 c:/mingw/bin/../lib/gcc/mingw32/6.3.0/../../../libkernel32.a(dujcs00054.o)
 .bss           0x004ec6e4        0x0 c:/mingw/bin/../lib/gcc/mingw32/6.3.0/../../../libkernel32.a(dujch.o)
 .bss           0x004ec6e4        0x0 c:/mingw/bin/../lib/gcc/mingw32/6.3.0/../../../libkernel32.a(dujct.o)
 .bss           0x004ec6e4        0x0 c:/mingw/bin/../lib/gcc/mingw32/6.3.0/libgcc.a(_umoddi3.o)
 .bss           0x004ec6e4        0x0 c:/mingw/bin/../lib/gcc/mingw32/6.3.0/../../../libmoldname.a(dagwbs00082.o)
 .bss           0x004ec6e4        0x0 c:/mingw/bin/../lib/gcc/mingw32/6.3.0/../../../libmoldname.a(dagwbs00080.o)
 .bss           0x004ec6e4        0x0 c:/mingw/bin/../lib/gcc/mingw32/6.3.0/../../../libmoldname.a(dagwbh.o)
 .bss           0x004ec6e4        0x0 c:/mingw/bin/../lib/gcc/mingw32/6.3.0/../../../libmoldname.a(dagwbt.o)
 .bss           0x004ec6e4        0x0 c:/mingw/bin/../lib/gcc/mingw32/6.3.0/crtend.o
 *(COMMON)
 COMMON         0x004ec6e4        0x4 c:/mingw/bin/../lib/gcc/mingw32/6.3.0/crtbegin.o
                0x004ec6e4                hmod_libgcc
 *fill*         0x004ec6e8       0x18 
 COMMON         0x004ec700      0x7e9 terminal.o
                0x004ec700                linhas
 *fill*         0x004ecee9       0x17 
 COMMON         0x004ecf00      0xca8 window.o
                0x004ecf00                osMajorVersion
                0x004ecf04                p_WSAEnumNetworkEvents
                0x004ecf08                p_WSAAsyncSelect
                0x004ecf0c                restricted_acl
                0x004ecf0d                loaded_session
                0x004ecf10                osMinorVersion
                0x004ecf14                term
                0x004ecf18                default_port
                0x004ecf1c                cursor_type
                0x004ecf20                vtmode
                0x004ecf24                hinst
                0x004ecf28                logbox
                0x004ecf2c                p_WSAGetLastError
                0x004ecf30                flags
                0x004ecf34                cmdline_session_name
                0x004ecf38                hwnd
                0x004ecf3c                logctx
                0x004ecf40                conf
                0x004ecf44                osPlatformId
                0x004ecf48                default_protocol
                0x004ecf4c                p_WSAEventSelect
                0x004ecf60                colours_rgb
 COMMON         0x004edba8        0x4 winnet.o
                0x004edba8                p_select
 COMMON         0x004edbac        0x0 c:/mingw/bin/../lib/gcc/mingw32/6.3.0/libgcc.a(_ctors.o)
 *fill*         0x004edbac       0x14 
 COMMON         0x004edbc0      0x100 c:/mingw/bin/../lib/gcc/mingw32/6.3.0/../../../libmingwex.a(hd_init.o)
                0x004edbc0                __hexdig_D2A
                0x004edcc0                __bss_end__ = .

.edata
 *(.edata)

/DISCARD/
 *(.debug$S)
 *(.debug$T)
 *(.debug$F)
 *(.drectve)
 *(.note.GNU-stack)
 *(.gnu.lto_*)

.idata          0x004ee000     0x2600
 SORT(*)(.idata$2)
 .idata$2       0x004ee000       0x14 c:/mingw/bin/../lib/gcc/mingw32/6.3.0/../../../libadvapi32.a(dchch.o)
                0x004ee000                _head_libadvapi32_a
 .idata$2       0x004ee014       0x14 c:/mingw/bin/../lib/gcc/mingw32/6.3.0/../../../libcomdlg32.a(duhch.o)
                0x004ee014                _head_libcomdlg32_a
 .idata$2       0x004ee028       0x14 c:/mingw/bin/../lib/gcc/mingw32/6.3.0/../../../libgdi32.a(dpich.o)
                0x004ee028                _head_libgdi32_a
 .idata$2       0x004ee03c       0x14 c:/mingw/bin/../lib/gcc/mingw32/6.3.0/../../../libimm32.a(dojch.o)
                0x004ee03c                _head_libimm32_a
 .idata$2       0x004ee050       0x14 c:/mingw/bin/../lib/gcc/mingw32/6.3.0/../../../libkernel32.a(dujch.o)
                0x004ee050                _head_libkernel32_a
 .idata$2       0x004ee064       0x14 c:/mingw/bin/../lib/gcc/mingw32/6.3.0/../../../libmoldname.a(dagwbh.o)
                0x004ee064                _head_libmoldname_a
 .idata$2       0x004ee078       0x14 c:/mingw/bin/../lib/gcc/mingw32/6.3.0/../../../libmsvcrt.a(djpvbh.o)
                0x004ee078                _head_libmsvcrt_a
 .idata$2       0x004ee08c       0x14 c:/mingw/bin/../lib/gcc/mingw32/6.3.0/../../../libole32.a(damch.o)
                0x004ee08c                _head_libole32_a
 .idata$2       0x004ee0a0       0x14 c:/mingw/bin/../lib/gcc/mingw32/6.3.0/../../../libshell32.a(duoch.o)
                0x004ee0a0                _head_libshell32_a
 .idata$2       0x004ee0b4       0x14 c:/mingw/bin/../lib/gcc/mingw32/6.3.0/../../../libuser32.a(dtpch.o)
                0x004ee0b4                _head_libuser32_a
 SORT(*)(.idata$3)
                0x004ee0c8        0x4 LONG 0x0
                0x004ee0cc        0x4 LONG 0x0
                0x004ee0d0        0x4 LONG 0x0
                0x004ee0d4        0x4 LONG 0x0
                0x004ee0d8        0x4 LONG 0x0
 SORT(*)(.idata$4)
 .idata$4       0x004ee0dc        0x0 c:/mingw/bin/../lib/gcc/mingw32/6.3.0/../../../libadvapi32.a(dchch.o)
 .idata$4       0x004ee0dc        0x4 c:/mingw/bin/../lib/gcc/mingw32/6.3.0/../../../libadvapi32.a(dchcs00245.o)
 .idata$4       0x004ee0e0        0x4 c:/mingw/bin/../lib/gcc/mingw32/6.3.0/../../../libadvapi32.a(dchcs00386.o)
 .idata$4       0x004ee0e4        0x4 c:/mingw/bin/../lib/gcc/mingw32/6.3.0/../../../libadvapi32.a(dchcs00389.o)
 .idata$4       0x004ee0e8        0x4 c:/mingw/bin/../lib/gcc/mingw32/6.3.0/../../../libadvapi32.a(dchcs00390.o)
 .idata$4       0x004ee0ec        0x4 c:/mingw/bin/../lib/gcc/mingw32/6.3.0/../../../libadvapi32.a(dchcs00393.o)
 .idata$4       0x004ee0f0        0x4 c:/mingw/bin/../lib/gcc/mingw32/6.3.0/../../../libadvapi32.a(dchcs00397.o)
 .idata$4       0x004ee0f4        0x4 c:/mingw/bin/../lib/gcc/mingw32/6.3.0/../../../libadvapi32.a(dchcs00400.o)
 .idata$4       0x004ee0f8        0x4 c:/mingw/bin/../lib/gcc/mingw32/6.3.0/../../../libadvapi32.a(dchcs00412.o)
 .idata$4       0x004ee0fc        0x4 c:/mingw/bin/../lib/gcc/mingw32/6.3.0/../../../libadvapi32.a(dchcs00423.o)
 .idata$4       0x004ee100        0x4 c:/mingw/bin/../lib/gcc/mingw32/6.3.0/../../../libadvapi32.a(dchcs00434.o)
 .idata$4       0x004ee104        0x4 c:/mingw/bin/../lib/gcc/mingw32/6.3.0/../../../libadvapi32.a(dchct.o)
 .idata$4       0x004ee108        0x0 c:/mingw/bin/../lib/gcc/mingw32/6.3.0/../../../libcomdlg32.a(duhch.o)
 .idata$4       0x004ee108        0x4 c:/mingw/bin/../lib/gcc/mingw32/6.3.0/../../../libcomdlg32.a(duhcs00000.o)
 .idata$4       0x004ee10c        0x4 c:/mingw/bin/../lib/gcc/mingw32/6.3.0/../../../libcomdlg32.a(duhcs00002.o)
 .idata$4       0x004ee110        0x4 c:/mingw/bin/../lib/gcc/mingw32/6.3.0/../../../libcomdlg32.a(duhcs00009.o)
 .idata$4       0x004ee114        0x4 c:/mingw/bin/../lib/gcc/mingw32/6.3.0/../../../libcomdlg32.a(duhcs00011.o)
 .idata$4       0x004ee118        0x4 c:/mingw/bin/../lib/gcc/mingw32/6.3.0/../../../libcomdlg32.a(duhct.o)
 .idata$4       0x004ee11c        0x0 c:/mingw/bin/../lib/gcc/mingw32/6.3.0/../../../libgdi32.a(dpich.o)
 .idata$4       0x004ee11c        0x4 c:/mingw/bin/../lib/gcc/mingw32/6.3.0/../../../libgdi32.a(dpics00028.o)
 .idata$4       0x004ee120        0x4 c:/mingw/bin/../lib/gcc/mingw32/6.3.0/../../../libgdi32.a(dpics00033.o)
 .idata$4       0x004ee124        0x4 c:/mingw/bin/../lib/gcc/mingw32/6.3.0/../../../libgdi32.a(dpics00034.o)
 .idata$4       0x004ee128        0x4 c:/mingw/bin/../lib/gcc/mingw32/6.3.0/../../../libgdi32.a(dpics00046.o)
 .idata$4       0x004ee12c        0x4 c:/mingw/bin/../lib/gcc/mingw32/6.3.0/../../../libgdi32.a(dpics00047.o)
 .idata$4       0x004ee130        0x4 c:/mingw/bin/../lib/gcc/mingw32/6.3.0/../../../libgdi32.a(dpics00056.o)
 .idata$4       0x004ee134        0x4 c:/mingw/bin/../lib/gcc/mingw32/6.3.0/../../../libgdi32.a(dpics00058.o)
 .idata$4       0x004ee138        0x4 c:/mingw/bin/../lib/gcc/mingw32/6.3.0/../../../libgdi32.a(dpics00067.o)
 .idata$4       0x004ee13c        0x4 c:/mingw/bin/../lib/gcc/mingw32/6.3.0/../../../libgdi32.a(dpics00070.o)
 .idata$4       0x004ee140        0x4 c:/mingw/bin/../lib/gcc/mingw32/6.3.0/../../../libgdi32.a(dpics00073.o)
 .idata$4       0x004ee144        0x4 c:/mingw/bin/../lib/gcc/mingw32/6.3.0/../../../libgdi32.a(dpics00096.o)
 .idata$4       0x004ee148        0x4 c:/mingw/bin/../lib/gcc/mingw32/6.3.0/../../../libgdi32.a(dpics00102.o)
 .idata$4       0x004ee14c        0x4 c:/mingw/bin/../lib/gcc/mingw32/6.3.0/../../../libgdi32.a(dpics00103.o)
 .idata$4       0x004ee150        0x4 c:/mingw/bin/../lib/gcc/mingw32/6.3.0/../../../libgdi32.a(dpics00122.o)
 .idata$4       0x004ee154        0x4 c:/mingw/bin/../lib/gcc/mingw32/6.3.0/../../../libgdi32.a(dpics00126.o)
 .idata$4       0x004ee158        0x4 c:/mingw/bin/../lib/gcc/mingw32/6.3.0/../../../libgdi32.a(dpics00129.o)
 .idata$4       0x004ee15c        0x4 c:/mingw/bin/../lib/gcc/mingw32/6.3.0/../../../libgdi32.a(dpics00130.o)
 .idata$4       0x004ee160        0x4 c:/mingw/bin/../lib/gcc/mingw32/6.3.0/../../../libgdi32.a(dpics00131.o)
 .idata$4       0x004ee164        0x4 c:/mingw/bin/../lib/gcc/mingw32/6.3.0/../../../libgdi32.a(dpics00134.o)
 .idata$4       0x004ee168        0x4 c:/mingw/bin/../lib/gcc/mingw32/6.3.0/../../../libgdi32.a(dpics00136.o)
 .idata$4       0x004ee16c        0x4 c:/mingw/bin/../lib/gcc/mingw32/6.3.0/../../../libgdi32.a(dpics00148.o)
 .idata$4       0x004ee170        0x4 c:/mingw/bin/../lib/gcc/mingw32/6.3.0/../../../libgdi32.a(dpics00185.o)
 .idata$4       0x004ee174        0x4 c:/mingw/bin/../lib/gcc/mingw32/6.3.0/../../../libgdi32.a(dpics00192.o)
 .idata$4       0x004ee178        0x4 c:/mingw/bin/../lib/gcc/mingw32/6.3.0/../../../libgdi32.a(dpics00201.o)
 .idata$4       0x004ee17c        0x4 c:/mingw/bin/../lib/gcc/mingw32/6.3.0/../../../libgdi32.a(dpics00210.o)
 .idata$4       0x004ee180        0x4 c:/mingw/bin/../lib/gcc/mingw32/6.3.0/../../../libgdi32.a(dpics00213.o)
 .idata$4       0x004ee184        0x4 c:/mingw/bin/../lib/gcc/mingw32/6.3.0/../../../libgdi32.a(dpics00219.o)
 .idata$4       0x004ee188        0x4 c:/mingw/bin/../lib/gcc/mingw32/6.3.0/../../../libgdi32.a(dpics00227.o)
 .idata$4       0x004ee18c        0x4 c:/mingw/bin/../lib/gcc/mingw32/6.3.0/../../../libgdi32.a(dpics00231.o)
 .idata$4       0x004ee190        0x4 c:/mingw/bin/../lib/gcc/mingw32/6.3.0/../../../libgdi32.a(dpics00234.o)
 .idata$4       0x004ee194        0x4 c:/mingw/bin/../lib/gcc/mingw32/6.3.0/../../../libgdi32.a(dpics00256.o)
 .idata$4       0x004ee198        0x4 c:/mingw/bin/../lib/gcc/mingw32/6.3.0/../../../libgdi32.a(dpics00260.o)
 .idata$4       0x004ee19c        0x4 c:/mingw/bin/../lib/gcc/mingw32/6.3.0/../../../libgdi32.a(dpics00263.o)
 .idata$4       0x004ee1a0        0x4 c:/mingw/bin/../lib/gcc/mingw32/6.3.0/../../../libgdi32.a(dpics00281.o)
 .idata$4       0x004ee1a4        0x4 c:/mingw/bin/../lib/gcc/mingw32/6.3.0/../../../libgdi32.a(dpics00282.o)
 .idata$4       0x004ee1a8        0x4 c:/mingw/bin/../lib/gcc/mingw32/6.3.0/../../../libgdi32.a(dpics00287.o)
 .idata$4       0x004ee1ac        0x4 c:/mingw/bin/../lib/gcc/mingw32/6.3.0/../../../libgdi32.a(dpics00288.o)
 .idata$4       0x004ee1b0        0x4 c:/mingw/bin/../lib/gcc/mingw32/6.3.0/../../../libgdi32.a(dpics00306.o)
 .idata$4       0x004ee1b4        0x4 c:/mingw/bin/../lib/gcc/mingw32/6.3.0/../../../libgdi32.a(dpics00311.o)
 .idata$4       0x004ee1b8        0x4 c:/mingw/bin/../lib/gcc/mingw32/6.3.0/../../../libgdi32.a(dpics00312.o)
 .idata$4       0x004ee1bc        0x4 c:/mingw/bin/../lib/gcc/mingw32/6.3.0/../../../libgdi32.a(dpics00321.o)
 .idata$4       0x004ee1c0        0x4 c:/mingw/bin/../lib/gcc/mingw32/6.3.0/../../../libgdi32.a(dpics00323.o)
 .idata$4       0x004ee1c4        0x4 c:/mingw/bin/../lib/gcc/mingw32/6.3.0/../../../libgdi32.a(dpics00339.o)
 .idata$4       0x004ee1c8        0x4 c:/mingw/bin/../lib/gcc/mingw32/6.3.0/../../../libgdi32.a(dpics00341.o)
 .idata$4       0x004ee1cc        0x4 c:/mingw/bin/../lib/gcc/mingw32/6.3.0/../../../libgdi32.a(dpics00342.o)
 .idata$4       0x004ee1d0        0x4 c:/mingw/bin/../lib/gcc/mingw32/6.3.0/../../../libgdi32.a(dpics00343.o)
 .idata$4       0x004ee1d4        0x4 c:/mingw/bin/../lib/gcc/mingw32/6.3.0/../../../libgdi32.a(dpict.o)
 .idata$4       0x004ee1d8        0x0 c:/mingw/bin/../lib/gcc/mingw32/6.3.0/../../../libimm32.a(dojch.o)
 .idata$4       0x004ee1d8        0x4 c:/mingw/bin/../lib/gcc/mingw32/6.3.0/../../../libimm32.a(dojcs00023.o)
 .idata$4       0x004ee1dc        0x4 c:/mingw/bin/../lib/gcc/mingw32/6.3.0/../../../libimm32.a(dojcs00025.o)
 .idata$4       0x004ee1e0        0x4 c:/mingw/bin/../lib/gcc/mingw32/6.3.0/../../../libimm32.a(dojcs00059.o)
 .idata$4       0x004ee1e4        0x4 c:/mingw/bin/../lib/gcc/mingw32/6.3.0/../../../libimm32.a(dojcs00061.o)
 .idata$4       0x004ee1e8        0x4 c:/mingw/bin/../lib/gcc/mingw32/6.3.0/../../../libimm32.a(dojcs00065.o)
 .idata$4       0x004ee1ec        0x4 c:/mingw/bin/../lib/gcc/mingw32/6.3.0/../../../libimm32.a(dojct.o)
 .idata$4       0x004ee1f0        0x0 c:/mingw/bin/../lib/gcc/mingw32/6.3.0/../../../libkernel32.a(dujch.o)
 .idata$4       0x004ee1f0        0x4 c:/mingw/bin/../lib/gcc/mingw32/6.3.0/../../../libkernel32.a(dujcs00054.o)
 .idata$4       0x004ee1f4        0x4 c:/mingw/bin/../lib/gcc/mingw32/6.3.0/../../../libkernel32.a(dujcs00079.o)
 .idata$4       0x004ee1f8        0x4 c:/mingw/bin/../lib/gcc/mingw32/6.3.0/../../../libkernel32.a(dujcs00082.o)
 .idata$4       0x004ee1fc        0x4 c:/mingw/bin/../lib/gcc/mingw32/6.3.0/../../../libkernel32.a(dujcs00129.o)
 .idata$4       0x004ee200        0x4 c:/mingw/bin/../lib/gcc/mingw32/6.3.0/../../../libkernel32.a(dujcs00135.o)
 .idata$4       0x004ee204        0x4 c:/mingw/bin/../lib/gcc/mingw32/6.3.0/../../../libkernel32.a(dujcs00136.o)
 .idata$4       0x004ee208        0x4 c:/mingw/bin/../lib/gcc/mingw32/6.3.0/../../../libkernel32.a(dujcs00160.o)
 .idata$4       0x004ee20c        0x4 c:/mingw/bin/../lib/gcc/mingw32/6.3.0/../../../libkernel32.a(dujcs00163.o)
 .idata$4       0x004ee210        0x4 c:/mingw/bin/../lib/gcc/mingw32/6.3.0/../../../libkernel32.a(dujcs00179.o)
 .idata$4       0x004ee214        0x4 c:/mingw/bin/../lib/gcc/mingw32/6.3.0/../../../libkernel32.a(dujcs00207.o)
 .idata$4       0x004ee218        0x4 c:/mingw/bin/../lib/gcc/mingw32/6.3.0/../../../libkernel32.a(dujcs00209.o)
 .idata$4       0x004ee21c        0x4 c:/mingw/bin/../lib/gcc/mingw32/6.3.0/../../../libkernel32.a(dujcs00236.o)
 .idata$4       0x004ee220        0x4 c:/mingw/bin/../lib/gcc/mingw32/6.3.0/../../../libkernel32.a(dujcs00279.o)
 .idata$4       0x004ee224        0x4 c:/mingw/bin/../lib/gcc/mingw32/6.3.0/../../../libkernel32.a(dujcs00300.o)
 .idata$4       0x004ee228        0x4 c:/mingw/bin/../lib/gcc/mingw32/6.3.0/../../../libkernel32.a(dujcs00304.o)
 .idata$4       0x004ee22c        0x4 c:/mingw/bin/../lib/gcc/mingw32/6.3.0/../../../libkernel32.a(dujcs00321.o)
 .idata$4       0x004ee230        0x4 c:/mingw/bin/../lib/gcc/mingw32/6.3.0/../../../libkernel32.a(dujcs00347.o)
 .idata$4       0x004ee234        0x4 c:/mingw/bin/../lib/gcc/mingw32/6.3.0/../../../libkernel32.a(dujcs00352.o)
 .idata$4       0x004ee238        0x4 c:/mingw/bin/../lib/gcc/mingw32/6.3.0/../../../libkernel32.a(dujcs00358.o)
 .idata$4       0x004ee23c        0x4 c:/mingw/bin/../lib/gcc/mingw32/6.3.0/../../../libkernel32.a(dujcs00368.o)
 .idata$4       0x004ee240        0x4 c:/mingw/bin/../lib/gcc/mingw32/6.3.0/../../../libkernel32.a(dujcs00386.o)
 .idata$4       0x004ee244        0x4 c:/mingw/bin/../lib/gcc/mingw32/6.3.0/../../../libkernel32.a(dujcs00388.o)
 .idata$4       0x004ee248        0x4 c:/mingw/bin/../lib/gcc/mingw32/6.3.0/../../../libkernel32.a(dujcs00426.o)
 .idata$4       0x004ee24c        0x4 c:/mingw/bin/../lib/gcc/mingw32/6.3.0/../../../libkernel32.a(dujcs00444.o)
 .idata$4       0x004ee250        0x4 c:/mingw/bin/../lib/gcc/mingw32/6.3.0/../../../libkernel32.a(dujcs00446.o)
 .idata$4       0x004ee254        0x4 c:/mingw/bin/../lib/gcc/mingw32/6.3.0/../../../libkernel32.a(dujcs00447.o)
 .idata$4       0x004ee258        0x4 c:/mingw/bin/../lib/gcc/mingw32/6.3.0/../../../libkernel32.a(dujcs00450.o)
 .idata$4       0x004ee25c        0x4 c:/mingw/bin/../lib/gcc/mingw32/6.3.0/../../../libkernel32.a(dujcs00451.o)
 .idata$4       0x004ee260        0x4 c:/mingw/bin/../lib/gcc/mingw32/6.3.0/../../../libkernel32.a(dujcs00473.o)
 .idata$4       0x004ee264        0x4 c:/mingw/bin/../lib/gcc/mingw32/6.3.0/../../../libkernel32.a(dujcs00482.o)
 .idata$4       0x004ee268        0x4 c:/mingw/bin/../lib/gcc/mingw32/6.3.0/../../../libkernel32.a(dujcs00510.o)
 .idata$4       0x004ee26c        0x4 c:/mingw/bin/../lib/gcc/mingw32/6.3.0/../../../libkernel32.a(dujcs00511.o)
 .idata$4       0x004ee270        0x4 c:/mingw/bin/../lib/gcc/mingw32/6.3.0/../../../libkernel32.a(dujcs00512.o)
 .idata$4       0x004ee274        0x4 c:/mingw/bin/../lib/gcc/mingw32/6.3.0/../../../libkernel32.a(dujcs00527.o)
 .idata$4       0x004ee278        0x4 c:/mingw/bin/../lib/gcc/mingw32/6.3.0/../../../libkernel32.a(dujcs00529.o)
 .idata$4       0x004ee27c        0x4 c:/mingw/bin/../lib/gcc/mingw32/6.3.0/../../../libkernel32.a(dujcs00563.o)
 .idata$4       0x004ee280        0x4 c:/mingw/bin/../lib/gcc/mingw32/6.3.0/../../../libkernel32.a(dujcs00564.o)
 .idata$4       0x004ee284        0x4 c:/mingw/bin/../lib/gcc/mingw32/6.3.0/../../../libkernel32.a(dujcs00577.o)
 .idata$4       0x004ee288        0x4 c:/mingw/bin/../lib/gcc/mingw32/6.3.0/../../../libkernel32.a(dujcs00590.o)
 .idata$4       0x004ee28c        0x4 c:/mingw/bin/../lib/gcc/mingw32/6.3.0/../../../libkernel32.a(dujcs00606.o)
 .idata$4       0x004ee290        0x4 c:/mingw/bin/../lib/gcc/mingw32/6.3.0/../../../libkernel32.a(dujcs00619.o)
 .idata$4       0x004ee294        0x4 c:/mingw/bin/../lib/gcc/mingw32/6.3.0/../../../libkernel32.a(dujcs00629.o)
 .idata$4       0x004ee298        0x4 c:/mingw/bin/../lib/gcc/mingw32/6.3.0/../../../libkernel32.a(dujcs00653.o)
 .idata$4       0x004ee29c        0x4 c:/mingw/bin/../lib/gcc/mingw32/6.3.0/../../../libkernel32.a(dujcs00656.o)
 .idata$4       0x004ee2a0        0x4 c:/mingw/bin/../lib/gcc/mingw32/6.3.0/../../../libkernel32.a(dujcs00682.o)
 .idata$4       0x004ee2a4        0x4 c:/mingw/bin/../lib/gcc/mingw32/6.3.0/../../../libkernel32.a(dujcs00687.o)
 .idata$4       0x004ee2a8        0x4 c:/mingw/bin/../lib/gcc/mingw32/6.3.0/../../../libkernel32.a(dujcs00694.o)
 .idata$4       0x004ee2ac        0x4 c:/mingw/bin/../lib/gcc/mingw32/6.3.0/../../../libkernel32.a(dujcs00698.o)
 .idata$4       0x004ee2b0        0x4 c:/mingw/bin/../lib/gcc/mingw32/6.3.0/../../../libkernel32.a(dujcs00699.o)
 .idata$4       0x004ee2b4        0x4 c:/mingw/bin/../lib/gcc/mingw32/6.3.0/../../../libkernel32.a(dujcs00705.o)
 .idata$4       0x004ee2b8        0x4 c:/mingw/bin/../lib/gcc/mingw32/6.3.0/../../../libkernel32.a(dujcs00734.o)
 .idata$4       0x004ee2bc        0x4 c:/mingw/bin/../lib/gcc/mingw32/6.3.0/../../../libkernel32.a(dujcs00744.o)
 .idata$4       0x004ee2c0        0x4 c:/mingw/bin/../lib/gcc/mingw32/6.3.0/../../../libkernel32.a(dujcs00763.o)
 .idata$4       0x004ee2c4        0x4 c:/mingw/bin/../lib/gcc/mingw32/6.3.0/../../../libkernel32.a(dujcs00814.o)
 .idata$4       0x004ee2c8        0x4 c:/mingw/bin/../lib/gcc/mingw32/6.3.0/../../../libkernel32.a(dujcs00817.o)
 .idata$4       0x004ee2cc        0x4 c:/mingw/bin/../lib/gcc/mingw32/6.3.0/../../../libkernel32.a(dujcs00818.o)
 .idata$4       0x004ee2d0        0x4 c:/mingw/bin/../lib/gcc/mingw32/6.3.0/../../../libkernel32.a(dujcs00827.o)
 .idata$4       0x004ee2d4        0x4 c:/mingw/bin/../lib/gcc/mingw32/6.3.0/../../../libkernel32.a(dujcs00844.o)
 .idata$4       0x004ee2d8        0x4 c:/mingw/bin/../lib/gcc/mingw32/6.3.0/../../../libkernel32.a(dujcs00859.o)
 .idata$4       0x004ee2dc        0x4 c:/mingw/bin/../lib/gcc/mingw32/6.3.0/../../../libkernel32.a(dujcs00860.o)
 .idata$4       0x004ee2e0        0x4 c:/mingw/bin/../lib/gcc/mingw32/6.3.0/../../../libkernel32.a(dujcs00922.o)
 .idata$4       0x004ee2e4        0x4 c:/mingw/bin/../lib/gcc/mingw32/6.3.0/../../../libkernel32.a(dujcs00947.o)
 .idata$4       0x004ee2e8        0x4 c:/mingw/bin/../lib/gcc/mingw32/6.3.0/../../../libkernel32.a(dujcs01010.o)
 .idata$4       0x004ee2ec        0x4 c:/mingw/bin/../lib/gcc/mingw32/6.3.0/../../../libkernel32.a(dujcs01013.o)
 .idata$4       0x004ee2f0        0x4 c:/mingw/bin/../lib/gcc/mingw32/6.3.0/../../../libkernel32.a(dujcs01014.o)
 .idata$4       0x004ee2f4        0x4 c:/mingw/bin/../lib/gcc/mingw32/6.3.0/../../../libkernel32.a(dujcs01052.o)
 .idata$4       0x004ee2f8        0x4 c:/mingw/bin/../lib/gcc/mingw32/6.3.0/../../../libkernel32.a(dujcs01065.o)
 .idata$4       0x004ee2fc        0x4 c:/mingw/bin/../lib/gcc/mingw32/6.3.0/../../../libkernel32.a(dujcs01088.o)
 .idata$4       0x004ee300        0x4 c:/mingw/bin/../lib/gcc/mingw32/6.3.0/../../../libkernel32.a(dujcs01140.o)
 .idata$4       0x004ee304        0x4 c:/mingw/bin/../lib/gcc/mingw32/6.3.0/../../../libkernel32.a(dujcs01152.o)
 .idata$4       0x004ee308        0x4 c:/mingw/bin/../lib/gcc/mingw32/6.3.0/../../../libkernel32.a(dujcs01173.o)
 .idata$4       0x004ee30c        0x4 c:/mingw/bin/../lib/gcc/mingw32/6.3.0/../../../libkernel32.a(dujcs01188.o)
 .idata$4       0x004ee310        0x4 c:/mingw/bin/../lib/gcc/mingw32/6.3.0/../../../libkernel32.a(dujcs01213.o)
 .idata$4       0x004ee314        0x4 c:/mingw/bin/../lib/gcc/mingw32/6.3.0/../../../libkernel32.a(dujcs01215.o)
 .idata$4       0x004ee318        0x4 c:/mingw/bin/../lib/gcc/mingw32/6.3.0/../../../libkernel32.a(dujcs01223.o)
 .idata$4       0x004ee31c        0x4 c:/mingw/bin/../lib/gcc/mingw32/6.3.0/../../../libkernel32.a(dujcs01247.o)
 .idata$4       0x004ee320        0x4 c:/mingw/bin/../lib/gcc/mingw32/6.3.0/../../../libkernel32.a(dujcs01267.o)
 .idata$4       0x004ee324        0x4 c:/mingw/bin/../lib/gcc/mingw32/6.3.0/../../../libkernel32.a(dujct.o)
 .idata$4       0x004ee328        0x0 c:/mingw/bin/../lib/gcc/mingw32/6.3.0/../../../libmoldname.a(dagwbh.o)
 .idata$4       0x004ee328        0x4 c:/mingw/bin/../lib/gcc/mingw32/6.3.0/../../../libmoldname.a(dagwbs00080.o)
 .idata$4       0x004ee32c        0x4 c:/mingw/bin/../lib/gcc/mingw32/6.3.0/../../../libmoldname.a(dagwbs00082.o)
 .idata$4       0x004ee330        0x4 c:/mingw/bin/../lib/gcc/mingw32/6.3.0/../../../libmoldname.a(dagwbt.o)
 .idata$4       0x004ee334        0x0 c:/mingw/bin/../lib/gcc/mingw32/6.3.0/../../../libmsvcrt.a(djpvbh.o)
 .idata$4       0x004ee334        0x4 c:/mingw/bin/../lib/gcc/mingw32/6.3.0/../../../libmsvcrt.a(djpvbs00088.o)
 .idata$4       0x004ee338        0x4 c:/mingw/bin/../lib/gcc/mingw32/6.3.0/../../../libmsvcrt.a(djpvbs00119.o)
 .idata$4       0x004ee33c        0x4 c:/mingw/bin/../lib/gcc/mingw32/6.3.0/../../../libmsvcrt.a(djpvbs00131.o)
 .idata$4       0x004ee340        0x4 c:/mingw/bin/../lib/gcc/mingw32/6.3.0/../../../libmsvcrt.a(djpvbs00133.o)
 .idata$4       0x004ee344        0x4 c:/mingw/bin/../lib/gcc/mingw32/6.3.0/../../../libmsvcrt.a(djpvbs00153.o)
 .idata$4       0x004ee348        0x4 c:/mingw/bin/../lib/gcc/mingw32/6.3.0/../../../libmsvcrt.a(djpvbs00201.o)
 .idata$4       0x004ee34c        0x4 c:/mingw/bin/../lib/gcc/mingw32/6.3.0/../../../libmsvcrt.a(djpvbs00219.o)
 .idata$4       0x004ee350        0x4 c:/mingw/bin/../lib/gcc/mingw32/6.3.0/../../../libmsvcrt.a(djpvbs00285.o)
 .idata$4       0x004ee354        0x4 c:/mingw/bin/../lib/gcc/mingw32/6.3.0/../../../libmsvcrt.a(djpvbs00324.o)
 .idata$4       0x004ee358        0x4 c:/mingw/bin/../lib/gcc/mingw32/6.3.0/../../../libmsvcrt.a(djpvbs00350.o)
 .idata$4       0x004ee35c        0x4 c:/mingw/bin/../lib/gcc/mingw32/6.3.0/../../../libmsvcrt.a(djpvbs00417.o)
 .idata$4       0x004ee360        0x4 c:/mingw/bin/../lib/gcc/mingw32/6.3.0/../../../libmsvcrt.a(djpvbs00422.o)
 .idata$4       0x004ee364        0x4 c:/mingw/bin/../lib/gcc/mingw32/6.3.0/../../../libmsvcrt.a(djpvbs00689.o)
 .idata$4       0x004ee368        0x4 c:/mingw/bin/../lib/gcc/mingw32/6.3.0/../../../libmsvcrt.a(djpvbs00698.o)
 .idata$4       0x004ee36c        0x4 c:/mingw/bin/../lib/gcc/mingw32/6.3.0/../../../libmsvcrt.a(djpvbs00753.o)
 .idata$4       0x004ee370        0x4 c:/mingw/bin/../lib/gcc/mingw32/6.3.0/../../../libmsvcrt.a(djpvbs00803.o)
 .idata$4       0x004ee374        0x4 c:/mingw/bin/../lib/gcc/mingw32/6.3.0/../../../libmsvcrt.a(djpvbs00813.o)
 .idata$4       0x004ee378        0x4 c:/mingw/bin/../lib/gcc/mingw32/6.3.0/../../../libmsvcrt.a(djpvbs01083.o)
 .idata$4       0x004ee37c        0x4 c:/mingw/bin/../lib/gcc/mingw32/6.3.0/../../../libmsvcrt.a(djpvbs01091.o)
 .idata$4       0x004ee380        0x4 c:/mingw/bin/../lib/gcc/mingw32/6.3.0/../../../libmsvcrt.a(djpvbs01093.o)
 .idata$4       0x004ee384        0x4 c:/mingw/bin/../lib/gcc/mingw32/6.3.0/../../../libmsvcrt.a(djpvbs01098.o)
 .idata$4       0x004ee388        0x4 c:/mingw/bin/../lib/gcc/mingw32/6.3.0/../../../libmsvcrt.a(djpvbs01106.o)
 .idata$4       0x004ee38c        0x4 c:/mingw/bin/../lib/gcc/mingw32/6.3.0/../../../libmsvcrt.a(djpvbs01108.o)
 .idata$4       0x004ee390        0x4 c:/mingw/bin/../lib/gcc/mingw32/6.3.0/../../../libmsvcrt.a(djpvbs01111.o)
 .idata$4       0x004ee394        0x4 c:/mingw/bin/../lib/gcc/mingw32/6.3.0/../../../libmsvcrt.a(djpvbs01114.o)
 .idata$4       0x004ee398        0x4 c:/mingw/bin/../lib/gcc/mingw32/6.3.0/../../../libmsvcrt.a(djpvbs01115.o)
 .idata$4       0x004ee39c        0x4 c:/mingw/bin/../lib/gcc/mingw32/6.3.0/../../../libmsvcrt.a(djpvbs01117.o)
 .idata$4       0x004ee3a0        0x4 c:/mingw/bin/../lib/gcc/mingw32/6.3.0/../../../libmsvcrt.a(djpvbs01122.o)
 .idata$4       0x004ee3a4        0x4 c:/mingw/bin/../lib/gcc/mingw32/6.3.0/../../../libmsvcrt.a(djpvbs01126.o)
 .idata$4       0x004ee3a8        0x4 c:/mingw/bin/../lib/gcc/mingw32/6.3.0/../../../libmsvcrt.a(djpvbs01127.o)
 .idata$4       0x004ee3ac        0x4 c:/mingw/bin/../lib/gcc/mingw32/6.3.0/../../../libmsvcrt.a(djpvbs01130.o)
 .idata$4       0x004ee3b0        0x4 c:/mingw/bin/../lib/gcc/mingw32/6.3.0/../../../libmsvcrt.a(djpvbs01131.o)
 .idata$4       0x004ee3b4        0x4 c:/mingw/bin/../lib/gcc/mingw32/6.3.0/../../../libmsvcrt.a(djpvbs01142.o)
 .idata$4       0x004ee3b8        0x4 c:/mingw/bin/../lib/gcc/mingw32/6.3.0/../../../libmsvcrt.a(djpvbs01147.o)
 .idata$4       0x004ee3bc        0x4 c:/mingw/bin/../lib/gcc/mingw32/6.3.0/../../../libmsvcrt.a(djpvbs01169.o)
 .idata$4       0x004ee3c0        0x4 c:/mingw/bin/../lib/gcc/mingw32/6.3.0/../../../libmsvcrt.a(djpvbs01182.o)
 .idata$4       0x004ee3c4        0x4 c:/mingw/bin/../lib/gcc/mingw32/6.3.0/../../../libmsvcrt.a(djpvbs01187.o)
 .idata$4       0x004ee3c8        0x4 c:/mingw/bin/../lib/gcc/mingw32/6.3.0/../../../libmsvcrt.a(djpvbs01194.o)
 .idata$4       0x004ee3cc        0x4 c:/mingw/bin/../lib/gcc/mingw32/6.3.0/../../../libmsvcrt.a(djpvbs01197.o)
 .idata$4       0x004ee3d0        0x4 c:/mingw/bin/../lib/gcc/mingw32/6.3.0/../../../libmsvcrt.a(djpvbs01198.o)
 .idata$4       0x004ee3d4        0x4 c:/mingw/bin/../lib/gcc/mingw32/6.3.0/../../../libmsvcrt.a(djpvbs01199.o)
 .idata$4       0x004ee3d8        0x4 c:/mingw/bin/../lib/gcc/mingw32/6.3.0/../../../libmsvcrt.a(djpvbs01201.o)
 .idata$4       0x004ee3dc        0x4 c:/mingw/bin/../lib/gcc/mingw32/6.3.0/../../../libmsvcrt.a(djpvbs01203.o)
 .idata$4       0x004ee3e0        0x4 c:/mingw/bin/../lib/gcc/mingw32/6.3.0/../../../libmsvcrt.a(djpvbs01215.o)
 .idata$4       0x004ee3e4        0x4 c:/mingw/bin/../lib/gcc/mingw32/6.3.0/../../../libmsvcrt.a(djpvbs01220.o)
 .idata$4       0x004ee3e8        0x4 c:/mingw/bin/../lib/gcc/mingw32/6.3.0/../../../libmsvcrt.a(djpvbs01223.o)
 .idata$4       0x004ee3ec        0x4 c:/mingw/bin/../lib/gcc/mingw32/6.3.0/../../../libmsvcrt.a(djpvbs01227.o)
 .idata$4       0x004ee3f0        0x4 c:/mingw/bin/../lib/gcc/mingw32/6.3.0/../../../libmsvcrt.a(djpvbs01229.o)
 .idata$4       0x004ee3f4        0x4 c:/mingw/bin/../lib/gcc/mingw32/6.3.0/../../../libmsvcrt.a(djpvbs01236.o)
 .idata$4       0x004ee3f8        0x4 c:/mingw/bin/../lib/gcc/mingw32/6.3.0/../../../libmsvcrt.a(djpvbs01238.o)
 .idata$4       0x004ee3fc        0x4 c:/mingw/bin/../lib/gcc/mingw32/6.3.0/../../../libmsvcrt.a(djpvbs01240.o)
 .idata$4       0x004ee400        0x4 c:/mingw/bin/../lib/gcc/mingw32/6.3.0/../../../libmsvcrt.a(djpvbs01241.o)
 .idata$4       0x004ee404        0x4 c:/mingw/bin/../lib/gcc/mingw32/6.3.0/../../../libmsvcrt.a(djpvbs01242.o)
 .idata$4       0x004ee408        0x4 c:/mingw/bin/../lib/gcc/mingw32/6.3.0/../../../libmsvcrt.a(djpvbs01243.o)
 .idata$4       0x004ee40c        0x4 c:/mingw/bin/../lib/gcc/mingw32/6.3.0/../../../libmsvcrt.a(djpvbs01245.o)
 .idata$4       0x004ee410        0x4 c:/mingw/bin/../lib/gcc/mingw32/6.3.0/../../../libmsvcrt.a(djpvbs01248.o)
 .idata$4       0x004ee414        0x4 c:/mingw/bin/../lib/gcc/mingw32/6.3.0/../../../libmsvcrt.a(djpvbs01249.o)
 .idata$4       0x004ee418        0x4 c:/mingw/bin/../lib/gcc/mingw32/6.3.0/../../../libmsvcrt.a(djpvbs01252.o)
 .idata$4       0x004ee41c        0x4 c:/mingw/bin/../lib/gcc/mingw32/6.3.0/../../../libmsvcrt.a(djpvbs01253.o)
 .idata$4       0x004ee420        0x4 c:/mingw/bin/../lib/gcc/mingw32/6.3.0/../../../libmsvcrt.a(djpvbs01256.o)
 .idata$4       0x004ee424        0x4 c:/mingw/bin/../lib/gcc/mingw32/6.3.0/../../../libmsvcrt.a(djpvbs01257.o)
 .idata$4       0x004ee428        0x4 c:/mingw/bin/../lib/gcc/mingw32/6.3.0/../../../libmsvcrt.a(djpvbs01258.o)
 .idata$4       0x004ee42c        0x4 c:/mingw/bin/../lib/gcc/mingw32/6.3.0/../../../libmsvcrt.a(djpvbs01262.o)
 .idata$4       0x004ee430        0x4 c:/mingw/bin/../lib/gcc/mingw32/6.3.0/../../../libmsvcrt.a(djpvbs01263.o)
 .idata$4       0x004ee434        0x4 c:/mingw/bin/../lib/gcc/mingw32/6.3.0/../../../libmsvcrt.a(djpvbs01269.o)
 .idata$4       0x004ee438        0x4 c:/mingw/bin/../lib/gcc/mingw32/6.3.0/../../../libmsvcrt.a(djpvbs01272.o)
 .idata$4       0x004ee43c        0x4 c:/mingw/bin/../lib/gcc/mingw32/6.3.0/../../../libmsvcrt.a(djpvbs01277.o)
 .idata$4       0x004ee440        0x4 c:/mingw/bin/../lib/gcc/mingw32/6.3.0/../../../libmsvcrt.a(djpvbs01278.o)
 .idata$4       0x004ee444        0x4 c:/mingw/bin/../lib/gcc/mingw32/6.3.0/../../../libmsvcrt.a(djpvbs01281.o)
 .idata$4       0x004ee448        0x4 c:/mingw/bin/../lib/gcc/mingw32/6.3.0/../../../libmsvcrt.a(djpvbs01284.o)
 .idata$4       0x004ee44c        0x4 c:/mingw/bin/../lib/gcc/mingw32/6.3.0/../../../libmsvcrt.a(djpvbs01308.o)
 .idata$4       0x004ee450        0x4 c:/mingw/bin/../lib/gcc/mingw32/6.3.0/../../../libmsvcrt.a(djpvbs01311.o)
 .idata$4       0x004ee454        0x4 c:/mingw/bin/../lib/gcc/mingw32/6.3.0/../../../libmsvcrt.a(djpvbs01325.o)
 .idata$4       0x004ee458        0x4 c:/mingw/bin/../lib/gcc/mingw32/6.3.0/../../../libmsvcrt.a(djpvbt.o)
 .idata$4       0x004ee45c        0x0 c:/mingw/bin/../lib/gcc/mingw32/6.3.0/../../../libole32.a(damch.o)
 .idata$4       0x004ee45c        0x4 c:/mingw/bin/../lib/gcc/mingw32/6.3.0/../../../libole32.a(damcs00012.o)
 .idata$4       0x004ee460        0x4 c:/mingw/bin/../lib/gcc/mingw32/6.3.0/../../../libole32.a(damcs00037.o)
 .idata$4       0x004ee464        0x4 c:/mingw/bin/../lib/gcc/mingw32/6.3.0/../../../libole32.a(damcs00072.o)
 .idata$4       0x004ee468        0x4 c:/mingw/bin/../lib/gcc/mingw32/6.3.0/../../../libole32.a(damct.o)
 .idata$4       0x004ee46c        0x0 c:/mingw/bin/../lib/gcc/mingw32/6.3.0/../../../libshell32.a(duoch.o)
 .idata$4       0x004ee46c        0x4 c:/mingw/bin/../lib/gcc/mingw32/6.3.0/../../../libshell32.a(duocs00144.o)
 .idata$4       0x004ee470        0x4 c:/mingw/bin/../lib/gcc/mingw32/6.3.0/../../../libshell32.a(duoct.o)
 .idata$4       0x004ee474        0x0 c:/mingw/bin/../lib/gcc/mingw32/6.3.0/../../../libuser32.a(dtpch.o)
 .idata$4       0x004ee474        0x4 c:/mingw/bin/../lib/gcc/mingw32/6.3.0/../../../libuser32.a(dtpcs00006.o)
 .idata$4       0x004ee478        0x4 c:/mingw/bin/../lib/gcc/mingw32/6.3.0/../../../libuser32.a(dtpcs00011.o)
 .idata$4       0x004ee47c        0x4 c:/mingw/bin/../lib/gcc/mingw32/6.3.0/../../../libuser32.a(dtpcs00053.o)
 .idata$4       0x004ee480        0x4 c:/mingw/bin/../lib/gcc/mingw32/6.3.0/../../../libuser32.a(dtpcs00054.o)
 .idata$4       0x004ee484        0x4 c:/mingw/bin/../lib/gcc/mingw32/6.3.0/../../../libuser32.a(dtpcs00056.o)
 .idata$4       0x004ee488        0x4 c:/mingw/bin/../lib/gcc/mingw32/6.3.0/../../../libuser32.a(dtpcs00061.o)
 .idata$4       0x004ee48c        0x4 c:/mingw/bin/../lib/gcc/mingw32/6.3.0/../../../libuser32.a(dtpcs00074.o)
 .idata$4       0x004ee490        0x4 c:/mingw/bin/../lib/gcc/mingw32/6.3.0/../../../libuser32.a(dtpcs00080.o)
 .idata$4       0x004ee494        0x4 c:/mingw/bin/../lib/gcc/mingw32/6.3.0/../../../libuser32.a(dtpcs00088.o)
 .idata$4       0x004ee498        0x4 c:/mingw/bin/../lib/gcc/mingw32/6.3.0/../../../libuser32.a(dtpcs00089.o)
 .idata$4       0x004ee49c        0x4 c:/mingw/bin/../lib/gcc/mingw32/6.3.0/../../../libuser32.a(dtpcs00090.o)
 .idata$4       0x004ee4a0        0x4 c:/mingw/bin/../lib/gcc/mingw32/6.3.0/../../../libuser32.a(dtpcs00091.o)
 .idata$4       0x004ee4a4        0x4 c:/mingw/bin/../lib/gcc/mingw32/6.3.0/../../../libuser32.a(dtpcs00127.o)
 .idata$4       0x004ee4a8        0x4 c:/mingw/bin/../lib/gcc/mingw32/6.3.0/../../../libuser32.a(dtpcs00134.o)
 .idata$4       0x004ee4ac        0x4 c:/mingw/bin/../lib/gcc/mingw32/6.3.0/../../../libuser32.a(dtpcs00135.o)
 .idata$4       0x004ee4b0        0x4 c:/mingw/bin/../lib/gcc/mingw32/6.3.0/../../../libuser32.a(dtpcs00137.o)
 .idata$4       0x004ee4b4        0x4 c:/mingw/bin/../lib/gcc/mingw32/6.3.0/../../../libuser32.a(dtpcs00140.o)
 .idata$4       0x004ee4b8        0x4 c:/mingw/bin/../lib/gcc/mingw32/6.3.0/../../../libuser32.a(dtpcs00142.o)
 .idata$4       0x004ee4bc        0x4 c:/mingw/bin/../lib/gcc/mingw32/6.3.0/../../../libuser32.a(dtpcs00144.o)
 .idata$4       0x004ee4c0        0x4 c:/mingw/bin/../lib/gcc/mingw32/6.3.0/../../../libuser32.a(dtpcs00147.o)
 .idata$4       0x004ee4c4        0x4 c:/mingw/bin/../lib/gcc/mingw32/6.3.0/../../../libuser32.a(dtpcs00149.o)
 .idata$4       0x004ee4c8        0x4 c:/mingw/bin/../lib/gcc/mingw32/6.3.0/../../../libuser32.a(dtpcs00150.o)
 .idata$4       0x004ee4cc        0x4 c:/mingw/bin/../lib/gcc/mingw32/6.3.0/../../../libuser32.a(dtpcs00163.o)
 .idata$4       0x004ee4d0        0x4 c:/mingw/bin/../lib/gcc/mingw32/6.3.0/../../../libuser32.a(dtpcs00168.o)
 .idata$4       0x004ee4d4        0x4 c:/mingw/bin/../lib/gcc/mingw32/6.3.0/../../../libuser32.a(dtpcs00177.o)
 .idata$4       0x004ee4d8        0x4 c:/mingw/bin/../lib/gcc/mingw32/6.3.0/../../../libuser32.a(dtpcs00178.o)
 .idata$4       0x004ee4dc        0x4 c:/mingw/bin/../lib/gcc/mingw32/6.3.0/../../../libuser32.a(dtpcs00180.o)
 .idata$4       0x004ee4e0        0x4 c:/mingw/bin/../lib/gcc/mingw32/6.3.0/../../../libuser32.a(dtpcs00182.o)
 .idata$4       0x004ee4e4        0x4 c:/mingw/bin/../lib/gcc/mingw32/6.3.0/../../../libuser32.a(dtpcs00184.o)
 .idata$4       0x004ee4e8        0x4 c:/mingw/bin/../lib/gcc/mingw32/6.3.0/../../../libuser32.a(dtpcs00210.o)
 .idata$4       0x004ee4ec        0x4 c:/mingw/bin/../lib/gcc/mingw32/6.3.0/../../../libuser32.a(dtpcs00214.o)
 .idata$4       0x004ee4f0        0x4 c:/mingw/bin/../lib/gcc/mingw32/6.3.0/../../../libuser32.a(dtpcs00224.o)
 .idata$4       0x004ee4f4        0x4 c:/mingw/bin/../lib/gcc/mingw32/6.3.0/../../../libuser32.a(dtpcs00225.o)
 .idata$4       0x004ee4f8        0x4 c:/mingw/bin/../lib/gcc/mingw32/6.3.0/../../../libuser32.a(dtpcs00236.o)
 .idata$4       0x004ee4fc        0x4 c:/mingw/bin/../lib/gcc/mingw32/6.3.0/../../../libuser32.a(dtpcs00238.o)
 .idata$4       0x004ee500        0x4 c:/mingw/bin/../lib/gcc/mingw32/6.3.0/../../../libuser32.a(dtpcs00241.o)
 .idata$4       0x004ee504        0x4 c:/mingw/bin/../lib/gcc/mingw32/6.3.0/../../../libuser32.a(dtpcs00247.o)
 .idata$4       0x004ee508        0x4 c:/mingw/bin/../lib/gcc/mingw32/6.3.0/../../../libuser32.a(dtpcs00248.o)
 .idata$4       0x004ee50c        0x4 c:/mingw/bin/../lib/gcc/mingw32/6.3.0/../../../libuser32.a(dtpcs00250.o)
 .idata$4       0x004ee510        0x4 c:/mingw/bin/../lib/gcc/mingw32/6.3.0/../../../libuser32.a(dtpcs00253.o)
 .idata$4       0x004ee514        0x4 c:/mingw/bin/../lib/gcc/mingw32/6.3.0/../../../libuser32.a(dtpcs00255.o)
 .idata$4       0x004ee518        0x4 c:/mingw/bin/../lib/gcc/mingw32/6.3.0/../../../libuser32.a(dtpcs00257.o)
 .idata$4       0x004ee51c        0x4 c:/mingw/bin/../lib/gcc/mingw32/6.3.0/../../../libuser32.a(dtpcs00259.o)
 .idata$4       0x004ee520        0x4 c:/mingw/bin/../lib/gcc/mingw32/6.3.0/../../../libuser32.a(dtpcs00269.o)
 .idata$4       0x004ee524        0x4 c:/mingw/bin/../lib/gcc/mingw32/6.3.0/../../../libuser32.a(dtpcs00273.o)
 .idata$4       0x004ee528        0x4 c:/mingw/bin/../lib/gcc/mingw32/6.3.0/../../../libuser32.a(dtpcs00293.o)
 .idata$4       0x004ee52c        0x4 c:/mingw/bin/../lib/gcc/mingw32/6.3.0/../../../libuser32.a(dtpcs00296.o)
 .idata$4       0x004ee530        0x4 c:/mingw/bin/../lib/gcc/mingw32/6.3.0/../../../libuser32.a(dtpcs00304.o)
 .idata$4       0x004ee534        0x4 c:/mingw/bin/../lib/gcc/mingw32/6.3.0/../../../libuser32.a(dtpcs00310.o)
 .idata$4       0x004ee538        0x4 c:/mingw/bin/../lib/gcc/mingw32/6.3.0/../../../libuser32.a(dtpcs00318.o)
 .idata$4       0x004ee53c        0x4 c:/mingw/bin/../lib/gcc/mingw32/6.3.0/../../../libuser32.a(dtpcs00323.o)
 .idata$4       0x004ee540        0x4 c:/mingw/bin/../lib/gcc/mingw32/6.3.0/../../../libuser32.a(dtpcs00325.o)
 .idata$4       0x004ee544        0x4 c:/mingw/bin/../lib/gcc/mingw32/6.3.0/../../../libuser32.a(dtpcs00342.o)
 .idata$4       0x004ee548        0x4 c:/mingw/bin/../lib/gcc/mingw32/6.3.0/../../../libuser32.a(dtpcs00347.o)
 .idata$4       0x004ee54c        0x4 c:/mingw/bin/../lib/gcc/mingw32/6.3.0/../../../libuser32.a(dtpcs00348.o)
 .idata$4       0x004ee550        0x4 c:/mingw/bin/../lib/gcc/mingw32/6.3.0/../../../libuser32.a(dtpcs00350.o)
 .idata$4       0x004ee554        0x4 c:/mingw/bin/../lib/gcc/mingw32/6.3.0/../../../libuser32.a(dtpcs00351.o)
 .idata$4       0x004ee558        0x4 c:/mingw/bin/../lib/gcc/mingw32/6.3.0/../../../libuser32.a(dtpcs00358.o)
 .idata$4       0x004ee55c        0x4 c:/mingw/bin/../lib/gcc/mingw32/6.3.0/../../../libuser32.a(dtpcs00364.o)
 .idata$4       0x004ee560        0x4 c:/mingw/bin/../lib/gcc/mingw32/6.3.0/../../../libuser32.a(dtpcs00370.o)
 .idata$4       0x004ee564        0x4 c:/mingw/bin/../lib/gcc/mingw32/6.3.0/../../../libuser32.a(dtpcs00384.o)
 .idata$4       0x004ee568        0x4 c:/mingw/bin/../lib/gcc/mingw32/6.3.0/../../../libuser32.a(dtpcs00386.o)
 .idata$4       0x004ee56c        0x4 c:/mingw/bin/../lib/gcc/mingw32/6.3.0/../../../libuser32.a(dtpcs00389.o)
 .idata$4       0x004ee570        0x4 c:/mingw/bin/../lib/gcc/mingw32/6.3.0/../../../libuser32.a(dtpcs00394.o)
 .idata$4       0x004ee574        0x4 c:/mingw/bin/../lib/gcc/mingw32/6.3.0/../../../libuser32.a(dtpcs00398.o)
 .idata$4       0x004ee578        0x4 c:/mingw/bin/../lib/gcc/mingw32/6.3.0/../../../libuser32.a(dtpcs00400.o)
 .idata$4       0x004ee57c        0x4 c:/mingw/bin/../lib/gcc/mingw32/6.3.0/../../../libuser32.a(dtpcs00405.o)
 .idata$4       0x004ee580        0x4 c:/mingw/bin/../lib/gcc/mingw32/6.3.0/../../../libuser32.a(dtpcs00409.o)
 .idata$4       0x004ee584        0x4 c:/mingw/bin/../lib/gcc/mingw32/6.3.0/../../../libuser32.a(dtpcs00411.o)
 .idata$4       0x004ee588        0x4 c:/mingw/bin/../lib/gcc/mingw32/6.3.0/../../../libuser32.a(dtpcs00426.o)
 .idata$4       0x004ee58c        0x4 c:/mingw/bin/../lib/gcc/mingw32/6.3.0/../../../libuser32.a(dtpcs00433.o)
 .idata$4       0x004ee590        0x4 c:/mingw/bin/../lib/gcc/mingw32/6.3.0/../../../libuser32.a(dtpcs00434.o)
 .idata$4       0x004ee594        0x4 c:/mingw/bin/../lib/gcc/mingw32/6.3.0/../../../libuser32.a(dtpcs00437.o)
 .idata$4       0x004ee598        0x4 c:/mingw/bin/../lib/gcc/mingw32/6.3.0/../../../libuser32.a(dtpcs00445.o)
 .idata$4       0x004ee59c        0x4 c:/mingw/bin/../lib/gcc/mingw32/6.3.0/../../../libuser32.a(dtpcs00446.o)
 .idata$4       0x004ee5a0        0x4 c:/mingw/bin/../lib/gcc/mingw32/6.3.0/../../../libuser32.a(dtpcs00455.o)
 .idata$4       0x004ee5a4        0x4 c:/mingw/bin/../lib/gcc/mingw32/6.3.0/../../../libuser32.a(dtpcs00464.o)
 .idata$4       0x004ee5a8        0x4 c:/mingw/bin/../lib/gcc/mingw32/6.3.0/../../../libuser32.a(dtpcs00465.o)
 .idata$4       0x004ee5ac        0x4 c:/mingw/bin/../lib/gcc/mingw32/6.3.0/../../../libuser32.a(dtpcs00466.o)
 .idata$4       0x004ee5b0        0x4 c:/mingw/bin/../lib/gcc/mingw32/6.3.0/../../../libuser32.a(dtpcs00468.o)
 .idata$4       0x004ee5b4        0x4 c:/mingw/bin/../lib/gcc/mingw32/6.3.0/../../../libuser32.a(dtpcs00479.o)
 .idata$4       0x004ee5b8        0x4 c:/mingw/bin/../lib/gcc/mingw32/6.3.0/../../../libuser32.a(dtpcs00482.o)
 .idata$4       0x004ee5bc        0x4 c:/mingw/bin/../lib/gcc/mingw32/6.3.0/../../../libuser32.a(dtpcs00483.o)
 .idata$4       0x004ee5c0        0x4 c:/mingw/bin/../lib/gcc/mingw32/6.3.0/../../../libuser32.a(dtpcs00491.o)
 .idata$4       0x004ee5c4        0x4 c:/mingw/bin/../lib/gcc/mingw32/6.3.0/../../../libuser32.a(dtpcs00493.o)
 .idata$4       0x004ee5c8        0x4 c:/mingw/bin/../lib/gcc/mingw32/6.3.0/../../../libuser32.a(dtpcs00494.o)
 .idata$4       0x004ee5cc        0x4 c:/mingw/bin/../lib/gcc/mingw32/6.3.0/../../../libuser32.a(dtpcs00500.o)
 .idata$4       0x004ee5d0        0x4 c:/mingw/bin/../lib/gcc/mingw32/6.3.0/../../../libuser32.a(dtpcs00505.o)
 .idata$4       0x004ee5d4        0x4 c:/mingw/bin/../lib/gcc/mingw32/6.3.0/../../../libuser32.a(dtpcs00508.o)
 .idata$4       0x004ee5d8        0x4 c:/mingw/bin/../lib/gcc/mingw32/6.3.0/../../../libuser32.a(dtpcs00516.o)
 .idata$4       0x004ee5dc        0x4 c:/mingw/bin/../lib/gcc/mingw32/6.3.0/../../../libuser32.a(dtpcs00517.o)
 .idata$4       0x004ee5e0        0x4 c:/mingw/bin/../lib/gcc/mingw32/6.3.0/../../../libuser32.a(dtpcs00519.o)
 .idata$4       0x004ee5e4        0x4 c:/mingw/bin/../lib/gcc/mingw32/6.3.0/../../../libuser32.a(dtpcs00520.o)
 .idata$4       0x004ee5e8        0x4 c:/mingw/bin/../lib/gcc/mingw32/6.3.0/../../../libuser32.a(dtpcs00523.o)
 .idata$4       0x004ee5ec        0x4 c:/mingw/bin/../lib/gcc/mingw32/6.3.0/../../../libuser32.a(dtpcs00525.o)
 .idata$4       0x004ee5f0        0x4 c:/mingw/bin/../lib/gcc/mingw32/6.3.0/../../../libuser32.a(dtpcs00530.o)
 .idata$4       0x004ee5f4        0x4 c:/mingw/bin/../lib/gcc/mingw32/6.3.0/../../../libuser32.a(dtpcs00533.o)
 .idata$4       0x004ee5f8        0x4 c:/mingw/bin/../lib/gcc/mingw32/6.3.0/../../../libuser32.a(dtpcs00534.o)
 .idata$4       0x004ee5fc        0x4 c:/mingw/bin/../lib/gcc/mingw32/6.3.0/../../../libuser32.a(dtpcs00535.o)
 .idata$4       0x004ee600        0x4 c:/mingw/bin/../lib/gcc/mingw32/6.3.0/../../../libuser32.a(dtpcs00554.o)
 .idata$4       0x004ee604        0x4 c:/mingw/bin/../lib/gcc/mingw32/6.3.0/../../../libuser32.a(dtpcs00563.o)
 .idata$4       0x004ee608        0x4 c:/mingw/bin/../lib/gcc/mingw32/6.3.0/../../../libuser32.a(dtpcs00569.o)
 .idata$4       0x004ee60c        0x4 c:/mingw/bin/../lib/gcc/mingw32/6.3.0/../../../libuser32.a(dtpcs00571.o)
 .idata$4       0x004ee610        0x4 c:/mingw/bin/../lib/gcc/mingw32/6.3.0/../../../libuser32.a(dtpcs00572.o)
 .idata$4       0x004ee614        0x4 c:/mingw/bin/../lib/gcc/mingw32/6.3.0/../../../libuser32.a(dtpcs00574.o)
 .idata$4       0x004ee618        0x4 c:/mingw/bin/../lib/gcc/mingw32/6.3.0/../../../libuser32.a(dtpcs00581.o)
 .idata$4       0x004ee61c        0x4 c:/mingw/bin/../lib/gcc/mingw32/6.3.0/../../../libuser32.a(dtpcs00582.o)
 .idata$4       0x004ee620        0x4 c:/mingw/bin/../lib/gcc/mingw32/6.3.0/../../../libuser32.a(dtpcs00585.o)
 .idata$4       0x004ee624        0x4 c:/mingw/bin/../lib/gcc/mingw32/6.3.0/../../../libuser32.a(dtpcs00591.o)
 .idata$4       0x004ee628        0x4 c:/mingw/bin/../lib/gcc/mingw32/6.3.0/../../../libuser32.a(dtpcs00598.o)
 .idata$4       0x004ee62c        0x4 c:/mingw/bin/../lib/gcc/mingw32/6.3.0/../../../libuser32.a(dtpcs00602.o)
 .idata$4       0x004ee630        0x4 c:/mingw/bin/../lib/gcc/mingw32/6.3.0/../../../libuser32.a(dtpcs00608.o)
 .idata$4       0x004ee634        0x4 c:/mingw/bin/../lib/gcc/mingw32/6.3.0/../../../libuser32.a(dtpcs00622.o)
 .idata$4       0x004ee638        0x4 c:/mingw/bin/../lib/gcc/mingw32/6.3.0/../../../libuser32.a(dtpct.o)
                0x004ee63c                __IAT_start__ = .
 SORT(*)(.idata$5)
 .idata$5       0x004ee63c        0x0 c:/mingw/bin/../lib/gcc/mingw32/6.3.0/../../../libadvapi32.a(dchch.o)
 .idata$5       0x004ee63c        0x4 c:/mingw/bin/../lib/gcc/mingw32/6.3.0/../../../libadvapi32.a(dchcs00245.o)
                0x004ee63c                _imp__GetUserNameA@8
 .idata$5       0x004ee640        0x4 c:/mingw/bin/../lib/gcc/mingw32/6.3.0/../../../libadvapi32.a(dchcs00386.o)
                0x004ee640                _imp__RegCloseKey@4
 .idata$5       0x004ee644        0x4 c:/mingw/bin/../lib/gcc/mingw32/6.3.0/../../../libadvapi32.a(dchcs00389.o)
                0x004ee644                _imp__RegCreateKeyA@12
 .idata$5       0x004ee648        0x4 c:/mingw/bin/../lib/gcc/mingw32/6.3.0/../../../libadvapi32.a(dchcs00390.o)
                0x004ee648                _imp__RegCreateKeyExA@36
 .idata$5       0x004ee64c        0x4 c:/mingw/bin/../lib/gcc/mingw32/6.3.0/../../../libadvapi32.a(dchcs00393.o)
                0x004ee64c                _imp__RegDeleteKeyA@8
 .idata$5       0x004ee650        0x4 c:/mingw/bin/../lib/gcc/mingw32/6.3.0/../../../libadvapi32.a(dchcs00397.o)
                0x004ee650                _imp__RegDeleteValueA@8
 .idata$5       0x004ee654        0x4 c:/mingw/bin/../lib/gcc/mingw32/6.3.0/../../../libadvapi32.a(dchcs00400.o)
                0x004ee654                _imp__RegEnumKeyA@16
 .idata$5       0x004ee658        0x4 c:/mingw/bin/../lib/gcc/mingw32/6.3.0/../../../libadvapi32.a(dchcs00412.o)
                0x004ee658                _imp__RegOpenKeyA@12
 .idata$5       0x004ee65c        0x4 c:/mingw/bin/../lib/gcc/mingw32/6.3.0/../../../libadvapi32.a(dchcs00423.o)
                0x004ee65c                _imp__RegQueryValueExA@24
 .idata$5       0x004ee660        0x4 c:/mingw/bin/../lib/gcc/mingw32/6.3.0/../../../libadvapi32.a(dchcs00434.o)
                0x004ee660                _imp__RegSetValueExA@24
 .idata$5       0x004ee664        0x4 c:/mingw/bin/../lib/gcc/mingw32/6.3.0/../../../libadvapi32.a(dchct.o)
 .idata$5       0x004ee668        0x0 c:/mingw/bin/../lib/gcc/mingw32/6.3.0/../../../libcomdlg32.a(duhch.o)
 .idata$5       0x004ee668        0x4 c:/mingw/bin/../lib/gcc/mingw32/6.3.0/../../../libcomdlg32.a(duhcs00000.o)
                0x004ee668                _imp__ChooseColorA@4
 .idata$5       0x004ee66c        0x4 c:/mingw/bin/../lib/gcc/mingw32/6.3.0/../../../libcomdlg32.a(duhcs00002.o)
                0x004ee66c                _imp__ChooseFontA@4
 .idata$5       0x004ee670        0x4 c:/mingw/bin/../lib/gcc/mingw32/6.3.0/../../../libcomdlg32.a(duhcs00009.o)
                0x004ee670                _imp__GetOpenFileNameA@4
 .idata$5       0x004ee674        0x4 c:/mingw/bin/../lib/gcc/mingw32/6.3.0/../../../libcomdlg32.a(duhcs00011.o)
                0x004ee674                _imp__GetSaveFileNameA@4
 .idata$5       0x004ee678        0x4 c:/mingw/bin/../lib/gcc/mingw32/6.3.0/../../../libcomdlg32.a(duhct.o)
 .idata$5       0x004ee67c        0x0 c:/mingw/bin/../lib/gcc/mingw32/6.3.0/../../../libgdi32.a(dpich.o)
 .idata$5       0x004ee67c        0x4 c:/mingw/bin/../lib/gcc/mingw32/6.3.0/../../../libgdi32.a(dpics00028.o)
                0x004ee67c                _imp__CreateBitmap@20
 .idata$5       0x004ee680        0x4 c:/mingw/bin/../lib/gcc/mingw32/6.3.0/../../../libgdi32.a(dpics00033.o)
                0x004ee680                _imp__CreateCompatibleBitmap@12
 .idata$5       0x004ee684        0x4 c:/mingw/bin/../lib/gcc/mingw32/6.3.0/../../../libgdi32.a(dpics00034.o)
                0x004ee684                _imp__CreateCompatibleDC@4
 .idata$5       0x004ee688        0x4 c:/mingw/bin/../lib/gcc/mingw32/6.3.0/../../../libgdi32.a(dpics00046.o)
                0x004ee688                _imp__CreateFontA@56
 .idata$5       0x004ee68c        0x4 c:/mingw/bin/../lib/gcc/mingw32/6.3.0/../../../libgdi32.a(dpics00047.o)
                0x004ee68c                _imp__CreateFontIndirectA@4
 .idata$5       0x004ee690        0x4 c:/mingw/bin/../lib/gcc/mingw32/6.3.0/../../../libgdi32.a(dpics00056.o)
                0x004ee690                _imp__CreatePalette@4
 .idata$5       0x004ee694        0x4 c:/mingw/bin/../lib/gcc/mingw32/6.3.0/../../../libgdi32.a(dpics00058.o)
                0x004ee694                _imp__CreatePen@12
 .idata$5       0x004ee698        0x4 c:/mingw/bin/../lib/gcc/mingw32/6.3.0/../../../libgdi32.a(dpics00067.o)
                0x004ee698                _imp__CreateSolidBrush@4
 .idata$5       0x004ee69c        0x4 c:/mingw/bin/../lib/gcc/mingw32/6.3.0/../../../libgdi32.a(dpics00070.o)
                0x004ee69c                _imp__DeleteDC@4
 .idata$5       0x004ee6a0        0x4 c:/mingw/bin/../lib/gcc/mingw32/6.3.0/../../../libgdi32.a(dpics00073.o)
                0x004ee6a0                _imp__DeleteObject@4
 .idata$5       0x004ee6a4        0x4 c:/mingw/bin/../lib/gcc/mingw32/6.3.0/../../../libgdi32.a(dpics00096.o)
                0x004ee6a4                _imp__ExcludeClipRect@20
 .idata$5       0x004ee6a8        0x4 c:/mingw/bin/../lib/gcc/mingw32/6.3.0/../../../libgdi32.a(dpics00102.o)
                0x004ee6a8                _imp__ExtTextOutA@32
 .idata$5       0x004ee6ac        0x4 c:/mingw/bin/../lib/gcc/mingw32/6.3.0/../../../libgdi32.a(dpics00103.o)
                0x004ee6ac                _imp__ExtTextOutW@32
 .idata$5       0x004ee6b0        0x4 c:/mingw/bin/../lib/gcc/mingw32/6.3.0/../../../libgdi32.a(dpics00122.o)
                0x004ee6b0                _imp__GetBkMode@4
 .idata$5       0x004ee6b4        0x4 c:/mingw/bin/../lib/gcc/mingw32/6.3.0/../../../libgdi32.a(dpics00126.o)
                0x004ee6b4                _imp__GetCharABCWidthsFloatA@16
 .idata$5       0x004ee6b8        0x4 c:/mingw/bin/../lib/gcc/mingw32/6.3.0/../../../libgdi32.a(dpics00129.o)
                0x004ee6b8                _imp__GetCharWidth32A@16
 .idata$5       0x004ee6bc        0x4 c:/mingw/bin/../lib/gcc/mingw32/6.3.0/../../../libgdi32.a(dpics00130.o)
                0x004ee6bc                _imp__GetCharWidth32W@16
 .idata$5       0x004ee6c0        0x4 c:/mingw/bin/../lib/gcc/mingw32/6.3.0/../../../libgdi32.a(dpics00131.o)
                0x004ee6c0                _imp__GetCharWidthA@16
 .idata$5       0x004ee6c4        0x4 c:/mingw/bin/../lib/gcc/mingw32/6.3.0/../../../libgdi32.a(dpics00134.o)
                0x004ee6c4                _imp__GetCharWidthW@16
 .idata$5       0x004ee6c8        0x4 c:/mingw/bin/../lib/gcc/mingw32/6.3.0/../../../libgdi32.a(dpics00136.o)
                0x004ee6c8                _imp__GetCharacterPlacementW@24
 .idata$5       0x004ee6cc        0x4 c:/mingw/bin/../lib/gcc/mingw32/6.3.0/../../../libgdi32.a(dpics00148.o)
                0x004ee6cc                _imp__GetDeviceCaps@8
 .idata$5       0x004ee6d0        0x4 c:/mingw/bin/../lib/gcc/mingw32/6.3.0/../../../libgdi32.a(dpics00185.o)
                0x004ee6d0                _imp__GetObjectA@12
 .idata$5       0x004ee6d4        0x4 c:/mingw/bin/../lib/gcc/mingw32/6.3.0/../../../libgdi32.a(dpics00192.o)
                0x004ee6d4                _imp__GetPixel@12
 .idata$5       0x004ee6d8        0x4 c:/mingw/bin/../lib/gcc/mingw32/6.3.0/../../../libgdi32.a(dpics00201.o)
                0x004ee6d8                _imp__GetStockObject@4
 .idata$5       0x004ee6dc        0x4 c:/mingw/bin/../lib/gcc/mingw32/6.3.0/../../../libgdi32.a(dpics00210.o)
                0x004ee6dc                _imp__GetTextExtentExPointA@28
 .idata$5       0x004ee6e0        0x4 c:/mingw/bin/../lib/gcc/mingw32/6.3.0/../../../libgdi32.a(dpics00213.o)
                0x004ee6e0                _imp__GetTextExtentPoint32A@16
 .idata$5       0x004ee6e4        0x4 c:/mingw/bin/../lib/gcc/mingw32/6.3.0/../../../libgdi32.a(dpics00219.o)
                0x004ee6e4                _imp__GetTextMetricsA@8
 .idata$5       0x004ee6e8        0x4 c:/mingw/bin/../lib/gcc/mingw32/6.3.0/../../../libgdi32.a(dpics00227.o)
                0x004ee6e8                _imp__IntersectClipRect@20
 .idata$5       0x004ee6ec        0x4 c:/mingw/bin/../lib/gcc/mingw32/6.3.0/../../../libgdi32.a(dpics00231.o)
                0x004ee6ec                _imp__LineTo@12
 .idata$5       0x004ee6f0        0x4 c:/mingw/bin/../lib/gcc/mingw32/6.3.0/../../../libgdi32.a(dpics00234.o)
                0x004ee6f0                _imp__MoveToEx@16
 .idata$5       0x004ee6f4        0x4 c:/mingw/bin/../lib/gcc/mingw32/6.3.0/../../../libgdi32.a(dpics00256.o)
                0x004ee6f4                _imp__Polyline@12
 .idata$5       0x004ee6f8        0x4 c:/mingw/bin/../lib/gcc/mingw32/6.3.0/../../../libgdi32.a(dpics00260.o)
                0x004ee6f8                _imp__RealizePalette@4
 .idata$5       0x004ee6fc        0x4 c:/mingw/bin/../lib/gcc/mingw32/6.3.0/../../../libgdi32.a(dpics00263.o)
                0x004ee6fc                _imp__Rectangle@20
 .idata$5       0x004ee700        0x4 c:/mingw/bin/../lib/gcc/mingw32/6.3.0/../../../libgdi32.a(dpics00281.o)
                0x004ee700                _imp__SelectObject@8
 .idata$5       0x004ee704        0x4 c:/mingw/bin/../lib/gcc/mingw32/6.3.0/../../../libgdi32.a(dpics00282.o)
                0x004ee704                _imp__SelectPalette@12
 .idata$5       0x004ee708        0x4 c:/mingw/bin/../lib/gcc/mingw32/6.3.0/../../../libgdi32.a(dpics00287.o)
                0x004ee708                _imp__SetBkColor@8
 .idata$5       0x004ee70c        0x4 c:/mingw/bin/../lib/gcc/mingw32/6.3.0/../../../libgdi32.a(dpics00288.o)
                0x004ee70c                _imp__SetBkMode@8
 .idata$5       0x004ee710        0x4 c:/mingw/bin/../lib/gcc/mingw32/6.3.0/../../../libgdi32.a(dpics00306.o)
                0x004ee710                _imp__SetMapMode@8
 .idata$5       0x004ee714        0x4 c:/mingw/bin/../lib/gcc/mingw32/6.3.0/../../../libgdi32.a(dpics00311.o)
                0x004ee714                _imp__SetPaletteEntries@16
 .idata$5       0x004ee718        0x4 c:/mingw/bin/../lib/gcc/mingw32/6.3.0/../../../libgdi32.a(dpics00312.o)
                0x004ee718                _imp__SetPixel@16
 .idata$5       0x004ee71c        0x4 c:/mingw/bin/../lib/gcc/mingw32/6.3.0/../../../libgdi32.a(dpics00321.o)
                0x004ee71c                _imp__SetTextAlign@8
 .idata$5       0x004ee720        0x4 c:/mingw/bin/../lib/gcc/mingw32/6.3.0/../../../libgdi32.a(dpics00323.o)
                0x004ee720                _imp__SetTextColor@8
 .idata$5       0x004ee724        0x4 c:/mingw/bin/../lib/gcc/mingw32/6.3.0/../../../libgdi32.a(dpics00339.o)
                0x004ee724                _imp__TextOutA@20
 .idata$5       0x004ee728        0x4 c:/mingw/bin/../lib/gcc/mingw32/6.3.0/../../../libgdi32.a(dpics00341.o)
                0x004ee728                _imp__TranslateCharsetInfo@12
 .idata$5       0x004ee72c        0x4 c:/mingw/bin/../lib/gcc/mingw32/6.3.0/../../../libgdi32.a(dpics00342.o)
                0x004ee72c                _imp__UnrealizeObject@4
 .idata$5       0x004ee730        0x4 c:/mingw/bin/../lib/gcc/mingw32/6.3.0/../../../libgdi32.a(dpics00343.o)
                0x004ee730                _imp__UpdateColors@4
 .idata$5       0x004ee734        0x4 c:/mingw/bin/../lib/gcc/mingw32/6.3.0/../../../libgdi32.a(dpict.o)
 .idata$5       0x004ee738        0x0 c:/mingw/bin/../lib/gcc/mingw32/6.3.0/../../../libimm32.a(dojch.o)
 .idata$5       0x004ee738        0x4 c:/mingw/bin/../lib/gcc/mingw32/6.3.0/../../../libimm32.a(dojcs00023.o)
                0x004ee738                _imp__ImmGetCompositionStringW@16
 .idata$5       0x004ee73c        0x4 c:/mingw/bin/../lib/gcc/mingw32/6.3.0/../../../libimm32.a(dojcs00025.o)
                0x004ee73c                _imp__ImmGetContext@4
 .idata$5       0x004ee740        0x4 c:/mingw/bin/../lib/gcc/mingw32/6.3.0/../../../libimm32.a(dojcs00059.o)
                0x004ee740                _imp__ImmReleaseContext@8
 .idata$5       0x004ee744        0x4 c:/mingw/bin/../lib/gcc/mingw32/6.3.0/../../../libimm32.a(dojcs00061.o)
                0x004ee744                _imp__ImmSetCompositionFontA@8
 .idata$5       0x004ee748        0x4 c:/mingw/bin/../lib/gcc/mingw32/6.3.0/../../../libimm32.a(dojcs00065.o)
                0x004ee748                _imp__ImmSetCompositionWindow@8
 .idata$5       0x004ee74c        0x4 c:/mingw/bin/../lib/gcc/mingw32/6.3.0/../../../libimm32.a(dojct.o)
 .idata$5       0x004ee750        0x0 c:/mingw/bin/../lib/gcc/mingw32/6.3.0/../../../libkernel32.a(dujch.o)
 .idata$5       0x004ee750        0x4 c:/mingw/bin/../lib/gcc/mingw32/6.3.0/../../../libkernel32.a(dujcs00054.o)
                0x004ee750                _imp__Beep@8
 .idata$5       0x004ee754        0x4 c:/mingw/bin/../lib/gcc/mingw32/6.3.0/../../../libkernel32.a(dujcs00079.o)
                0x004ee754                _imp__ClearCommBreak@4
 .idata$5       0x004ee758        0x4 c:/mingw/bin/../lib/gcc/mingw32/6.3.0/../../../libkernel32.a(dujcs00082.o)
                0x004ee758                _imp__CloseHandle@4
 .idata$5       0x004ee75c        0x4 c:/mingw/bin/../lib/gcc/mingw32/6.3.0/../../../libkernel32.a(dujcs00129.o)
                0x004ee75c                _imp__CreateEventA@16
 .idata$5       0x004ee760        0x4 c:/mingw/bin/../lib/gcc/mingw32/6.3.0/../../../libkernel32.a(dujcs00135.o)
                0x004ee760                _imp__CreateFileA@28
 .idata$5       0x004ee764        0x4 c:/mingw/bin/../lib/gcc/mingw32/6.3.0/../../../libkernel32.a(dujcs00136.o)
                0x004ee764                _imp__CreateFileMappingA@24
 .idata$5       0x004ee768        0x4 c:/mingw/bin/../lib/gcc/mingw32/6.3.0/../../../libkernel32.a(dujcs00160.o)
                0x004ee768                _imp__CreatePipe@16
 .idata$5       0x004ee76c        0x4 c:/mingw/bin/../lib/gcc/mingw32/6.3.0/../../../libkernel32.a(dujcs00163.o)
                0x004ee76c                _imp__CreateProcessA@40
 .idata$5       0x004ee770        0x4 c:/mingw/bin/../lib/gcc/mingw32/6.3.0/../../../libkernel32.a(dujcs00179.o)
                0x004ee770                _imp__CreateThread@24
 .idata$5       0x004ee774        0x4 c:/mingw/bin/../lib/gcc/mingw32/6.3.0/../../../libkernel32.a(dujcs00207.o)
                0x004ee774                _imp__DeleteCriticalSection@4
 .idata$5       0x004ee778        0x4 c:/mingw/bin/../lib/gcc/mingw32/6.3.0/../../../libkernel32.a(dujcs00209.o)
                0x004ee778                _imp__DeleteFileA@4
 .idata$5       0x004ee77c        0x4 c:/mingw/bin/../lib/gcc/mingw32/6.3.0/../../../libkernel32.a(dujcs00236.o)
                0x004ee77c                _imp__EnterCriticalSection@4
 .idata$5       0x004ee780        0x4 c:/mingw/bin/../lib/gcc/mingw32/6.3.0/../../../libkernel32.a(dujcs00279.o)
                0x004ee780                _imp__ExitProcess@4
 .idata$5       0x004ee784        0x4 c:/mingw/bin/../lib/gcc/mingw32/6.3.0/../../../libkernel32.a(dujcs00300.o)
                0x004ee784                _imp__FindClose@4
 .idata$5       0x004ee788        0x4 c:/mingw/bin/../lib/gcc/mingw32/6.3.0/../../../libkernel32.a(dujcs00304.o)
                0x004ee788                _imp__FindFirstFileA@8
 .idata$5       0x004ee78c        0x4 c:/mingw/bin/../lib/gcc/mingw32/6.3.0/../../../libkernel32.a(dujcs00321.o)
                0x004ee78c                _imp__FindNextFileA@8
 .idata$5       0x004ee790        0x4 c:/mingw/bin/../lib/gcc/mingw32/6.3.0/../../../libkernel32.a(dujcs00347.o)
                0x004ee790                _imp__FormatMessageA@28
 .idata$5       0x004ee794        0x4 c:/mingw/bin/../lib/gcc/mingw32/6.3.0/../../../libkernel32.a(dujcs00352.o)
                0x004ee794                _imp__FreeLibrary@4
 .idata$5       0x004ee798        0x4 c:/mingw/bin/../lib/gcc/mingw32/6.3.0/../../../libkernel32.a(dujcs00358.o)
                0x004ee798                _imp__GetACP@0
 .idata$5       0x004ee79c        0x4 c:/mingw/bin/../lib/gcc/mingw32/6.3.0/../../../libkernel32.a(dujcs00368.o)
                0x004ee79c                _imp__GetCPInfo@8
 .idata$5       0x004ee7a0        0x4 c:/mingw/bin/../lib/gcc/mingw32/6.3.0/../../../libkernel32.a(dujcs00386.o)
                0x004ee7a0                _imp__GetCommState@8
 .idata$5       0x004ee7a4        0x4 c:/mingw/bin/../lib/gcc/mingw32/6.3.0/../../../libkernel32.a(dujcs00388.o)
                0x004ee7a4                _imp__GetCommandLineA@0
 .idata$5       0x004ee7a8        0x4 c:/mingw/bin/../lib/gcc/mingw32/6.3.0/../../../libkernel32.a(dujcs00426.o)
                0x004ee7a8                _imp__GetConsoleMode@8
 .idata$5       0x004ee7ac        0x4 c:/mingw/bin/../lib/gcc/mingw32/6.3.0/../../../libkernel32.a(dujcs00444.o)
                0x004ee7ac                _imp__GetCurrentDirectoryA@8
 .idata$5       0x004ee7b0        0x4 c:/mingw/bin/../lib/gcc/mingw32/6.3.0/../../../libkernel32.a(dujcs00446.o)
                0x004ee7b0                _imp__GetCurrentProcess@0
 .idata$5       0x004ee7b4        0x4 c:/mingw/bin/../lib/gcc/mingw32/6.3.0/../../../libkernel32.a(dujcs00447.o)
                0x004ee7b4                _imp__GetCurrentProcessId@0
 .idata$5       0x004ee7b8        0x4 c:/mingw/bin/../lib/gcc/mingw32/6.3.0/../../../libkernel32.a(dujcs00450.o)
                0x004ee7b8                _imp__GetCurrentThread@0
 .idata$5       0x004ee7bc        0x4 c:/mingw/bin/../lib/gcc/mingw32/6.3.0/../../../libkernel32.a(dujcs00451.o)
                0x004ee7bc                _imp__GetCurrentThreadId@0
 .idata$5       0x004ee7c0        0x4 c:/mingw/bin/../lib/gcc/mingw32/6.3.0/../../../libkernel32.a(dujcs00473.o)
                0x004ee7c0                _imp__GetEnvironmentVariableA@12
 .idata$5       0x004ee7c4        0x4 c:/mingw/bin/../lib/gcc/mingw32/6.3.0/../../../libkernel32.a(dujcs00482.o)
                0x004ee7c4                _imp__GetFileAttributesExA@12
 .idata$5       0x004ee7c8        0x4 c:/mingw/bin/../lib/gcc/mingw32/6.3.0/../../../libkernel32.a(dujcs00510.o)
                0x004ee7c8                _imp__GetLastError@0
 .idata$5       0x004ee7cc        0x4 c:/mingw/bin/../lib/gcc/mingw32/6.3.0/../../../libkernel32.a(dujcs00511.o)
                0x004ee7cc                _imp__GetLocalTime@4
 .idata$5       0x004ee7d0        0x4 c:/mingw/bin/../lib/gcc/mingw32/6.3.0/../../../libkernel32.a(dujcs00512.o)
                0x004ee7d0                _imp__GetLocaleInfoA@16
 .idata$5       0x004ee7d4        0x4 c:/mingw/bin/../lib/gcc/mingw32/6.3.0/../../../libkernel32.a(dujcs00527.o)
                0x004ee7d4                _imp__GetModuleFileNameA@12
 .idata$5       0x004ee7d8        0x4 c:/mingw/bin/../lib/gcc/mingw32/6.3.0/../../../libkernel32.a(dujcs00529.o)
                0x004ee7d8                _imp__GetModuleHandleA@4
 .idata$5       0x004ee7dc        0x4 c:/mingw/bin/../lib/gcc/mingw32/6.3.0/../../../libkernel32.a(dujcs00563.o)
                0x004ee7dc                _imp__GetOEMCP@0
 .idata$5       0x004ee7e0        0x4 c:/mingw/bin/../lib/gcc/mingw32/6.3.0/../../../libkernel32.a(dujcs00564.o)
                0x004ee7e0                _imp__GetOverlappedResult@16
 .idata$5       0x004ee7e4        0x4 c:/mingw/bin/../lib/gcc/mingw32/6.3.0/../../../libkernel32.a(dujcs00577.o)
                0x004ee7e4                _imp__GetProcAddress@8
 .idata$5       0x004ee7e8        0x4 c:/mingw/bin/../lib/gcc/mingw32/6.3.0/../../../libkernel32.a(dujcs00590.o)
                0x004ee7e8                _imp__GetProcessTimes@20
 .idata$5       0x004ee7ec        0x4 c:/mingw/bin/../lib/gcc/mingw32/6.3.0/../../../libkernel32.a(dujcs00606.o)
                0x004ee7ec                _imp__GetStartupInfoA@4
 .idata$5       0x004ee7f0        0x4 c:/mingw/bin/../lib/gcc/mingw32/6.3.0/../../../libkernel32.a(dujcs00619.o)
                0x004ee7f0                _imp__GetSystemDirectoryA@8
 .idata$5       0x004ee7f4        0x4 c:/mingw/bin/../lib/gcc/mingw32/6.3.0/../../../libkernel32.a(dujcs00629.o)
                0x004ee7f4                _imp__GetSystemTimeAsFileTime@4
 .idata$5       0x004ee7f8        0x4 c:/mingw/bin/../lib/gcc/mingw32/6.3.0/../../../libkernel32.a(dujcs00653.o)
                0x004ee7f8                _imp__GetThreadTimes@20
 .idata$5       0x004ee7fc        0x4 c:/mingw/bin/../lib/gcc/mingw32/6.3.0/../../../libkernel32.a(dujcs00656.o)
                0x004ee7fc                _imp__GetTickCount@0
 .idata$5       0x004ee800        0x4 c:/mingw/bin/../lib/gcc/mingw32/6.3.0/../../../libkernel32.a(dujcs00682.o)
                0x004ee800                _imp__GetWindowsDirectoryA@8
 .idata$5       0x004ee804        0x4 c:/mingw/bin/../lib/gcc/mingw32/6.3.0/../../../libkernel32.a(dujcs00687.o)
                0x004ee804                _imp__GlobalAlloc@8
 .idata$5       0x004ee808        0x4 c:/mingw/bin/../lib/gcc/mingw32/6.3.0/../../../libkernel32.a(dujcs00694.o)
                0x004ee808                _imp__GlobalFree@4
 .idata$5       0x004ee80c        0x4 c:/mingw/bin/../lib/gcc/mingw32/6.3.0/../../../libkernel32.a(dujcs00698.o)
                0x004ee80c                _imp__GlobalLock@4
 .idata$5       0x004ee810        0x4 c:/mingw/bin/../lib/gcc/mingw32/6.3.0/../../../libkernel32.a(dujcs00699.o)
                0x004ee810                _imp__GlobalMemoryStatus@4
 .idata$5       0x004ee814        0x4 c:/mingw/bin/../lib/gcc/mingw32/6.3.0/../../../libkernel32.a(dujcs00705.o)
                0x004ee814                _imp__GlobalUnlock@4
 .idata$5       0x004ee818        0x4 c:/mingw/bin/../lib/gcc/mingw32/6.3.0/../../../libkernel32.a(dujcs00734.o)
                0x004ee818                _imp__InitializeCriticalSection@4
 .idata$5       0x004ee81c        0x4 c:/mingw/bin/../lib/gcc/mingw32/6.3.0/../../../libkernel32.a(dujcs00744.o)
                0x004ee81c                _imp__InterlockedExchange@8
 .idata$5       0x004ee820        0x4 c:/mingw/bin/../lib/gcc/mingw32/6.3.0/../../../libkernel32.a(dujcs00763.o)
                0x004ee820                _imp__IsDBCSLeadByteEx@8
 .idata$5       0x004ee824        0x4 c:/mingw/bin/../lib/gcc/mingw32/6.3.0/../../../libkernel32.a(dujcs00814.o)
                0x004ee824                _imp__LeaveCriticalSection@4
 .idata$5       0x004ee828        0x4 c:/mingw/bin/../lib/gcc/mingw32/6.3.0/../../../libkernel32.a(dujcs00817.o)
                0x004ee828                _imp__LoadLibraryA@4
 .idata$5       0x004ee82c        0x4 c:/mingw/bin/../lib/gcc/mingw32/6.3.0/../../../libkernel32.a(dujcs00818.o)
                0x004ee82c                _imp__LoadLibraryExA@12
 .idata$5       0x004ee830        0x4 c:/mingw/bin/../lib/gcc/mingw32/6.3.0/../../../libkernel32.a(dujcs00827.o)
                0x004ee830                _imp__LocalFileTimeToFileTime@8
 .idata$5       0x004ee834        0x4 c:/mingw/bin/../lib/gcc/mingw32/6.3.0/../../../libkernel32.a(dujcs00844.o)
                0x004ee834                _imp__MapViewOfFile@20
 .idata$5       0x004ee838        0x4 c:/mingw/bin/../lib/gcc/mingw32/6.3.0/../../../libkernel32.a(dujcs00859.o)
                0x004ee838                _imp__MulDiv@12
 .idata$5       0x004ee83c        0x4 c:/mingw/bin/../lib/gcc/mingw32/6.3.0/../../../libkernel32.a(dujcs00860.o)
                0x004ee83c                _imp__MultiByteToWideChar@24
 .idata$5       0x004ee840        0x4 c:/mingw/bin/../lib/gcc/mingw32/6.3.0/../../../libkernel32.a(dujcs00922.o)
                0x004ee840                _imp__QueryPerformanceCounter@4
 .idata$5       0x004ee844        0x4 c:/mingw/bin/../lib/gcc/mingw32/6.3.0/../../../libkernel32.a(dujcs00947.o)
                0x004ee844                _imp__ReadFile@20
 .idata$5       0x004ee848        0x4 c:/mingw/bin/../lib/gcc/mingw32/6.3.0/../../../libkernel32.a(dujcs01010.o)
                0x004ee848                _imp__SetCommBreak@4
 .idata$5       0x004ee84c        0x4 c:/mingw/bin/../lib/gcc/mingw32/6.3.0/../../../libkernel32.a(dujcs01013.o)
                0x004ee84c                _imp__SetCommState@8
 .idata$5       0x004ee850        0x4 c:/mingw/bin/../lib/gcc/mingw32/6.3.0/../../../libkernel32.a(dujcs01014.o)
                0x004ee850                _imp__SetCommTimeouts@8
 .idata$5       0x004ee854        0x4 c:/mingw/bin/../lib/gcc/mingw32/6.3.0/../../../libkernel32.a(dujcs01052.o)
                0x004ee854                _imp__SetCurrentDirectoryA@4
 .idata$5       0x004ee858        0x4 c:/mingw/bin/../lib/gcc/mingw32/6.3.0/../../../libkernel32.a(dujcs01065.o)
                0x004ee858                _imp__SetEvent@4
 .idata$5       0x004ee85c        0x4 c:/mingw/bin/../lib/gcc/mingw32/6.3.0/../../../libkernel32.a(dujcs01088.o)
                0x004ee85c                _imp__SetHandleInformation@12
 .idata$5       0x004ee860        0x4 c:/mingw/bin/../lib/gcc/mingw32/6.3.0/../../../libkernel32.a(dujcs01140.o)
                0x004ee860                _imp__SetUnhandledExceptionFilter@4
 .idata$5       0x004ee864        0x4 c:/mingw/bin/../lib/gcc/mingw32/6.3.0/../../../libkernel32.a(dujcs01152.o)
                0x004ee864                _imp__Sleep@4
 .idata$5       0x004ee868        0x4 c:/mingw/bin/../lib/gcc/mingw32/6.3.0/../../../libkernel32.a(dujcs01173.o)
                0x004ee868                _imp__TlsGetValue@4
 .idata$5       0x004ee86c        0x4 c:/mingw/bin/../lib/gcc/mingw32/6.3.0/../../../libkernel32.a(dujcs01188.o)
                0x004ee86c                _imp__UnmapViewOfFile@4
 .idata$5       0x004ee870        0x4 c:/mingw/bin/../lib/gcc/mingw32/6.3.0/../../../libkernel32.a(dujcs01213.o)
                0x004ee870                _imp__VirtualProtect@16
 .idata$5       0x004ee874        0x4 c:/mingw/bin/../lib/gcc/mingw32/6.3.0/../../../libkernel32.a(dujcs01215.o)
                0x004ee874                _imp__VirtualQuery@12
 .idata$5       0x004ee878        0x4 c:/mingw/bin/../lib/gcc/mingw32/6.3.0/../../../libkernel32.a(dujcs01223.o)
                0x004ee878                _imp__WaitForSingleObject@8
 .idata$5       0x004ee87c        0x4 c:/mingw/bin/../lib/gcc/mingw32/6.3.0/../../../libkernel32.a(dujcs01247.o)
                0x004ee87c                _imp__WideCharToMultiByte@32
 .idata$5       0x004ee880        0x4 c:/mingw/bin/../lib/gcc/mingw32/6.3.0/../../../libkernel32.a(dujcs01267.o)
                0x004ee880                _imp__WriteFile@20
 .idata$5       0x004ee884        0x4 c:/mingw/bin/../lib/gcc/mingw32/6.3.0/../../../libkernel32.a(dujct.o)
 .idata$5       0x004ee888        0x0 c:/mingw/bin/../lib/gcc/mingw32/6.3.0/../../../libmoldname.a(dagwbh.o)
 .idata$5       0x004ee888        0x4 c:/mingw/bin/../lib/gcc/mingw32/6.3.0/../../../libmoldname.a(dagwbs00080.o)
                0x004ee888                _imp__strdup
 .idata$5       0x004ee88c        0x4 c:/mingw/bin/../lib/gcc/mingw32/6.3.0/../../../libmoldname.a(dagwbs00082.o)
                0x004ee88c                _imp__stricoll
 .idata$5       0x004ee890        0x4 c:/mingw/bin/../lib/gcc/mingw32/6.3.0/../../../libmoldname.a(dagwbt.o)
 .idata$5       0x004ee894        0x0 c:/mingw/bin/../lib/gcc/mingw32/6.3.0/../../../libmsvcrt.a(djpvbh.o)
 .idata$5       0x004ee894        0x4 c:/mingw/bin/../lib/gcc/mingw32/6.3.0/../../../libmsvcrt.a(djpvbs00088.o)
                0x004ee894                _imp____getmainargs
 .idata$5       0x004ee898        0x4 c:/mingw/bin/../lib/gcc/mingw32/6.3.0/../../../libmsvcrt.a(djpvbs00119.o)
                0x004ee898                _imp____mb_cur_max
 .idata$5       0x004ee89c        0x4 c:/mingw/bin/../lib/gcc/mingw32/6.3.0/../../../libmsvcrt.a(djpvbs00131.o)
                0x004ee89c                _imp____p__environ
 .idata$5       0x004ee8a0        0x4 c:/mingw/bin/../lib/gcc/mingw32/6.3.0/../../../libmsvcrt.a(djpvbs00133.o)
                0x004ee8a0                _imp____p__fmode
 .idata$5       0x004ee8a4        0x4 c:/mingw/bin/../lib/gcc/mingw32/6.3.0/../../../libmsvcrt.a(djpvbs00153.o)
                0x004ee8a4                _imp____set_app_type
 .idata$5       0x004ee8a8        0x4 c:/mingw/bin/../lib/gcc/mingw32/6.3.0/../../../libmsvcrt.a(djpvbs00201.o)
                0x004ee8a8                _imp___assert
 .idata$5       0x004ee8ac        0x4 c:/mingw/bin/../lib/gcc/mingw32/6.3.0/../../../libmsvcrt.a(djpvbs00219.o)
                0x004ee8ac                _imp___cexit
 .idata$5       0x004ee8b0        0x4 c:/mingw/bin/../lib/gcc/mingw32/6.3.0/../../../libmsvcrt.a(djpvbs00285.o)
                0x004ee8b0                _imp___errno
 .idata$5       0x004ee8b4        0x4 c:/mingw/bin/../lib/gcc/mingw32/6.3.0/../../../libmsvcrt.a(djpvbs00324.o)
                0x004ee8b4                _imp___fpreset
 .idata$5       0x004ee8b8        0x4 c:/mingw/bin/../lib/gcc/mingw32/6.3.0/../../../libmsvcrt.a(djpvbs00350.o)
                0x004ee8b8                _imp___fullpath
 .idata$5       0x004ee8bc        0x4 c:/mingw/bin/../lib/gcc/mingw32/6.3.0/../../../libmsvcrt.a(djpvbs00417.o)
                0x004ee8bc                _imp___iob
 .idata$5       0x004ee8c0        0x4 c:/mingw/bin/../lib/gcc/mingw32/6.3.0/../../../libmsvcrt.a(djpvbs00422.o)
                0x004ee8c0                _imp___isctype
 .idata$5       0x004ee8c4        0x4 c:/mingw/bin/../lib/gcc/mingw32/6.3.0/../../../libmsvcrt.a(djpvbs00689.o)
                0x004ee8c4                _imp___onexit
 .idata$5       0x004ee8c8        0x4 c:/mingw/bin/../lib/gcc/mingw32/6.3.0/../../../libmsvcrt.a(djpvbs00698.o)
                0x004ee8c8                _imp___pctype
 .idata$5       0x004ee8cc        0x4 c:/mingw/bin/../lib/gcc/mingw32/6.3.0/../../../libmsvcrt.a(djpvbs00753.o)
                0x004ee8cc                _imp___setmode
 .idata$5       0x004ee8d0        0x4 c:/mingw/bin/../lib/gcc/mingw32/6.3.0/../../../libmsvcrt.a(djpvbs00803.o)
                0x004ee8d0                _imp___stricmp
 .idata$5       0x004ee8d4        0x4 c:/mingw/bin/../lib/gcc/mingw32/6.3.0/../../../libmsvcrt.a(djpvbs00813.o)
                0x004ee8d4                _imp___strnicmp
 .idata$5       0x004ee8d8        0x4 c:/mingw/bin/../lib/gcc/mingw32/6.3.0/../../../libmsvcrt.a(djpvbs01083.o)
                0x004ee8d8                _imp__abort
 .idata$5       0x004ee8dc        0x4 c:/mingw/bin/../lib/gcc/mingw32/6.3.0/../../../libmsvcrt.a(djpvbs01091.o)
                0x004ee8dc                _imp__atexit
 .idata$5       0x004ee8e0        0x4 c:/mingw/bin/../lib/gcc/mingw32/6.3.0/../../../libmsvcrt.a(djpvbs01093.o)
                0x004ee8e0                _imp__atoi
 .idata$5       0x004ee8e4        0x4 c:/mingw/bin/../lib/gcc/mingw32/6.3.0/../../../libmsvcrt.a(djpvbs01098.o)
                0x004ee8e4                _imp__calloc
 .idata$5       0x004ee8e8        0x4 c:/mingw/bin/../lib/gcc/mingw32/6.3.0/../../../libmsvcrt.a(djpvbs01106.o)
                0x004ee8e8                _imp__difftime
 .idata$5       0x004ee8ec        0x4 c:/mingw/bin/../lib/gcc/mingw32/6.3.0/../../../libmsvcrt.a(djpvbs01108.o)
                0x004ee8ec                _imp__exit
 .idata$5       0x004ee8f0        0x4 c:/mingw/bin/../lib/gcc/mingw32/6.3.0/../../../libmsvcrt.a(djpvbs01111.o)
                0x004ee8f0                _imp__fclose
 .idata$5       0x004ee8f4        0x4 c:/mingw/bin/../lib/gcc/mingw32/6.3.0/../../../libmsvcrt.a(djpvbs01114.o)
                0x004ee8f4                _imp__fflush
 .idata$5       0x004ee8f8        0x4 c:/mingw/bin/../lib/gcc/mingw32/6.3.0/../../../libmsvcrt.a(djpvbs01115.o)
                0x004ee8f8                _imp__fgetc
 .idata$5       0x004ee8fc        0x4 c:/mingw/bin/../lib/gcc/mingw32/6.3.0/../../../libmsvcrt.a(djpvbs01117.o)
                0x004ee8fc                _imp__fgets
 .idata$5       0x004ee900        0x4 c:/mingw/bin/../lib/gcc/mingw32/6.3.0/../../../libmsvcrt.a(djpvbs01122.o)
                0x004ee900                _imp__fopen
 .idata$5       0x004ee904        0x4 c:/mingw/bin/../lib/gcc/mingw32/6.3.0/../../../libmsvcrt.a(djpvbs01126.o)
                0x004ee904                _imp__fputc
 .idata$5       0x004ee908        0x4 c:/mingw/bin/../lib/gcc/mingw32/6.3.0/../../../libmsvcrt.a(djpvbs01127.o)
                0x004ee908                _imp__fputs
 .idata$5       0x004ee90c        0x4 c:/mingw/bin/../lib/gcc/mingw32/6.3.0/../../../libmsvcrt.a(djpvbs01130.o)
                0x004ee90c                _imp__fread
 .idata$5       0x004ee910        0x4 c:/mingw/bin/../lib/gcc/mingw32/6.3.0/../../../libmsvcrt.a(djpvbs01131.o)
                0x004ee910                _imp__free
 .idata$5       0x004ee914        0x4 c:/mingw/bin/../lib/gcc/mingw32/6.3.0/../../../libmsvcrt.a(djpvbs01142.o)
                0x004ee914                _imp__fwrite
 .idata$5       0x004ee918        0x4 c:/mingw/bin/../lib/gcc/mingw32/6.3.0/../../../libmsvcrt.a(djpvbs01147.o)
                0x004ee918                _imp__getenv
 .idata$5       0x004ee91c        0x4 c:/mingw/bin/../lib/gcc/mingw32/6.3.0/../../../libmsvcrt.a(djpvbs01169.o)
                0x004ee91c                _imp__iswctype
 .idata$5       0x004ee920        0x4 c:/mingw/bin/../lib/gcc/mingw32/6.3.0/../../../libmsvcrt.a(djpvbs01182.o)
                0x004ee920                _imp__localeconv
 .idata$5       0x004ee924        0x4 c:/mingw/bin/../lib/gcc/mingw32/6.3.0/../../../libmsvcrt.a(djpvbs01187.o)
                0x004ee924                _imp__malloc
 .idata$5       0x004ee928        0x4 c:/mingw/bin/../lib/gcc/mingw32/6.3.0/../../../libmsvcrt.a(djpvbs01194.o)
                0x004ee928                _imp__mbstowcs
 .idata$5       0x004ee92c        0x4 c:/mingw/bin/../lib/gcc/mingw32/6.3.0/../../../libmsvcrt.a(djpvbs01197.o)
                0x004ee92c                _imp__memchr
 .idata$5       0x004ee930        0x4 c:/mingw/bin/../lib/gcc/mingw32/6.3.0/../../../libmsvcrt.a(djpvbs01198.o)
                0x004ee930                _imp__memcmp
 .idata$5       0x004ee934        0x4 c:/mingw/bin/../lib/gcc/mingw32/6.3.0/../../../libmsvcrt.a(djpvbs01199.o)
                0x004ee934                _imp__memcpy
 .idata$5       0x004ee938        0x4 c:/mingw/bin/../lib/gcc/mingw32/6.3.0/../../../libmsvcrt.a(djpvbs01201.o)
                0x004ee938                _imp__memmove
 .idata$5       0x004ee93c        0x4 c:/mingw/bin/../lib/gcc/mingw32/6.3.0/../../../libmsvcrt.a(djpvbs01203.o)
                0x004ee93c                _imp__memset
 .idata$5       0x004ee940        0x4 c:/mingw/bin/../lib/gcc/mingw32/6.3.0/../../../libmsvcrt.a(djpvbs01215.o)
                0x004ee940                _imp__qsort
 .idata$5       0x004ee944        0x4 c:/mingw/bin/../lib/gcc/mingw32/6.3.0/../../../libmsvcrt.a(djpvbs01220.o)
                0x004ee944                _imp__realloc
 .idata$5       0x004ee948        0x4 c:/mingw/bin/../lib/gcc/mingw32/6.3.0/../../../libmsvcrt.a(djpvbs01223.o)
                0x004ee948                _imp__rewind
 .idata$5       0x004ee94c        0x4 c:/mingw/bin/../lib/gcc/mingw32/6.3.0/../../../libmsvcrt.a(djpvbs01227.o)
                0x004ee94c                _imp__setlocale
 .idata$5       0x004ee950        0x4 c:/mingw/bin/../lib/gcc/mingw32/6.3.0/../../../libmsvcrt.a(djpvbs01229.o)
                0x004ee950                _imp__signal
 .idata$5       0x004ee954        0x4 c:/mingw/bin/../lib/gcc/mingw32/6.3.0/../../../libmsvcrt.a(djpvbs01236.o)
                0x004ee954                _imp__sscanf
 .idata$5       0x004ee958        0x4 c:/mingw/bin/../lib/gcc/mingw32/6.3.0/../../../libmsvcrt.a(djpvbs01238.o)
                0x004ee958                _imp__strcat
 .idata$5       0x004ee95c        0x4 c:/mingw/bin/../lib/gcc/mingw32/6.3.0/../../../libmsvcrt.a(djpvbs01240.o)
                0x004ee95c                _imp__strchr
 .idata$5       0x004ee960        0x4 c:/mingw/bin/../lib/gcc/mingw32/6.3.0/../../../libmsvcrt.a(djpvbs01241.o)
                0x004ee960                _imp__strcmp
 .idata$5       0x004ee964        0x4 c:/mingw/bin/../lib/gcc/mingw32/6.3.0/../../../libmsvcrt.a(djpvbs01242.o)
                0x004ee964                _imp__strcoll
 .idata$5       0x004ee968        0x4 c:/mingw/bin/../lib/gcc/mingw32/6.3.0/../../../libmsvcrt.a(djpvbs01243.o)
                0x004ee968                _imp__strcpy
 .idata$5       0x004ee96c        0x4 c:/mingw/bin/../lib/gcc/mingw32/6.3.0/../../../libmsvcrt.a(djpvbs01245.o)
                0x004ee96c                _imp__strcspn
 .idata$5       0x004ee970        0x4 c:/mingw/bin/../lib/gcc/mingw32/6.3.0/../../../libmsvcrt.a(djpvbs01248.o)
                0x004ee970                _imp__strftime
 .idata$5       0x004ee974        0x4 c:/mingw/bin/../lib/gcc/mingw32/6.3.0/../../../libmsvcrt.a(djpvbs01249.o)
                0x004ee974                _imp__strlen
 .idata$5       0x004ee978        0x4 c:/mingw/bin/../lib/gcc/mingw32/6.3.0/../../../libmsvcrt.a(djpvbs01252.o)
                0x004ee978                _imp__strncmp
 .idata$5       0x004ee97c        0x4 c:/mingw/bin/../lib/gcc/mingw32/6.3.0/../../../libmsvcrt.a(djpvbs01253.o)
                0x004ee97c                _imp__strncpy
 .idata$5       0x004ee980        0x4 c:/mingw/bin/../lib/gcc/mingw32/6.3.0/../../../libmsvcrt.a(djpvbs01256.o)
                0x004ee980                _imp__strrchr
 .idata$5       0x004ee984        0x4 c:/mingw/bin/../lib/gcc/mingw32/6.3.0/../../../libmsvcrt.a(djpvbs01257.o)
                0x004ee984                _imp__strspn
 .idata$5       0x004ee988        0x4 c:/mingw/bin/../lib/gcc/mingw32/6.3.0/../../../libmsvcrt.a(djpvbs01258.o)
                0x004ee988                _imp__strstr
 .idata$5       0x004ee98c        0x4 c:/mingw/bin/../lib/gcc/mingw32/6.3.0/../../../libmsvcrt.a(djpvbs01262.o)
                0x004ee98c                _imp__strtol
 .idata$5       0x004ee990        0x4 c:/mingw/bin/../lib/gcc/mingw32/6.3.0/../../../libmsvcrt.a(djpvbs01263.o)
                0x004ee990                _imp__strtoul
 .idata$5       0x004ee994        0x4 c:/mingw/bin/../lib/gcc/mingw32/6.3.0/../../../libmsvcrt.a(djpvbs01269.o)
                0x004ee994                _imp__system
 .idata$5       0x004ee998        0x4 c:/mingw/bin/../lib/gcc/mingw32/6.3.0/../../../libmsvcrt.a(djpvbs01272.o)
                0x004ee998                _imp__time
 .idata$5       0x004ee99c        0x4 c:/mingw/bin/../lib/gcc/mingw32/6.3.0/../../../libmsvcrt.a(djpvbs01277.o)
                0x004ee99c                _imp__tolower
 .idata$5       0x004ee9a0        0x4 c:/mingw/bin/../lib/gcc/mingw32/6.3.0/../../../libmsvcrt.a(djpvbs01278.o)
                0x004ee9a0                _imp__toupper
 .idata$5       0x004ee9a4        0x4 c:/mingw/bin/../lib/gcc/mingw32/6.3.0/../../../libmsvcrt.a(djpvbs01281.o)
                0x004ee9a4                _imp__ungetc
 .idata$5       0x004ee9a8        0x4 c:/mingw/bin/../lib/gcc/mingw32/6.3.0/../../../libmsvcrt.a(djpvbs01284.o)
                0x004ee9a8                _imp__vfprintf
 .idata$5       0x004ee9ac        0x4 c:/mingw/bin/../lib/gcc/mingw32/6.3.0/../../../libmsvcrt.a(djpvbs01308.o)
                0x004ee9ac                _imp__wcslen
 .idata$5       0x004ee9b0        0x4 c:/mingw/bin/../lib/gcc/mingw32/6.3.0/../../../libmsvcrt.a(djpvbs01311.o)
                0x004ee9b0                _imp__wcsncmp
 .idata$5       0x004ee9b4        0x4 c:/mingw/bin/../lib/gcc/mingw32/6.3.0/../../../libmsvcrt.a(djpvbs01325.o)
                0x004ee9b4                _imp__wcstombs
 .idata$5       0x004ee9b8        0x4 c:/mingw/bin/../lib/gcc/mingw32/6.3.0/../../../libmsvcrt.a(djpvbt.o)
 .idata$5       0x004ee9bc        0x0 c:/mingw/bin/../lib/gcc/mingw32/6.3.0/../../../libole32.a(damch.o)
 .idata$5       0x004ee9bc        0x4 c:/mingw/bin/../lib/gcc/mingw32/6.3.0/../../../libole32.a(damcs00012.o)
                0x004ee9bc                _imp__CoCreateInstance@20
 .idata$5       0x004ee9c0        0x4 c:/mingw/bin/../lib/gcc/mingw32/6.3.0/../../../libole32.a(damcs00037.o)
                0x004ee9c0                _imp__CoInitialize@4
 .idata$5       0x004ee9c4        0x4 c:/mingw/bin/../lib/gcc/mingw32/6.3.0/../../../libole32.a(damcs00072.o)
                0x004ee9c4                _imp__CoUninitialize@0
 .idata$5       0x004ee9c8        0x4 c:/mingw/bin/../lib/gcc/mingw32/6.3.0/../../../libole32.a(damct.o)
 .idata$5       0x004ee9cc        0x0 c:/mingw/bin/../lib/gcc/mingw32/6.3.0/../../../libshell32.a(duoch.o)
 .idata$5       0x004ee9cc        0x4 c:/mingw/bin/../lib/gcc/mingw32/6.3.0/../../../libshell32.a(duocs00144.o)
                0x004ee9cc                _imp__ShellExecuteA@24
 .idata$5       0x004ee9d0        0x4 c:/mingw/bin/../lib/gcc/mingw32/6.3.0/../../../libshell32.a(duoct.o)
 .idata$5       0x004ee9d4        0x0 c:/mingw/bin/../lib/gcc/mingw32/6.3.0/../../../libuser32.a(dtpch.o)
 .idata$5       0x004ee9d4        0x4 c:/mingw/bin/../lib/gcc/mingw32/6.3.0/../../../libuser32.a(dtpcs00006.o)
                0x004ee9d4                _imp__AppendMenuA@16
 .idata$5       0x004ee9d8        0x4 c:/mingw/bin/../lib/gcc/mingw32/6.3.0/../../../libuser32.a(dtpcs00011.o)
                0x004ee9d8                _imp__BeginPaint@8
 .idata$5       0x004ee9dc        0x4 c:/mingw/bin/../lib/gcc/mingw32/6.3.0/../../../libuser32.a(dtpcs00053.o)
                0x004ee9dc                _imp__CheckDlgButton@12
 .idata$5       0x004ee9e0        0x4 c:/mingw/bin/../lib/gcc/mingw32/6.3.0/../../../libuser32.a(dtpcs00054.o)
                0x004ee9e0                _imp__CheckMenuItem@12
 .idata$5       0x004ee9e4        0x4 c:/mingw/bin/../lib/gcc/mingw32/6.3.0/../../../libuser32.a(dtpcs00056.o)
                0x004ee9e4                _imp__CheckRadioButton@16
 .idata$5       0x004ee9e8        0x4 c:/mingw/bin/../lib/gcc/mingw32/6.3.0/../../../libuser32.a(dtpcs00061.o)
                0x004ee9e8                _imp__CloseClipboard@0
 .idata$5       0x004ee9ec        0x4 c:/mingw/bin/../lib/gcc/mingw32/6.3.0/../../../libuser32.a(dtpcs00074.o)
                0x004ee9ec                _imp__CreateCaret@16
 .idata$5       0x004ee9f0        0x4 c:/mingw/bin/../lib/gcc/mingw32/6.3.0/../../../libuser32.a(dtpcs00080.o)
                0x004ee9f0                _imp__CreateDialogParamA@20
 .idata$5       0x004ee9f4        0x4 c:/mingw/bin/../lib/gcc/mingw32/6.3.0/../../../libuser32.a(dtpcs00088.o)
                0x004ee9f4                _imp__CreateMenu@0
 .idata$5       0x004ee9f8        0x4 c:/mingw/bin/../lib/gcc/mingw32/6.3.0/../../../libuser32.a(dtpcs00089.o)
                0x004ee9f8                _imp__CreatePopupMenu@0
 .idata$5       0x004ee9fc        0x4 c:/mingw/bin/../lib/gcc/mingw32/6.3.0/../../../libuser32.a(dtpcs00090.o)
                0x004ee9fc                _imp__CreateWindowExA@48
 .idata$5       0x004eea00        0x4 c:/mingw/bin/../lib/gcc/mingw32/6.3.0/../../../libuser32.a(dtpcs00091.o)
                0x004eea00                _imp__CreateWindowExW@48
 .idata$5       0x004eea04        0x4 c:/mingw/bin/../lib/gcc/mingw32/6.3.0/../../../libuser32.a(dtpcs00127.o)
                0x004eea04                _imp__DefDlgProcA@16
 .idata$5       0x004eea08        0x4 c:/mingw/bin/../lib/gcc/mingw32/6.3.0/../../../libuser32.a(dtpcs00134.o)
                0x004eea08                _imp__DefWindowProcA@16
 .idata$5       0x004eea0c        0x4 c:/mingw/bin/../lib/gcc/mingw32/6.3.0/../../../libuser32.a(dtpcs00135.o)
                0x004eea0c                _imp__DefWindowProcW@16
 .idata$5       0x004eea10        0x4 c:/mingw/bin/../lib/gcc/mingw32/6.3.0/../../../libuser32.a(dtpcs00137.o)
                0x004eea10                _imp__DeleteMenu@12
 .idata$5       0x004eea14        0x4 c:/mingw/bin/../lib/gcc/mingw32/6.3.0/../../../libuser32.a(dtpcs00140.o)
                0x004eea14                _imp__DestroyCaret@0
 .idata$5       0x004eea18        0x4 c:/mingw/bin/../lib/gcc/mingw32/6.3.0/../../../libuser32.a(dtpcs00142.o)
                0x004eea18                _imp__DestroyIcon@4
 .idata$5       0x004eea1c        0x4 c:/mingw/bin/../lib/gcc/mingw32/6.3.0/../../../libuser32.a(dtpcs00144.o)
                0x004eea1c                _imp__DestroyWindow@4
 .idata$5       0x004eea20        0x4 c:/mingw/bin/../lib/gcc/mingw32/6.3.0/../../../libuser32.a(dtpcs00147.o)
                0x004eea20                _imp__DialogBoxParamA@20
 .idata$5       0x004eea24        0x4 c:/mingw/bin/../lib/gcc/mingw32/6.3.0/../../../libuser32.a(dtpcs00149.o)
                0x004eea24                _imp__DispatchMessageA@4
 .idata$5       0x004eea28        0x4 c:/mingw/bin/../lib/gcc/mingw32/6.3.0/../../../libuser32.a(dtpcs00150.o)
                0x004eea28                _imp__DispatchMessageW@4
 .idata$5       0x004eea2c        0x4 c:/mingw/bin/../lib/gcc/mingw32/6.3.0/../../../libuser32.a(dtpcs00163.o)
                0x004eea2c                _imp__DrawEdge@16
 .idata$5       0x004eea30        0x4 c:/mingw/bin/../lib/gcc/mingw32/6.3.0/../../../libuser32.a(dtpcs00168.o)
                0x004eea30                _imp__DrawIconEx@36
 .idata$5       0x004eea34        0x4 c:/mingw/bin/../lib/gcc/mingw32/6.3.0/../../../libuser32.a(dtpcs00177.o)
                0x004eea34                _imp__EmptyClipboard@0
 .idata$5       0x004eea38        0x4 c:/mingw/bin/../lib/gcc/mingw32/6.3.0/../../../libuser32.a(dtpcs00178.o)
                0x004eea38                _imp__EnableMenuItem@12
 .idata$5       0x004eea3c        0x4 c:/mingw/bin/../lib/gcc/mingw32/6.3.0/../../../libuser32.a(dtpcs00180.o)
                0x004eea3c                _imp__EnableWindow@8
 .idata$5       0x004eea40        0x4 c:/mingw/bin/../lib/gcc/mingw32/6.3.0/../../../libuser32.a(dtpcs00182.o)
                0x004eea40                _imp__EndDialog@8
 .idata$5       0x004eea44        0x4 c:/mingw/bin/../lib/gcc/mingw32/6.3.0/../../../libuser32.a(dtpcs00184.o)
                0x004eea44                _imp__EndPaint@8
 .idata$5       0x004eea48        0x4 c:/mingw/bin/../lib/gcc/mingw32/6.3.0/../../../libuser32.a(dtpcs00210.o)
                0x004eea48                _imp__FindWindowA@8
 .idata$5       0x004eea4c        0x4 c:/mingw/bin/../lib/gcc/mingw32/6.3.0/../../../libuser32.a(dtpcs00214.o)
                0x004eea4c                _imp__FlashWindow@8
 .idata$5       0x004eea50        0x4 c:/mingw/bin/../lib/gcc/mingw32/6.3.0/../../../libuser32.a(dtpcs00224.o)
                0x004eea50                _imp__GetCapture@0
 .idata$5       0x004eea54        0x4 c:/mingw/bin/../lib/gcc/mingw32/6.3.0/../../../libuser32.a(dtpcs00225.o)
                0x004eea54                _imp__GetCaretBlinkTime@0
 .idata$5       0x004eea58        0x4 c:/mingw/bin/../lib/gcc/mingw32/6.3.0/../../../libuser32.a(dtpcs00236.o)
                0x004eea58                _imp__GetClientRect@8
 .idata$5       0x004eea5c        0x4 c:/mingw/bin/../lib/gcc/mingw32/6.3.0/../../../libuser32.a(dtpcs00238.o)
                0x004eea5c                _imp__GetClipboardData@4
 .idata$5       0x004eea60        0x4 c:/mingw/bin/../lib/gcc/mingw32/6.3.0/../../../libuser32.a(dtpcs00241.o)
                0x004eea60                _imp__GetClipboardOwner@0
 .idata$5       0x004eea64        0x4 c:/mingw/bin/../lib/gcc/mingw32/6.3.0/../../../libuser32.a(dtpcs00247.o)
                0x004eea64                _imp__GetCursorPos@4
 .idata$5       0x004eea68        0x4 c:/mingw/bin/../lib/gcc/mingw32/6.3.0/../../../libuser32.a(dtpcs00248.o)
                0x004eea68                _imp__GetDC@4
 .idata$5       0x004eea6c        0x4 c:/mingw/bin/../lib/gcc/mingw32/6.3.0/../../../libuser32.a(dtpcs00250.o)
                0x004eea6c                _imp__GetDesktopWindow@0
 .idata$5       0x004eea70        0x4 c:/mingw/bin/../lib/gcc/mingw32/6.3.0/../../../libuser32.a(dtpcs00253.o)
                0x004eea70                _imp__GetDlgItem@8
 .idata$5       0x004eea74        0x4 c:/mingw/bin/../lib/gcc/mingw32/6.3.0/../../../libuser32.a(dtpcs00255.o)
                0x004eea74                _imp__GetDlgItemTextA@16
 .idata$5       0x004eea78        0x4 c:/mingw/bin/../lib/gcc/mingw32/6.3.0/../../../libuser32.a(dtpcs00257.o)
                0x004eea78                _imp__GetDoubleClickTime@0
 .idata$5       0x004eea7c        0x4 c:/mingw/bin/../lib/gcc/mingw32/6.3.0/../../../libuser32.a(dtpcs00259.o)
                0x004eea7c                _imp__GetForegroundWindow@0
 .idata$5       0x004eea80        0x4 c:/mingw/bin/../lib/gcc/mingw32/6.3.0/../../../libuser32.a(dtpcs00269.o)
                0x004eea80                _imp__GetKeyboardLayout@4
 .idata$5       0x004eea84        0x4 c:/mingw/bin/../lib/gcc/mingw32/6.3.0/../../../libuser32.a(dtpcs00273.o)
                0x004eea84                _imp__GetKeyboardState@4
 .idata$5       0x004eea88        0x4 c:/mingw/bin/../lib/gcc/mingw32/6.3.0/../../../libuser32.a(dtpcs00293.o)
                0x004eea88                _imp__GetMessageA@16
 .idata$5       0x004eea8c        0x4 c:/mingw/bin/../lib/gcc/mingw32/6.3.0/../../../libuser32.a(dtpcs00296.o)
                0x004eea8c                _imp__GetMessageTime@0
 .idata$5       0x004eea90        0x4 c:/mingw/bin/../lib/gcc/mingw32/6.3.0/../../../libuser32.a(dtpcs00304.o)
                0x004eea90                _imp__GetParent@4
 .idata$5       0x004eea94        0x4 c:/mingw/bin/../lib/gcc/mingw32/6.3.0/../../../libuser32.a(dtpcs00310.o)
                0x004eea94                _imp__GetQueueStatus@4
 .idata$5       0x004eea98        0x4 c:/mingw/bin/../lib/gcc/mingw32/6.3.0/../../../libuser32.a(dtpcs00318.o)
                0x004eea98                _imp__GetScrollInfo@12
 .idata$5       0x004eea9c        0x4 c:/mingw/bin/../lib/gcc/mingw32/6.3.0/../../../libuser32.a(dtpcs00323.o)
                0x004eea9c                _imp__GetSysColor@4
 .idata$5       0x004eeaa0        0x4 c:/mingw/bin/../lib/gcc/mingw32/6.3.0/../../../libuser32.a(dtpcs00325.o)
                0x004eeaa0                _imp__GetSystemMenu@8
 .idata$5       0x004eeaa4        0x4 c:/mingw/bin/../lib/gcc/mingw32/6.3.0/../../../libuser32.a(dtpcs00342.o)
                0x004eeaa4                _imp__GetWindowLongA@8
 .idata$5       0x004eeaa8        0x4 c:/mingw/bin/../lib/gcc/mingw32/6.3.0/../../../libuser32.a(dtpcs00347.o)
                0x004eeaa8                _imp__GetWindowPlacement@8
 .idata$5       0x004eeaac        0x4 c:/mingw/bin/../lib/gcc/mingw32/6.3.0/../../../libuser32.a(dtpcs00348.o)
                0x004eeaac                _imp__GetWindowRect@8
 .idata$5       0x004eeab0        0x4 c:/mingw/bin/../lib/gcc/mingw32/6.3.0/../../../libuser32.a(dtpcs00350.o)
                0x004eeab0                _imp__GetWindowTextA@12
 .idata$5       0x004eeab4        0x4 c:/mingw/bin/../lib/gcc/mingw32/6.3.0/../../../libuser32.a(dtpcs00351.o)
                0x004eeab4                _imp__GetWindowTextLengthA@4
 .idata$5       0x004eeab8        0x4 c:/mingw/bin/../lib/gcc/mingw32/6.3.0/../../../libuser32.a(dtpcs00358.o)
                0x004eeab8                _imp__HideCaret@4
 .idata$5       0x004eeabc        0x4 c:/mingw/bin/../lib/gcc/mingw32/6.3.0/../../../libuser32.a(dtpcs00364.o)
                0x004eeabc                _imp__InsertMenuA@20
 .idata$5       0x004eeac0        0x4 c:/mingw/bin/../lib/gcc/mingw32/6.3.0/../../../libuser32.a(dtpcs00370.o)
                0x004eeac0                _imp__InvalidateRect@12
 .idata$5       0x004eeac4        0x4 c:/mingw/bin/../lib/gcc/mingw32/6.3.0/../../../libuser32.a(dtpcs00384.o)
                0x004eeac4                _imp__IsDialogMessageA@8
 .idata$5       0x004eeac8        0x4 c:/mingw/bin/../lib/gcc/mingw32/6.3.0/../../../libuser32.a(dtpcs00386.o)
                0x004eeac8                _imp__IsDlgButtonChecked@8
 .idata$5       0x004eeacc        0x4 c:/mingw/bin/../lib/gcc/mingw32/6.3.0/../../../libuser32.a(dtpcs00389.o)
                0x004eeacc                _imp__IsIconic@4
 .idata$5       0x004eead0        0x4 c:/mingw/bin/../lib/gcc/mingw32/6.3.0/../../../libuser32.a(dtpcs00394.o)
                0x004eead0                _imp__IsWindow@4
 .idata$5       0x004eead4        0x4 c:/mingw/bin/../lib/gcc/mingw32/6.3.0/../../../libuser32.a(dtpcs00398.o)
                0x004eead4                _imp__IsZoomed@4
 .idata$5       0x004eead8        0x4 c:/mingw/bin/../lib/gcc/mingw32/6.3.0/../../../libuser32.a(dtpcs00400.o)
                0x004eead8                _imp__KillTimer@8
 .idata$5       0x004eeadc        0x4 c:/mingw/bin/../lib/gcc/mingw32/6.3.0/../../../libuser32.a(dtpcs00405.o)
                0x004eeadc                _imp__LoadCursorA@8
 .idata$5       0x004eeae0        0x4 c:/mingw/bin/../lib/gcc/mingw32/6.3.0/../../../libuser32.a(dtpcs00409.o)
                0x004eeae0                _imp__LoadIconA@8
 .idata$5       0x004eeae4        0x4 c:/mingw/bin/../lib/gcc/mingw32/6.3.0/../../../libuser32.a(dtpcs00411.o)
                0x004eeae4                _imp__LoadImageA@24
 .idata$5       0x004eeae8        0x4 c:/mingw/bin/../lib/gcc/mingw32/6.3.0/../../../libuser32.a(dtpcs00426.o)
                0x004eeae8                _imp__MapDialogRect@8
 .idata$5       0x004eeaec        0x4 c:/mingw/bin/../lib/gcc/mingw32/6.3.0/../../../libuser32.a(dtpcs00433.o)
                0x004eeaec                _imp__MessageBeep@4
 .idata$5       0x004eeaf0        0x4 c:/mingw/bin/../lib/gcc/mingw32/6.3.0/../../../libuser32.a(dtpcs00434.o)
                0x004eeaf0                _imp__MessageBoxA@16
 .idata$5       0x004eeaf4        0x4 c:/mingw/bin/../lib/gcc/mingw32/6.3.0/../../../libuser32.a(dtpcs00437.o)
                0x004eeaf4                _imp__MessageBoxIndirectA@4
 .idata$5       0x004eeaf8        0x4 c:/mingw/bin/../lib/gcc/mingw32/6.3.0/../../../libuser32.a(dtpcs00445.o)
                0x004eeaf8                _imp__MoveWindow@24
 .idata$5       0x004eeafc        0x4 c:/mingw/bin/../lib/gcc/mingw32/6.3.0/../../../libuser32.a(dtpcs00446.o)
                0x004eeafc                _imp__MsgWaitForMultipleObjects@20
 .idata$5       0x004eeb00        0x4 c:/mingw/bin/../lib/gcc/mingw32/6.3.0/../../../libuser32.a(dtpcs00455.o)
                0x004eeb00                _imp__OpenClipboard@4
 .idata$5       0x004eeb04        0x4 c:/mingw/bin/../lib/gcc/mingw32/6.3.0/../../../libuser32.a(dtpcs00464.o)
                0x004eeb04                _imp__PeekMessageA@20
 .idata$5       0x004eeb08        0x4 c:/mingw/bin/../lib/gcc/mingw32/6.3.0/../../../libuser32.a(dtpcs00465.o)
                0x004eeb08                _imp__PeekMessageW@20
 .idata$5       0x004eeb0c        0x4 c:/mingw/bin/../lib/gcc/mingw32/6.3.0/../../../libuser32.a(dtpcs00466.o)
                0x004eeb0c                _imp__PostMessageA@16
 .idata$5       0x004eeb10        0x4 c:/mingw/bin/../lib/gcc/mingw32/6.3.0/../../../libuser32.a(dtpcs00468.o)
                0x004eeb10                _imp__PostQuitMessage@4
 .idata$5       0x004eeb14        0x4 c:/mingw/bin/../lib/gcc/mingw32/6.3.0/../../../libuser32.a(dtpcs00479.o)
                0x004eeb14                _imp__RegisterClassA@4
 .idata$5       0x004eeb18        0x4 c:/mingw/bin/../lib/gcc/mingw32/6.3.0/../../../libuser32.a(dtpcs00482.o)
                0x004eeb18                _imp__RegisterClassW@4
 .idata$5       0x004eeb1c        0x4 c:/mingw/bin/../lib/gcc/mingw32/6.3.0/../../../libuser32.a(dtpcs00483.o)
                0x004eeb1c                _imp__RegisterClipboardFormatA@4
 .idata$5       0x004eeb20        0x4 c:/mingw/bin/../lib/gcc/mingw32/6.3.0/../../../libuser32.a(dtpcs00491.o)
                0x004eeb20                _imp__RegisterWindowMessageA@4
 .idata$5       0x004eeb24        0x4 c:/mingw/bin/../lib/gcc/mingw32/6.3.0/../../../libuser32.a(dtpcs00493.o)
                0x004eeb24                _imp__ReleaseCapture@0
 .idata$5       0x004eeb28        0x4 c:/mingw/bin/../lib/gcc/mingw32/6.3.0/../../../libuser32.a(dtpcs00494.o)
                0x004eeb28                _imp__ReleaseDC@8
 .idata$5       0x004eeb2c        0x4 c:/mingw/bin/../lib/gcc/mingw32/6.3.0/../../../libuser32.a(dtpcs00500.o)
                0x004eeb2c                _imp__ScreenToClient@8
 .idata$5       0x004eeb30        0x4 c:/mingw/bin/../lib/gcc/mingw32/6.3.0/../../../libuser32.a(dtpcs00505.o)
                0x004eeb30                _imp__SendDlgItemMessageA@20
 .idata$5       0x004eeb34        0x4 c:/mingw/bin/../lib/gcc/mingw32/6.3.0/../../../libuser32.a(dtpcs00508.o)
                0x004eeb34                _imp__SendMessageA@16
 .idata$5       0x004eeb38        0x4 c:/mingw/bin/../lib/gcc/mingw32/6.3.0/../../../libuser32.a(dtpcs00516.o)
                0x004eeb38                _imp__SetActiveWindow@4
 .idata$5       0x004eeb3c        0x4 c:/mingw/bin/../lib/gcc/mingw32/6.3.0/../../../libuser32.a(dtpcs00517.o)
                0x004eeb3c                _imp__SetCapture@4
 .idata$5       0x004eeb40        0x4 c:/mingw/bin/../lib/gcc/mingw32/6.3.0/../../../libuser32.a(dtpcs00519.o)
                0x004eeb40                _imp__SetCaretPos@8
 .idata$5       0x004eeb44        0x4 c:/mingw/bin/../lib/gcc/mingw32/6.3.0/../../../libuser32.a(dtpcs00520.o)
                0x004eeb44                _imp__SetClassLongA@12
 .idata$5       0x004eeb48        0x4 c:/mingw/bin/../lib/gcc/mingw32/6.3.0/../../../libuser32.a(dtpcs00523.o)
                0x004eeb48                _imp__SetClipboardData@8
 .idata$5       0x004eeb4c        0x4 c:/mingw/bin/../lib/gcc/mingw32/6.3.0/../../../libuser32.a(dtpcs00525.o)
                0x004eeb4c                _imp__SetCursor@4
 .idata$5       0x004eeb50        0x4 c:/mingw/bin/../lib/gcc/mingw32/6.3.0/../../../libuser32.a(dtpcs00530.o)
                0x004eeb50                _imp__SetDlgItemTextA@12
 .idata$5       0x004eeb54        0x4 c:/mingw/bin/../lib/gcc/mingw32/6.3.0/../../../libuser32.a(dtpcs00533.o)
                0x004eeb54                _imp__SetFocus@4
 .idata$5       0x004eeb58        0x4 c:/mingw/bin/../lib/gcc/mingw32/6.3.0/../../../libuser32.a(dtpcs00534.o)
                0x004eeb58                _imp__SetForegroundWindow@4
 .idata$5       0x004eeb5c        0x4 c:/mingw/bin/../lib/gcc/mingw32/6.3.0/../../../libuser32.a(dtpcs00535.o)
                0x004eeb5c                _imp__SetKeyboardState@4
 .idata$5       0x004eeb60        0x4 c:/mingw/bin/../lib/gcc/mingw32/6.3.0/../../../libuser32.a(dtpcs00554.o)
                0x004eeb60                _imp__SetScrollInfo@16
 .idata$5       0x004eeb64        0x4 c:/mingw/bin/../lib/gcc/mingw32/6.3.0/../../../libuser32.a(dtpcs00563.o)
                0x004eeb64                _imp__SetTimer@16
 .idata$5       0x004eeb68        0x4 c:/mingw/bin/../lib/gcc/mingw32/6.3.0/../../../libuser32.a(dtpcs00569.o)
                0x004eeb68                _imp__SetWindowLongA@12
 .idata$5       0x004eeb6c        0x4 c:/mingw/bin/../lib/gcc/mingw32/6.3.0/../../../libuser32.a(dtpcs00571.o)
                0x004eeb6c                _imp__SetWindowPlacement@8
 .idata$5       0x004eeb70        0x4 c:/mingw/bin/../lib/gcc/mingw32/6.3.0/../../../libuser32.a(dtpcs00572.o)
                0x004eeb70                _imp__SetWindowPos@28
 .idata$5       0x004eeb74        0x4 c:/mingw/bin/../lib/gcc/mingw32/6.3.0/../../../libuser32.a(dtpcs00574.o)
                0x004eeb74                _imp__SetWindowTextA@8
 .idata$5       0x004eeb78        0x4 c:/mingw/bin/../lib/gcc/mingw32/6.3.0/../../../libuser32.a(dtpcs00581.o)
                0x004eeb78                _imp__ShowCaret@4
 .idata$5       0x004eeb7c        0x4 c:/mingw/bin/../lib/gcc/mingw32/6.3.0/../../../libuser32.a(dtpcs00582.o)
                0x004eeb7c                _imp__ShowCursor@4
 .idata$5       0x004eeb80        0x4 c:/mingw/bin/../lib/gcc/mingw32/6.3.0/../../../libuser32.a(dtpcs00585.o)
                0x004eeb80                _imp__ShowWindow@8
 .idata$5       0x004eeb84        0x4 c:/mingw/bin/../lib/gcc/mingw32/6.3.0/../../../libuser32.a(dtpcs00591.o)
                0x004eeb84                _imp__SystemParametersInfoA@16
 .idata$5       0x004eeb88        0x4 c:/mingw/bin/../lib/gcc/mingw32/6.3.0/../../../libuser32.a(dtpcs00598.o)
                0x004eeb88                _imp__ToAsciiEx@24
 .idata$5       0x004eeb8c        0x4 c:/mingw/bin/../lib/gcc/mingw32/6.3.0/../../../libuser32.a(dtpcs00602.o)
                0x004eeb8c                _imp__TrackPopupMenu@28
 .idata$5       0x004eeb90        0x4 c:/mingw/bin/../lib/gcc/mingw32/6.3.0/../../../libuser32.a(dtpcs00608.o)
                0x004eeb90                _imp__TranslateMessage@4
 .idata$5       0x004eeb94        0x4 c:/mingw/bin/../lib/gcc/mingw32/6.3.0/../../../libuser32.a(dtpcs00622.o)
                0x004eeb94                _imp__UpdateWindow@4
 .idata$5       0x004eeb98        0x4 c:/mingw/bin/../lib/gcc/mingw32/6.3.0/../../../libuser32.a(dtpct.o)
                0x004eeb9c                __IAT_end__ = .
 SORT(*)(.idata$6)
 .idata$6       0x004eeb9c       0x10 c:/mingw/bin/../lib/gcc/mingw32/6.3.0/../../../libadvapi32.a(dchcs00245.o)
 .idata$6       0x004eebac        0xe c:/mingw/bin/../lib/gcc/mingw32/6.3.0/../../../libadvapi32.a(dchcs00386.o)
 .idata$6       0x004eebba       0x10 c:/mingw/bin/../lib/gcc/mingw32/6.3.0/../../../libadvapi32.a(dchcs00389.o)
 .idata$6       0x004eebca       0x12 c:/mingw/bin/../lib/gcc/mingw32/6.3.0/../../../libadvapi32.a(dchcs00390.o)
 .idata$6       0x004eebdc       0x10 c:/mingw/bin/../lib/gcc/mingw32/6.3.0/../../../libadvapi32.a(dchcs00393.o)
 .idata$6       0x004eebec       0x12 c:/mingw/bin/../lib/gcc/mingw32/6.3.0/../../../libadvapi32.a(dchcs00397.o)
 .idata$6       0x004eebfe        0xe c:/mingw/bin/../lib/gcc/mingw32/6.3.0/../../../libadvapi32.a(dchcs00400.o)
 .idata$6       0x004eec0c        0xe c:/mingw/bin/../lib/gcc/mingw32/6.3.0/../../../libadvapi32.a(dchcs00412.o)
 .idata$6       0x004eec1a       0x14 c:/mingw/bin/../lib/gcc/mingw32/6.3.0/../../../libadvapi32.a(dchcs00423.o)
 .idata$6       0x004eec2e       0x12 c:/mingw/bin/../lib/gcc/mingw32/6.3.0/../../../libadvapi32.a(dchcs00434.o)
 .idata$6       0x004eec40       0x10 c:/mingw/bin/../lib/gcc/mingw32/6.3.0/../../../libcomdlg32.a(duhcs00000.o)
 .idata$6       0x004eec50        0xe c:/mingw/bin/../lib/gcc/mingw32/6.3.0/../../../libcomdlg32.a(duhcs00002.o)
 .idata$6       0x004eec5e       0x14 c:/mingw/bin/../lib/gcc/mingw32/6.3.0/../../../libcomdlg32.a(duhcs00009.o)
 .idata$6       0x004eec72       0x14 c:/mingw/bin/../lib/gcc/mingw32/6.3.0/../../../libcomdlg32.a(duhcs00011.o)
 .idata$6       0x004eec86       0x10 c:/mingw/bin/../lib/gcc/mingw32/6.3.0/../../../libgdi32.a(dpics00028.o)
 .idata$6       0x004eec96       0x1a c:/mingw/bin/../lib/gcc/mingw32/6.3.0/../../../libgdi32.a(dpics00033.o)
 .idata$6       0x004eecb0       0x16 c:/mingw/bin/../lib/gcc/mingw32/6.3.0/../../../libgdi32.a(dpics00034.o)
 .idata$6       0x004eecc6        0xe c:/mingw/bin/../lib/gcc/mingw32/6.3.0/../../../libgdi32.a(dpics00046.o)
 .idata$6       0x004eecd4       0x16 c:/mingw/bin/../lib/gcc/mingw32/6.3.0/../../../libgdi32.a(dpics00047.o)
 .idata$6       0x004eecea       0x10 c:/mingw/bin/../lib/gcc/mingw32/6.3.0/../../../libgdi32.a(dpics00056.o)
 .idata$6       0x004eecfa        0xc c:/mingw/bin/../lib/gcc/mingw32/6.3.0/../../../libgdi32.a(dpics00058.o)
 .idata$6       0x004eed06       0x14 c:/mingw/bin/../lib/gcc/mingw32/6.3.0/../../../libgdi32.a(dpics00067.o)
 .idata$6       0x004eed1a        0xc c:/mingw/bin/../lib/gcc/mingw32/6.3.0/../../../libgdi32.a(dpics00070.o)
 .idata$6       0x004eed26       0x10 c:/mingw/bin/../lib/gcc/mingw32/6.3.0/../../../libgdi32.a(dpics00073.o)
 .idata$6       0x004eed36       0x12 c:/mingw/bin/../lib/gcc/mingw32/6.3.0/../../../libgdi32.a(dpics00096.o)
 .idata$6       0x004eed48        0xe c:/mingw/bin/../lib/gcc/mingw32/6.3.0/../../../libgdi32.a(dpics00102.o)
 .idata$6       0x004eed56        0xe c:/mingw/bin/../lib/gcc/mingw32/6.3.0/../../../libgdi32.a(dpics00103.o)
 .idata$6       0x004eed64        0xc c:/mingw/bin/../lib/gcc/mingw32/6.3.0/../../../libgdi32.a(dpics00122.o)
 .idata$6       0x004eed70       0x1a c:/mingw/bin/../lib/gcc/mingw32/6.3.0/../../../libgdi32.a(dpics00126.o)
 .idata$6       0x004eed8a       0x12 c:/mingw/bin/../lib/gcc/mingw32/6.3.0/../../../libgdi32.a(dpics00129.o)
 .idata$6       0x004eed9c       0x12 c:/mingw/bin/../lib/gcc/mingw32/6.3.0/../../../libgdi32.a(dpics00130.o)
 .idata$6       0x004eedae       0x10 c:/mingw/bin/../lib/gcc/mingw32/6.3.0/../../../libgdi32.a(dpics00131.o)
 .idata$6       0x004eedbe       0x10 c:/mingw/bin/../lib/gcc/mingw32/6.3.0/../../../libgdi32.a(dpics00134.o)
 .idata$6       0x004eedce       0x1a c:/mingw/bin/../lib/gcc/mingw32/6.3.0/../../../libgdi32.a(dpics00136.o)
 .idata$6       0x004eede8       0x10 c:/mingw/bin/../lib/gcc/mingw32/6.3.0/../../../libgdi32.a(dpics00148.o)
 .idata$6       0x004eedf8        0xe c:/mingw/bin/../lib/gcc/mingw32/6.3.0/../../../libgdi32.a(dpics00185.o)
 .idata$6       0x004eee06        0xc c:/mingw/bin/../lib/gcc/mingw32/6.3.0/../../../libgdi32.a(dpics00192.o)
 .idata$6       0x004eee12       0x12 c:/mingw/bin/../lib/gcc/mingw32/6.3.0/../../../libgdi32.a(dpics00201.o)
 .idata$6       0x004eee24       0x18 c:/mingw/bin/../lib/gcc/mingw32/6.3.0/../../../libgdi32.a(dpics00210.o)
 .idata$6       0x004eee3c       0x18 c:/mingw/bin/../lib/gcc/mingw32/6.3.0/../../../libgdi32.a(dpics00213.o)
 .idata$6       0x004eee54       0x12 c:/mingw/bin/../lib/gcc/mingw32/6.3.0/../../../libgdi32.a(dpics00219.o)
 .idata$6       0x004eee66       0x14 c:/mingw/bin/../lib/gcc/mingw32/6.3.0/../../../libgdi32.a(dpics00227.o)
 .idata$6       0x004eee7a        0xa c:/mingw/bin/../lib/gcc/mingw32/6.3.0/../../../libgdi32.a(dpics00231.o)
 .idata$6       0x004eee84        0xc c:/mingw/bin/../lib/gcc/mingw32/6.3.0/../../../libgdi32.a(dpics00234.o)
 .idata$6       0x004eee90        0xc c:/mingw/bin/../lib/gcc/mingw32/6.3.0/../../../libgdi32.a(dpics00256.o)
 .idata$6       0x004eee9c       0x12 c:/mingw/bin/../lib/gcc/mingw32/6.3.0/../../../libgdi32.a(dpics00260.o)
 .idata$6       0x004eeeae        0xc c:/mingw/bin/../lib/gcc/mingw32/6.3.0/../../../libgdi32.a(dpics00263.o)
 .idata$6       0x004eeeba       0x10 c:/mingw/bin/../lib/gcc/mingw32/6.3.0/../../../libgdi32.a(dpics00281.o)
 .idata$6       0x004eeeca       0x10 c:/mingw/bin/../lib/gcc/mingw32/6.3.0/../../../libgdi32.a(dpics00282.o)
 .idata$6       0x004eeeda        0xe c:/mingw/bin/../lib/gcc/mingw32/6.3.0/../../../libgdi32.a(dpics00287.o)
 .idata$6       0x004eeee8        0xc c:/mingw/bin/../lib/gcc/mingw32/6.3.0/../../../libgdi32.a(dpics00288.o)
 .idata$6       0x004eeef4        0xe c:/mingw/bin/../lib/gcc/mingw32/6.3.0/../../../libgdi32.a(dpics00306.o)
 .idata$6       0x004eef02       0x14 c:/mingw/bin/../lib/gcc/mingw32/6.3.0/../../../libgdi32.a(dpics00311.o)
 .idata$6       0x004eef16        0xc c:/mingw/bin/../lib/gcc/mingw32/6.3.0/../../../libgdi32.a(dpics00312.o)
 .idata$6       0x004eef22       0x10 c:/mingw/bin/../lib/gcc/mingw32/6.3.0/../../../libgdi32.a(dpics00321.o)
 .idata$6       0x004eef32       0x10 c:/mingw/bin/../lib/gcc/mingw32/6.3.0/../../../libgdi32.a(dpics00323.o)
 .idata$6       0x004eef42        0xc c:/mingw/bin/../lib/gcc/mingw32/6.3.0/../../../libgdi32.a(dpics00339.o)
 .idata$6       0x004eef4e       0x18 c:/mingw/bin/../lib/gcc/mingw32/6.3.0/../../../libgdi32.a(dpics00341.o)
 .idata$6       0x004eef66       0x12 c:/mingw/bin/../lib/gcc/mingw32/6.3.0/../../../libgdi32.a(dpics00342.o)
 .idata$6       0x004eef78       0x10 c:/mingw/bin/../lib/gcc/mingw32/6.3.0/../../../libgdi32.a(dpics00343.o)
 .idata$6       0x004eef88       0x1c c:/mingw/bin/../lib/gcc/mingw32/6.3.0/../../../libimm32.a(dojcs00023.o)
 .idata$6       0x004eefa4       0x10 c:/mingw/bin/../lib/gcc/mingw32/6.3.0/../../../libimm32.a(dojcs00025.o)
 .idata$6       0x004eefb4       0x14 c:/mingw/bin/../lib/gcc/mingw32/6.3.0/../../../libimm32.a(dojcs00059.o)
 .idata$6       0x004eefc8       0x1a c:/mingw/bin/../lib/gcc/mingw32/6.3.0/../../../libimm32.a(dojcs00061.o)
 .idata$6       0x004eefe2       0x1a c:/mingw/bin/../lib/gcc/mingw32/6.3.0/../../../libimm32.a(dojcs00065.o)
 .idata$6       0x004eeffc        0x8 c:/mingw/bin/../lib/gcc/mingw32/6.3.0/../../../libkernel32.a(dujcs00054.o)
 .idata$6       0x004ef004       0x12 c:/mingw/bin/../lib/gcc/mingw32/6.3.0/../../../libkernel32.a(dujcs00079.o)
 .idata$6       0x004ef016        0xe c:/mingw/bin/../lib/gcc/mingw32/6.3.0/../../../libkernel32.a(dujcs00082.o)
 .idata$6       0x004ef024       0x10 c:/mingw/bin/../lib/gcc/mingw32/6.3.0/../../../libkernel32.a(dujcs00129.o)
 .idata$6       0x004ef034        0xe c:/mingw/bin/../lib/gcc/mingw32/6.3.0/../../../libkernel32.a(dujcs00135.o)
 .idata$6       0x004ef042       0x16 c:/mingw/bin/../lib/gcc/mingw32/6.3.0/../../../libkernel32.a(dujcs00136.o)
 .idata$6       0x004ef058        0xe c:/mingw/bin/../lib/gcc/mingw32/6.3.0/../../../libkernel32.a(dujcs00160.o)
 .idata$6       0x004ef066       0x12 c:/mingw/bin/../lib/gcc/mingw32/6.3.0/../../../libkernel32.a(dujcs00163.o)
 .idata$6       0x004ef078       0x10 c:/mingw/bin/../lib/gcc/mingw32/6.3.0/../../../libkernel32.a(dujcs00179.o)
 .idata$6       0x004ef088       0x18 c:/mingw/bin/../lib/gcc/mingw32/6.3.0/../../../libkernel32.a(dujcs00207.o)
 .idata$6       0x004ef0a0        0xe c:/mingw/bin/../lib/gcc/mingw32/6.3.0/../../../libkernel32.a(dujcs00209.o)
 .idata$6       0x004ef0ae       0x18 c:/mingw/bin/../lib/gcc/mingw32/6.3.0/../../../libkernel32.a(dujcs00236.o)
 .idata$6       0x004ef0c6        0xe c:/mingw/bin/../lib/gcc/mingw32/6.3.0/../../../libkernel32.a(dujcs00279.o)
 .idata$6       0x004ef0d4        0xc c:/mingw/bin/../lib/gcc/mingw32/6.3.0/../../../libkernel32.a(dujcs00300.o)
 .idata$6       0x004ef0e0       0x12 c:/mingw/bin/../lib/gcc/mingw32/6.3.0/../../../libkernel32.a(dujcs00304.o)
 .idata$6       0x004ef0f2       0x10 c:/mingw/bin/../lib/gcc/mingw32/6.3.0/../../../libkernel32.a(dujcs00321.o)
 .idata$6       0x004ef102       0x12 c:/mingw/bin/../lib/gcc/mingw32/6.3.0/../../../libkernel32.a(dujcs00347.o)
 .idata$6       0x004ef114        0xe c:/mingw/bin/../lib/gcc/mingw32/6.3.0/../../../libkernel32.a(dujcs00352.o)
 .idata$6       0x004ef122        0xa c:/mingw/bin/../lib/gcc/mingw32/6.3.0/../../../libkernel32.a(dujcs00358.o)
 .idata$6       0x004ef12c        0xc c:/mingw/bin/../lib/gcc/mingw32/6.3.0/../../../libkernel32.a(dujcs00368.o)
 .idata$6       0x004ef138       0x10 c:/mingw/bin/../lib/gcc/mingw32/6.3.0/../../../libkernel32.a(dujcs00386.o)
 .idata$6       0x004ef148       0x12 c:/mingw/bin/../lib/gcc/mingw32/6.3.0/../../../libkernel32.a(dujcs00388.o)
 .idata$6       0x004ef15a       0x12 c:/mingw/bin/../lib/gcc/mingw32/6.3.0/../../../libkernel32.a(dujcs00426.o)
 .idata$6       0x004ef16c       0x18 c:/mingw/bin/../lib/gcc/mingw32/6.3.0/../../../libkernel32.a(dujcs00444.o)
 .idata$6       0x004ef184       0x14 c:/mingw/bin/../lib/gcc/mingw32/6.3.0/../../../libkernel32.a(dujcs00446.o)
 .idata$6       0x004ef198       0x16 c:/mingw/bin/../lib/gcc/mingw32/6.3.0/../../../libkernel32.a(dujcs00447.o)
 .idata$6       0x004ef1ae       0x14 c:/mingw/bin/../lib/gcc/mingw32/6.3.0/../../../libkernel32.a(dujcs00450.o)
 .idata$6       0x004ef1c2       0x16 c:/mingw/bin/../lib/gcc/mingw32/6.3.0/../../../libkernel32.a(dujcs00451.o)
 .idata$6       0x004ef1d8       0x1a c:/mingw/bin/../lib/gcc/mingw32/6.3.0/../../../libkernel32.a(dujcs00473.o)
 .idata$6       0x004ef1f2       0x18 c:/mingw/bin/../lib/gcc/mingw32/6.3.0/../../../libkernel32.a(dujcs00482.o)
 .idata$6       0x004ef20a       0x10 c:/mingw/bin/../lib/gcc/mingw32/6.3.0/../../../libkernel32.a(dujcs00510.o)
 .idata$6       0x004ef21a       0x10 c:/mingw/bin/../lib/gcc/mingw32/6.3.0/../../../libkernel32.a(dujcs00511.o)
 .idata$6       0x004ef22a       0x12 c:/mingw/bin/../lib/gcc/mingw32/6.3.0/../../../libkernel32.a(dujcs00512.o)
 .idata$6       0x004ef23c       0x16 c:/mingw/bin/../lib/gcc/mingw32/6.3.0/../../../libkernel32.a(dujcs00527.o)
 .idata$6       0x004ef252       0x14 c:/mingw/bin/../lib/gcc/mingw32/6.3.0/../../../libkernel32.a(dujcs00529.o)
 .idata$6       0x004ef266        0xc c:/mingw/bin/../lib/gcc/mingw32/6.3.0/../../../libkernel32.a(dujcs00563.o)
 .idata$6       0x004ef272       0x16 c:/mingw/bin/../lib/gcc/mingw32/6.3.0/../../../libkernel32.a(dujcs00564.o)
 .idata$6       0x004ef288       0x12 c:/mingw/bin/../lib/gcc/mingw32/6.3.0/../../../libkernel32.a(dujcs00577.o)
 .idata$6       0x004ef29a       0x12 c:/mingw/bin/../lib/gcc/mingw32/6.3.0/../../../libkernel32.a(dujcs00590.o)
 .idata$6       0x004ef2ac       0x12 c:/mingw/bin/../lib/gcc/mingw32/6.3.0/../../../libkernel32.a(dujcs00606.o)
 .idata$6       0x004ef2be       0x16 c:/mingw/bin/../lib/gcc/mingw32/6.3.0/../../../libkernel32.a(dujcs00619.o)
 .idata$6       0x004ef2d4       0x1a c:/mingw/bin/../lib/gcc/mingw32/6.3.0/../../../libkernel32.a(dujcs00629.o)
 .idata$6       0x004ef2ee       0x12 c:/mingw/bin/../lib/gcc/mingw32/6.3.0/../../../libkernel32.a(dujcs00653.o)
 .idata$6       0x004ef300       0x10 c:/mingw/bin/../lib/gcc/mingw32/6.3.0/../../../libkernel32.a(dujcs00656.o)
 .idata$6       0x004ef310       0x18 c:/mingw/bin/../lib/gcc/mingw32/6.3.0/../../../libkernel32.a(dujcs00682.o)
 .idata$6       0x004ef328        0xe c:/mingw/bin/../lib/gcc/mingw32/6.3.0/../../../libkernel32.a(dujcs00687.o)
 .idata$6       0x004ef336        0xe c:/mingw/bin/../lib/gcc/mingw32/6.3.0/../../../libkernel32.a(dujcs00694.o)
 .idata$6       0x004ef344        0xe c:/mingw/bin/../lib/gcc/mingw32/6.3.0/../../../libkernel32.a(dujcs00698.o)
 .idata$6       0x004ef352       0x16 c:/mingw/bin/../lib/gcc/mingw32/6.3.0/../../../libkernel32.a(dujcs00699.o)
 .idata$6       0x004ef368       0x10 c:/mingw/bin/../lib/gcc/mingw32/6.3.0/../../../libkernel32.a(dujcs00705.o)
 .idata$6       0x004ef378       0x1c c:/mingw/bin/../lib/gcc/mingw32/6.3.0/../../../libkernel32.a(dujcs00734.o)
 .idata$6       0x004ef394       0x16 c:/mingw/bin/../lib/gcc/mingw32/6.3.0/../../../libkernel32.a(dujcs00744.o)
 .idata$6       0x004ef3aa       0x14 c:/mingw/bin/../lib/gcc/mingw32/6.3.0/../../../libkernel32.a(dujcs00763.o)
 .idata$6       0x004ef3be       0x18 c:/mingw/bin/../lib/gcc/mingw32/6.3.0/../../../libkernel32.a(dujcs00814.o)
 .idata$6       0x004ef3d6       0x10 c:/mingw/bin/../lib/gcc/mingw32/6.3.0/../../../libkernel32.a(dujcs00817.o)
 .idata$6       0x004ef3e6       0x12 c:/mingw/bin/../lib/gcc/mingw32/6.3.0/../../../libkernel32.a(dujcs00818.o)
 .idata$6       0x004ef3f8       0x1a c:/mingw/bin/../lib/gcc/mingw32/6.3.0/../../../libkernel32.a(dujcs00827.o)
 .idata$6       0x004ef412       0x10 c:/mingw/bin/../lib/gcc/mingw32/6.3.0/../../../libkernel32.a(dujcs00844.o)
 .idata$6       0x004ef422        0xa c:/mingw/bin/../lib/gcc/mingw32/6.3.0/../../../libkernel32.a(dujcs00859.o)
 .idata$6       0x004ef42c       0x16 c:/mingw/bin/../lib/gcc/mingw32/6.3.0/../../../libkernel32.a(dujcs00860.o)
 .idata$6       0x004ef442       0x1a c:/mingw/bin/../lib/gcc/mingw32/6.3.0/../../../libkernel32.a(dujcs00922.o)
 .idata$6       0x004ef45c        0xc c:/mingw/bin/../lib/gcc/mingw32/6.3.0/../../../libkernel32.a(dujcs00947.o)
 .idata$6       0x004ef468       0x10 c:/mingw/bin/../lib/gcc/mingw32/6.3.0/../../../libkernel32.a(dujcs01010.o)
 .idata$6       0x004ef478       0x10 c:/mingw/bin/../lib/gcc/mingw32/6.3.0/../../../libkernel32.a(dujcs01013.o)
 .idata$6       0x004ef488       0x12 c:/mingw/bin/../lib/gcc/mingw32/6.3.0/../../../libkernel32.a(dujcs01014.o)
 .idata$6       0x004ef49a       0x18 c:/mingw/bin/../lib/gcc/mingw32/6.3.0/../../../libkernel32.a(dujcs01052.o)
 .idata$6       0x004ef4b2        0xc c:/mingw/bin/../lib/gcc/mingw32/6.3.0/../../../libkernel32.a(dujcs01065.o)
 .idata$6       0x004ef4be       0x18 c:/mingw/bin/../lib/gcc/mingw32/6.3.0/../../../libkernel32.a(dujcs01088.o)
 .idata$6       0x004ef4d6       0x1e c:/mingw/bin/../lib/gcc/mingw32/6.3.0/../../../libkernel32.a(dujcs01140.o)
 .idata$6       0x004ef4f4        0x8 c:/mingw/bin/../lib/gcc/mingw32/6.3.0/../../../libkernel32.a(dujcs01152.o)
 .idata$6       0x004ef4fc        0xe c:/mingw/bin/../lib/gcc/mingw32/6.3.0/../../../libkernel32.a(dujcs01173.o)
 .idata$6       0x004ef50a       0x12 c:/mingw/bin/../lib/gcc/mingw32/6.3.0/../../../libkernel32.a(dujcs01188.o)
 .idata$6       0x004ef51c       0x12 c:/mingw/bin/../lib/gcc/mingw32/6.3.0/../../../libkernel32.a(dujcs01213.o)
 .idata$6       0x004ef52e       0x10 c:/mingw/bin/../lib/gcc/mingw32/6.3.0/../../../libkernel32.a(dujcs01215.o)
 .idata$6       0x004ef53e       0x16 c:/mingw/bin/../lib/gcc/mingw32/6.3.0/../../../libkernel32.a(dujcs01223.o)
 .idata$6       0x004ef554       0x16 c:/mingw/bin/../lib/gcc/mingw32/6.3.0/../../../libkernel32.a(dujcs01247.o)
 .idata$6       0x004ef56a        0xc c:/mingw/bin/../lib/gcc/mingw32/6.3.0/../../../libkernel32.a(dujcs01267.o)
 .idata$6       0x004ef576        0xa c:/mingw/bin/../lib/gcc/mingw32/6.3.0/../../../libmoldname.a(dagwbs00080.o)
 .idata$6       0x004ef580        0xc c:/mingw/bin/../lib/gcc/mingw32/6.3.0/../../../libmoldname.a(dagwbs00082.o)
 .idata$6       0x004ef58c       0x10 c:/mingw/bin/../lib/gcc/mingw32/6.3.0/../../../libmsvcrt.a(djpvbs00088.o)
 .idata$6       0x004ef59c       0x10 c:/mingw/bin/../lib/gcc/mingw32/6.3.0/../../../libmsvcrt.a(djpvbs00119.o)
 .idata$6       0x004ef5ac       0x10 c:/mingw/bin/../lib/gcc/mingw32/6.3.0/../../../libmsvcrt.a(djpvbs00131.o)
 .idata$6       0x004ef5bc        0xe c:/mingw/bin/../lib/gcc/mingw32/6.3.0/../../../libmsvcrt.a(djpvbs00133.o)
 .idata$6       0x004ef5ca       0x12 c:/mingw/bin/../lib/gcc/mingw32/6.3.0/../../../libmsvcrt.a(djpvbs00153.o)
 .idata$6       0x004ef5dc        0xa c:/mingw/bin/../lib/gcc/mingw32/6.3.0/../../../libmsvcrt.a(djpvbs00201.o)
 .idata$6       0x004ef5e6        0xa c:/mingw/bin/../lib/gcc/mingw32/6.3.0/../../../libmsvcrt.a(djpvbs00219.o)
 .idata$6       0x004ef5f0        0xa c:/mingw/bin/../lib/gcc/mingw32/6.3.0/../../../libmsvcrt.a(djpvbs00285.o)
 .idata$6       0x004ef5fa        0xc c:/mingw/bin/../lib/gcc/mingw32/6.3.0/../../../libmsvcrt.a(djpvbs00324.o)
 .idata$6       0x004ef606        0xc c:/mingw/bin/../lib/gcc/mingw32/6.3.0/../../../libmsvcrt.a(djpvbs00350.o)
 .idata$6       0x004ef612        0x8 c:/mingw/bin/../lib/gcc/mingw32/6.3.0/../../../libmsvcrt.a(djpvbs00417.o)
 .idata$6       0x004ef61a        0xc c:/mingw/bin/../lib/gcc/mingw32/6.3.0/../../../libmsvcrt.a(djpvbs00422.o)
 .idata$6       0x004ef626        0xa c:/mingw/bin/../lib/gcc/mingw32/6.3.0/../../../libmsvcrt.a(djpvbs00689.o)
 .idata$6       0x004ef630        0xa c:/mingw/bin/../lib/gcc/mingw32/6.3.0/../../../libmsvcrt.a(djpvbs00698.o)
 .idata$6       0x004ef63a        0xc c:/mingw/bin/../lib/gcc/mingw32/6.3.0/../../../libmsvcrt.a(djpvbs00753.o)
 .idata$6       0x004ef646        0xc c:/mingw/bin/../lib/gcc/mingw32/6.3.0/../../../libmsvcrt.a(djpvbs00803.o)
 .idata$6       0x004ef652        0xc c:/mingw/bin/../lib/gcc/mingw32/6.3.0/../../../libmsvcrt.a(djpvbs00813.o)
 .idata$6       0x004ef65e        0x8 c:/mingw/bin/../lib/gcc/mingw32/6.3.0/../../../libmsvcrt.a(djpvbs01083.o)
 .idata$6       0x004ef666        0xa c:/mingw/bin/../lib/gcc/mingw32/6.3.0/../../../libmsvcrt.a(djpvbs01091.o)
 .idata$6       0x004ef670        0x8 c:/mingw/bin/../lib/gcc/mingw32/6.3.0/../../../libmsvcrt.a(djpvbs01093.o)
 .idata$6       0x004ef678        0xa c:/mingw/bin/../lib/gcc/mingw32/6.3.0/../../../libmsvcrt.a(djpvbs01098.o)
 .idata$6       0x004ef682        0xc c:/mingw/bin/../lib/gcc/mingw32/6.3.0/../../../libmsvcrt.a(djpvbs01106.o)
 .idata$6       0x004ef68e        0x8 c:/mingw/bin/../lib/gcc/mingw32/6.3.0/../../../libmsvcrt.a(djpvbs01108.o)
 .idata$6       0x004ef696        0xa c:/mingw/bin/../lib/gcc/mingw32/6.3.0/../../../libmsvcrt.a(djpvbs01111.o)
 .idata$6       0x004ef6a0        0xa c:/mingw/bin/../lib/gcc/mingw32/6.3.0/../../../libmsvcrt.a(djpvbs01114.o)
 .idata$6       0x004ef6aa        0x8 c:/mingw/bin/../lib/gcc/mingw32/6.3.0/../../../libmsvcrt.a(djpvbs01115.o)
 .idata$6       0x004ef6b2        0x8 c:/mingw/bin/../lib/gcc/mingw32/6.3.0/../../../libmsvcrt.a(djpvbs01117.o)
 .idata$6       0x004ef6ba        0x8 c:/mingw/bin/../lib/gcc/mingw32/6.3.0/../../../libmsvcrt.a(djpvbs01122.o)
 .idata$6       0x004ef6c2        0x8 c:/mingw/bin/../lib/gcc/mingw32/6.3.0/../../../libmsvcrt.a(djpvbs01126.o)
 .idata$6       0x004ef6ca        0x8 c:/mingw/bin/../lib/gcc/mingw32/6.3.0/../../../libmsvcrt.a(djpvbs01127.o)
 .idata$6       0x004ef6d2        0x8 c:/mingw/bin/../lib/gcc/mingw32/6.3.0/../../../libmsvcrt.a(djpvbs01130.o)
 .idata$6       0x004ef6da        0x8 c:/mingw/bin/../lib/gcc/mingw32/6.3.0/../../../libmsvcrt.a(djpvbs01131.o)
 .idata$6       0x004ef6e2        0xa c:/mingw/bin/../lib/gcc/mingw32/6.3.0/../../../libmsvcrt.a(djpvbs01142.o)
 .idata$6       0x004ef6ec        0xa c:/mingw/bin/../lib/gcc/mingw32/6.3.0/../../../libmsvcrt.a(djpvbs01147.o)
 .idata$6       0x004ef6f6        0xc c:/mingw/bin/../lib/gcc/mingw32/6.3.0/../../../libmsvcrt.a(djpvbs01169.o)
 .idata$6       0x004ef702        0xe c:/mingw/bin/../lib/gcc/mingw32/6.3.0/../../../libmsvcrt.a(djpvbs01182.o)
 .idata$6       0x004ef710        0xa c:/mingw/bin/../lib/gcc/mingw32/6.3.0/../../../libmsvcrt.a(djpvbs01187.o)
 .idata$6       0x004ef71a        0xc c:/mingw/bin/../lib/gcc/mingw32/6.3.0/../../../libmsvcrt.a(djpvbs01194.o)
 .idata$6       0x004ef726        0xa c:/mingw/bin/../lib/gcc/mingw32/6.3.0/../../../libmsvcrt.a(djpvbs01197.o)
 .idata$6       0x004ef730        0xa c:/mingw/bin/../lib/gcc/mingw32/6.3.0/../../../libmsvcrt.a(djpvbs01198.o)
 .idata$6       0x004ef73a        0xa c:/mingw/bin/../lib/gcc/mingw32/6.3.0/../../../libmsvcrt.a(djpvbs01199.o)
 .idata$6       0x004ef744        0xa c:/mingw/bin/../lib/gcc/mingw32/6.3.0/../../../libmsvcrt.a(djpvbs01201.o)
 .idata$6       0x004ef74e        0xa c:/mingw/bin/../lib/gcc/mingw32/6.3.0/../../../libmsvcrt.a(djpvbs01203.o)
 .idata$6       0x004ef758        0x8 c:/mingw/bin/../lib/gcc/mingw32/6.3.0/../../../libmsvcrt.a(djpvbs01215.o)
 .idata$6       0x004ef760        0xa c:/mingw/bin/../lib/gcc/mingw32/6.3.0/../../../libmsvcrt.a(djpvbs01220.o)
 .idata$6       0x004ef76a        0xa c:/mingw/bin/../lib/gcc/mingw32/6.3.0/../../../libmsvcrt.a(djpvbs01223.o)
 .idata$6       0x004ef774        0xc c:/mingw/bin/../lib/gcc/mingw32/6.3.0/../../../libmsvcrt.a(djpvbs01227.o)
 .idata$6       0x004ef780        0xa c:/mingw/bin/../lib/gcc/mingw32/6.3.0/../../../libmsvcrt.a(djpvbs01229.o)
 .idata$6       0x004ef78a        0xa c:/mingw/bin/../lib/gcc/mingw32/6.3.0/../../../libmsvcrt.a(djpvbs01236.o)
 .idata$6       0x004ef794        0xa c:/mingw/bin/../lib/gcc/mingw32/6.3.0/../../../libmsvcrt.a(djpvbs01238.o)
 .idata$6       0x004ef79e        0xa c:/mingw/bin/../lib/gcc/mingw32/6.3.0/../../../libmsvcrt.a(djpvbs01240.o)
 .idata$6       0x004ef7a8        0xa c:/mingw/bin/../lib/gcc/mingw32/6.3.0/../../../libmsvcrt.a(djpvbs01241.o)
 .idata$6       0x004ef7b2        0xa c:/mingw/bin/../lib/gcc/mingw32/6.3.0/../../../libmsvcrt.a(djpvbs01242.o)
 .idata$6       0x004ef7bc        0xa c:/mingw/bin/../lib/gcc/mingw32/6.3.0/../../../libmsvcrt.a(djpvbs01243.o)
 .idata$6       0x004ef7c6        0xa c:/mingw/bin/../lib/gcc/mingw32/6.3.0/../../../libmsvcrt.a(djpvbs01245.o)
 .idata$6       0x004ef7d0        0xc c:/mingw/bin/../lib/gcc/mingw32/6.3.0/../../../libmsvcrt.a(djpvbs01248.o)
 .idata$6       0x004ef7dc        0xa c:/mingw/bin/../lib/gcc/mingw32/6.3.0/../../../libmsvcrt.a(djpvbs01249.o)
 .idata$6       0x004ef7e6        0xa c:/mingw/bin/../lib/gcc/mingw32/6.3.0/../../../libmsvcrt.a(djpvbs01252.o)
 .idata$6       0x004ef7f0        0xa c:/mingw/bin/../lib/gcc/mingw32/6.3.0/../../../libmsvcrt.a(djpvbs01253.o)
 .idata$6       0x004ef7fa        0xa c:/mingw/bin/../lib/gcc/mingw32/6.3.0/../../../libmsvcrt.a(djpvbs01256.o)
 .idata$6       0x004ef804        0xa c:/mingw/bin/../lib/gcc/mingw32/6.3.0/../../../libmsvcrt.a(djpvbs01257.o)
 .idata$6       0x004ef80e        0xa c:/mingw/bin/../lib/gcc/mingw32/6.3.0/../../../libmsvcrt.a(djpvbs01258.o)
 .idata$6       0x004ef818        0xa c:/mingw/bin/../lib/gcc/mingw32/6.3.0/../../../libmsvcrt.a(djpvbs01262.o)
 .idata$6       0x004ef822        0xa c:/mingw/bin/../lib/gcc/mingw32/6.3.0/../../../libmsvcrt.a(djpvbs01263.o)
 .idata$6       0x004ef82c        0xa c:/mingw/bin/../lib/gcc/mingw32/6.3.0/../../../libmsvcrt.a(djpvbs01269.o)
 .idata$6       0x004ef836        0x8 c:/mingw/bin/../lib/gcc/mingw32/6.3.0/../../../libmsvcrt.a(djpvbs01272.o)
 .idata$6       0x004ef83e        0xa c:/mingw/bin/../lib/gcc/mingw32/6.3.0/../../../libmsvcrt.a(djpvbs01277.o)
 .idata$6       0x004ef848        0xa c:/mingw/bin/../lib/gcc/mingw32/6.3.0/../../../libmsvcrt.a(djpvbs01278.o)
 .idata$6       0x004ef852        0xa c:/mingw/bin/../lib/gcc/mingw32/6.3.0/../../../libmsvcrt.a(djpvbs01281.o)
 .idata$6       0x004ef85c        0xc c:/mingw/bin/../lib/gcc/mingw32/6.3.0/../../../libmsvcrt.a(djpvbs01284.o)
 .idata$6       0x004ef868        0xa c:/mingw/bin/../lib/gcc/mingw32/6.3.0/../../../libmsvcrt.a(djpvbs01308.o)
 .idata$6       0x004ef872        0xa c:/mingw/bin/../lib/gcc/mingw32/6.3.0/../../../libmsvcrt.a(djpvbs01311.o)
 .idata$6       0x004ef87c        0xc c:/mingw/bin/../lib/gcc/mingw32/6.3.0/../../../libmsvcrt.a(djpvbs01325.o)
 .idata$6       0x004ef888       0x14 c:/mingw/bin/../lib/gcc/mingw32/6.3.0/../../../libole32.a(damcs00012.o)
 .idata$6       0x004ef89c       0x10 c:/mingw/bin/../lib/gcc/mingw32/6.3.0/../../../libole32.a(damcs00037.o)
 .idata$6       0x004ef8ac       0x12 c:/mingw/bin/../lib/gcc/mingw32/6.3.0/../../../libole32.a(damcs00072.o)
 .idata$6       0x004ef8be       0x10 c:/mingw/bin/../lib/gcc/mingw32/6.3.0/../../../libshell32.a(duocs00144.o)
 .idata$6       0x004ef8ce        0xe c:/mingw/bin/../lib/gcc/mingw32/6.3.0/../../../libuser32.a(dtpcs00006.o)
 .idata$6       0x004ef8dc        0xe c:/mingw/bin/../lib/gcc/mingw32/6.3.0/../../../libuser32.a(dtpcs00011.o)
 .idata$6       0x004ef8ea       0x12 c:/mingw/bin/../lib/gcc/mingw32/6.3.0/../../../libuser32.a(dtpcs00053.o)
 .idata$6       0x004ef8fc       0x10 c:/mingw/bin/../lib/gcc/mingw32/6.3.0/../../../libuser32.a(dtpcs00054.o)
 .idata$6       0x004ef90c       0x14 c:/mingw/bin/../lib/gcc/mingw32/6.3.0/../../../libuser32.a(dtpcs00056.o)
 .idata$6       0x004ef920       0x12 c:/mingw/bin/../lib/gcc/mingw32/6.3.0/../../../libuser32.a(dtpcs00061.o)
 .idata$6       0x004ef932        0xe c:/mingw/bin/../lib/gcc/mingw32/6.3.0/../../../libuser32.a(dtpcs00074.o)
 .idata$6       0x004ef940       0x16 c:/mingw/bin/../lib/gcc/mingw32/6.3.0/../../../libuser32.a(dtpcs00080.o)
 .idata$6       0x004ef956        0xe c:/mingw/bin/../lib/gcc/mingw32/6.3.0/../../../libuser32.a(dtpcs00088.o)
 .idata$6       0x004ef964       0x12 c:/mingw/bin/../lib/gcc/mingw32/6.3.0/../../../libuser32.a(dtpcs00089.o)
 .idata$6       0x004ef976       0x12 c:/mingw/bin/../lib/gcc/mingw32/6.3.0/../../../libuser32.a(dtpcs00090.o)
 .idata$6       0x004ef988       0x12 c:/mingw/bin/../lib/gcc/mingw32/6.3.0/../../../libuser32.a(dtpcs00091.o)
 .idata$6       0x004ef99a        0xe c:/mingw/bin/../lib/gcc/mingw32/6.3.0/../../../libuser32.a(dtpcs00127.o)
 .idata$6       0x004ef9a8       0x12 c:/mingw/bin/../lib/gcc/mingw32/6.3.0/../../../libuser32.a(dtpcs00134.o)
 .idata$6       0x004ef9ba       0x12 c:/mingw/bin/../lib/gcc/mingw32/6.3.0/../../../libuser32.a(dtpcs00135.o)
 .idata$6       0x004ef9cc        0xe c:/mingw/bin/../lib/gcc/mingw32/6.3.0/../../../libuser32.a(dtpcs00137.o)
 .idata$6       0x004ef9da       0x10 c:/mingw/bin/../lib/gcc/mingw32/6.3.0/../../../libuser32.a(dtpcs00140.o)
 .idata$6       0x004ef9ea        0xe c:/mingw/bin/../lib/gcc/mingw32/6.3.0/../../../libuser32.a(dtpcs00142.o)
 .idata$6       0x004ef9f8       0x10 c:/mingw/bin/../lib/gcc/mingw32/6.3.0/../../../libuser32.a(dtpcs00144.o)
 .idata$6       0x004efa08       0x12 c:/mingw/bin/../lib/gcc/mingw32/6.3.0/../../../libuser32.a(dtpcs00147.o)
 .idata$6       0x004efa1a       0x14 c:/mingw/bin/../lib/gcc/mingw32/6.3.0/../../../libuser32.a(dtpcs00149.o)
 .idata$6       0x004efa2e       0x14 c:/mingw/bin/../lib/gcc/mingw32/6.3.0/../../../libuser32.a(dtpcs00150.o)
 .idata$6       0x004efa42        0xc c:/mingw/bin/../lib/gcc/mingw32/6.3.0/../../../libuser32.a(dtpcs00163.o)
 .idata$6       0x004efa4e        0xe c:/mingw/bin/../lib/gcc/mingw32/6.3.0/../../../libuser32.a(dtpcs00168.o)
 .idata$6       0x004efa5c       0x12 c:/mingw/bin/../lib/gcc/mingw32/6.3.0/../../../libuser32.a(dtpcs00177.o)
 .idata$6       0x004efa6e       0x12 c:/mingw/bin/../lib/gcc/mingw32/6.3.0/../../../libuser32.a(dtpcs00178.o)
 .idata$6       0x004efa80       0x10 c:/mingw/bin/../lib/gcc/mingw32/6.3.0/../../../libuser32.a(dtpcs00180.o)
 .idata$6       0x004efa90        0xc c:/mingw/bin/../lib/gcc/mingw32/6.3.0/../../../libuser32.a(dtpcs00182.o)
 .idata$6       0x004efa9c        0xc c:/mingw/bin/../lib/gcc/mingw32/6.3.0/../../../libuser32.a(dtpcs00184.o)
 .idata$6       0x004efaa8        0xe c:/mingw/bin/../lib/gcc/mingw32/6.3.0/../../../libuser32.a(dtpcs00210.o)
 .idata$6       0x004efab6        0xe c:/mingw/bin/../lib/gcc/mingw32/6.3.0/../../../libuser32.a(dtpcs00214.o)
 .idata$6       0x004efac4        0xe c:/mingw/bin/../lib/gcc/mingw32/6.3.0/../../../libuser32.a(dtpcs00224.o)
 .idata$6       0x004efad2       0x14 c:/mingw/bin/../lib/gcc/mingw32/6.3.0/../../../libuser32.a(dtpcs00225.o)
 .idata$6       0x004efae6       0x10 c:/mingw/bin/../lib/gcc/mingw32/6.3.0/../../../libuser32.a(dtpcs00236.o)
 .idata$6       0x004efaf6       0x14 c:/mingw/bin/../lib/gcc/mingw32/6.3.0/../../../libuser32.a(dtpcs00238.o)
 .idata$6       0x004efb0a       0x14 c:/mingw/bin/../lib/gcc/mingw32/6.3.0/../../../libuser32.a(dtpcs00241.o)
 .idata$6       0x004efb1e       0x10 c:/mingw/bin/../lib/gcc/mingw32/6.3.0/../../../libuser32.a(dtpcs00247.o)
 .idata$6       0x004efb2e        0x8 c:/mingw/bin/../lib/gcc/mingw32/6.3.0/../../../libuser32.a(dtpcs00248.o)
 .idata$6       0x004efb36       0x14 c:/mingw/bin/../lib/gcc/mingw32/6.3.0/../../../libuser32.a(dtpcs00250.o)
 .idata$6       0x004efb4a        0xe c:/mingw/bin/../lib/gcc/mingw32/6.3.0/../../../libuser32.a(dtpcs00253.o)
 .idata$6       0x004efb58       0x12 c:/mingw/bin/../lib/gcc/mingw32/6.3.0/../../../libuser32.a(dtpcs00255.o)
 .idata$6       0x004efb6a       0x16 c:/mingw/bin/../lib/gcc/mingw32/6.3.0/../../../libuser32.a(dtpcs00257.o)
 .idata$6       0x004efb80       0x16 c:/mingw/bin/../lib/gcc/mingw32/6.3.0/../../../libuser32.a(dtpcs00259.o)
 .idata$6       0x004efb96       0x14 c:/mingw/bin/../lib/gcc/mingw32/6.3.0/../../../libuser32.a(dtpcs00269.o)
 .idata$6       0x004efbaa       0x14 c:/mingw/bin/../lib/gcc/mingw32/6.3.0/../../../libuser32.a(dtpcs00273.o)
 .idata$6       0x004efbbe        0xe c:/mingw/bin/../lib/gcc/mingw32/6.3.0/../../../libuser32.a(dtpcs00293.o)
 .idata$6       0x004efbcc       0x12 c:/mingw/bin/../lib/gcc/mingw32/6.3.0/../../../libuser32.a(dtpcs00296.o)
 .idata$6       0x004efbde        0xc c:/mingw/bin/../lib/gcc/mingw32/6.3.0/../../../libuser32.a(dtpcs00304.o)
 .idata$6       0x004efbea       0x12 c:/mingw/bin/../lib/gcc/mingw32/6.3.0/../../../libuser32.a(dtpcs00310.o)
 .idata$6       0x004efbfc       0x10 c:/mingw/bin/../lib/gcc/mingw32/6.3.0/../../../libuser32.a(dtpcs00318.o)
 .idata$6       0x004efc0c        0xe c:/mingw/bin/../lib/gcc/mingw32/6.3.0/../../../libuser32.a(dtpcs00323.o)
 .idata$6       0x004efc1a       0x10 c:/mingw/bin/../lib/gcc/mingw32/6.3.0/../../../libuser32.a(dtpcs00325.o)
 .idata$6       0x004efc2a       0x12 c:/mingw/bin/../lib/gcc/mingw32/6.3.0/../../../libuser32.a(dtpcs00342.o)
 .idata$6       0x004efc3c       0x16 c:/mingw/bin/../lib/gcc/mingw32/6.3.0/../../../libuser32.a(dtpcs00347.o)
 .idata$6       0x004efc52       0x10 c:/mingw/bin/../lib/gcc/mingw32/6.3.0/../../../libuser32.a(dtpcs00348.o)
 .idata$6       0x004efc62       0x12 c:/mingw/bin/../lib/gcc/mingw32/6.3.0/../../../libuser32.a(dtpcs00350.o)
 .idata$6       0x004efc74       0x18 c:/mingw/bin/../lib/gcc/mingw32/6.3.0/../../../libuser32.a(dtpcs00351.o)
 .idata$6       0x004efc8c        0xc c:/mingw/bin/../lib/gcc/mingw32/6.3.0/../../../libuser32.a(dtpcs00358.o)
 .idata$6       0x004efc98        0xe c:/mingw/bin/../lib/gcc/mingw32/6.3.0/../../../libuser32.a(dtpcs00364.o)
 .idata$6       0x004efca6       0x12 c:/mingw/bin/../lib/gcc/mingw32/6.3.0/../../../libuser32.a(dtpcs00370.o)
 .idata$6       0x004efcb8       0x14 c:/mingw/bin/../lib/gcc/mingw32/6.3.0/../../../libuser32.a(dtpcs00384.o)
 .idata$6       0x004efccc       0x16 c:/mingw/bin/../lib/gcc/mingw32/6.3.0/../../../libuser32.a(dtpcs00386.o)
 .idata$6       0x004efce2        0xc c:/mingw/bin/../lib/gcc/mingw32/6.3.0/../../../libuser32.a(dtpcs00389.o)
 .idata$6       0x004efcee        0xc c:/mingw/bin/../lib/gcc/mingw32/6.3.0/../../../libuser32.a(dtpcs00394.o)
 .idata$6       0x004efcfa        0xc c:/mingw/bin/../lib/gcc/mingw32/6.3.0/../../../libuser32.a(dtpcs00398.o)
 .idata$6       0x004efd06        0xc c:/mingw/bin/../lib/gcc/mingw32/6.3.0/../../../libuser32.a(dtpcs00400.o)
 .idata$6       0x004efd12        0xe c:/mingw/bin/../lib/gcc/mingw32/6.3.0/../../../libuser32.a(dtpcs00405.o)
 .idata$6       0x004efd20        0xc c:/mingw/bin/../lib/gcc/mingw32/6.3.0/../../../libuser32.a(dtpcs00409.o)
 .idata$6       0x004efd2c        0xe c:/mingw/bin/../lib/gcc/mingw32/6.3.0/../../../libuser32.a(dtpcs00411.o)
 .idata$6       0x004efd3a       0x10 c:/mingw/bin/../lib/gcc/mingw32/6.3.0/../../../libuser32.a(dtpcs00426.o)
 .idata$6       0x004efd4a        0xe c:/mingw/bin/../lib/gcc/mingw32/6.3.0/../../../libuser32.a(dtpcs00433.o)
 .idata$6       0x004efd58        0xe c:/mingw/bin/../lib/gcc/mingw32/6.3.0/../../../libuser32.a(dtpcs00434.o)
 .idata$6       0x004efd66       0x16 c:/mingw/bin/../lib/gcc/mingw32/6.3.0/../../../libuser32.a(dtpcs00437.o)
 .idata$6       0x004efd7c        0xe c:/mingw/bin/../lib/gcc/mingw32/6.3.0/../../../libuser32.a(dtpcs00445.o)
 .idata$6       0x004efd8a       0x1c c:/mingw/bin/../lib/gcc/mingw32/6.3.0/../../../libuser32.a(dtpcs00446.o)
 .idata$6       0x004efda6       0x10 c:/mingw/bin/../lib/gcc/mingw32/6.3.0/../../../libuser32.a(dtpcs00455.o)
 .idata$6       0x004efdb6       0x10 c:/mingw/bin/../lib/gcc/mingw32/6.3.0/../../../libuser32.a(dtpcs00464.o)
 .idata$6       0x004efdc6       0x10 c:/mingw/bin/../lib/gcc/mingw32/6.3.0/../../../libuser32.a(dtpcs00465.o)
 .idata$6       0x004efdd6       0x10 c:/mingw/bin/../lib/gcc/mingw32/6.3.0/../../../libuser32.a(dtpcs00466.o)
 .idata$6       0x004efde6       0x12 c:/mingw/bin/../lib/gcc/mingw32/6.3.0/../../../libuser32.a(dtpcs00468.o)
 .idata$6       0x004efdf8       0x12 c:/mingw/bin/../lib/gcc/mingw32/6.3.0/../../../libuser32.a(dtpcs00479.o)
 .idata$6       0x004efe0a       0x12 c:/mingw/bin/../lib/gcc/mingw32/6.3.0/../../../libuser32.a(dtpcs00482.o)
 .idata$6       0x004efe1c       0x1c c:/mingw/bin/../lib/gcc/mingw32/6.3.0/../../../libuser32.a(dtpcs00483.o)
 .idata$6       0x004efe38       0x1a c:/mingw/bin/../lib/gcc/mingw32/6.3.0/../../../libuser32.a(dtpcs00491.o)
 .idata$6       0x004efe52       0x12 c:/mingw/bin/../lib/gcc/mingw32/6.3.0/../../../libuser32.a(dtpcs00493.o)
 .idata$6       0x004efe64        0xc c:/mingw/bin/../lib/gcc/mingw32/6.3.0/../../../libuser32.a(dtpcs00494.o)
 .idata$6       0x004efe70       0x12 c:/mingw/bin/../lib/gcc/mingw32/6.3.0/../../../libuser32.a(dtpcs00500.o)
 .idata$6       0x004efe82       0x16 c:/mingw/bin/../lib/gcc/mingw32/6.3.0/../../../libuser32.a(dtpcs00505.o)
 .idata$6       0x004efe98       0x10 c:/mingw/bin/../lib/gcc/mingw32/6.3.0/../../../libuser32.a(dtpcs00508.o)
 .idata$6       0x004efea8       0x12 c:/mingw/bin/../lib/gcc/mingw32/6.3.0/../../../libuser32.a(dtpcs00516.o)
 .idata$6       0x004efeba        0xe c:/mingw/bin/../lib/gcc/mingw32/6.3.0/../../../libuser32.a(dtpcs00517.o)
 .idata$6       0x004efec8        0xe c:/mingw/bin/../lib/gcc/mingw32/6.3.0/../../../libuser32.a(dtpcs00519.o)
 .idata$6       0x004efed6       0x10 c:/mingw/bin/../lib/gcc/mingw32/6.3.0/../../../libuser32.a(dtpcs00520.o)
 .idata$6       0x004efee6       0x14 c:/mingw/bin/../lib/gcc/mingw32/6.3.0/../../../libuser32.a(dtpcs00523.o)
 .idata$6       0x004efefa        0xc c:/mingw/bin/../lib/gcc/mingw32/6.3.0/../../../libuser32.a(dtpcs00525.o)
 .idata$6       0x004eff06       0x12 c:/mingw/bin/../lib/gcc/mingw32/6.3.0/../../../libuser32.a(dtpcs00530.o)
 .idata$6       0x004eff18        0xc c:/mingw/bin/../lib/gcc/mingw32/6.3.0/../../../libuser32.a(dtpcs00533.o)
 .idata$6       0x004eff24       0x16 c:/mingw/bin/../lib/gcc/mingw32/6.3.0/../../../libuser32.a(dtpcs00534.o)
 .idata$6       0x004eff3a       0x14 c:/mingw/bin/../lib/gcc/mingw32/6.3.0/../../../libuser32.a(dtpcs00535.o)
 .idata$6       0x004eff4e       0x10 c:/mingw/bin/../lib/gcc/mingw32/6.3.0/../../../libuser32.a(dtpcs00554.o)
 .idata$6       0x004eff5e        0xc c:/mingw/bin/../lib/gcc/mingw32/6.3.0/../../../libuser32.a(dtpcs00563.o)
 .idata$6       0x004eff6a       0x12 c:/mingw/bin/../lib/gcc/mingw32/6.3.0/../../../libuser32.a(dtpcs00569.o)
 .idata$6       0x004eff7c       0x16 c:/mingw/bin/../lib/gcc/mingw32/6.3.0/../../../libuser32.a(dtpcs00571.o)
 .idata$6       0x004eff92       0x10 c:/mingw/bin/../lib/gcc/mingw32/6.3.0/../../../libuser32.a(dtpcs00572.o)
 .idata$6       0x004effa2       0x12 c:/mingw/bin/../lib/gcc/mingw32/6.3.0/../../../libuser32.a(dtpcs00574.o)
 .idata$6       0x004effb4        0xc c:/mingw/bin/../lib/gcc/mingw32/6.3.0/../../../libuser32.a(dtpcs00581.o)
 .idata$6       0x004effc0        0xe c:/mingw/bin/../lib/gcc/mingw32/6.3.0/../../../libuser32.a(dtpcs00582.o)
 .idata$6       0x004effce        0xe c:/mingw/bin/../lib/gcc/mingw32/6.3.0/../../../libuser32.a(dtpcs00585.o)
 .idata$6       0x004effdc       0x18 c:/mingw/bin/../lib/gcc/mingw32/6.3.0/../../../libuser32.a(dtpcs00591.o)
 .idata$6       0x004efff4        0xc c:/mingw/bin/../lib/gcc/mingw32/6.3.0/../../../libuser32.a(dtpcs00598.o)
 .idata$6       0x004f0000       0x12 c:/mingw/bin/../lib/gcc/mingw32/6.3.0/../../../libuser32.a(dtpcs00602.o)
 .idata$6       0x004f0012       0x14 c:/mingw/bin/../lib/gcc/mingw32/6.3.0/../../../libuser32.a(dtpcs00608.o)
 .idata$6       0x004f0026       0x10 c:/mingw/bin/../lib/gcc/mingw32/6.3.0/../../../libuser32.a(dtpcs00622.o)
 SORT(*)(.idata$7)
 *fill*         0x004f0036        0x2 
 .idata$7       0x004f0038        0x4 c:/mingw/bin/../lib/gcc/mingw32/6.3.0/../../../libadvapi32.a(dchcs00245.o)
 .idata$7       0x004f003c        0x4 c:/mingw/bin/../lib/gcc/mingw32/6.3.0/../../../libadvapi32.a(dchcs00386.o)
 .idata$7       0x004f0040        0x4 c:/mingw/bin/../lib/gcc/mingw32/6.3.0/../../../libadvapi32.a(dchcs00389.o)
 .idata$7       0x004f0044        0x4 c:/mingw/bin/../lib/gcc/mingw32/6.3.0/../../../libadvapi32.a(dchcs00390.o)
 .idata$7       0x004f0048        0x4 c:/mingw/bin/../lib/gcc/mingw32/6.3.0/../../../libadvapi32.a(dchcs00393.o)
 .idata$7       0x004f004c        0x4 c:/mingw/bin/../lib/gcc/mingw32/6.3.0/../../../libadvapi32.a(dchcs00397.o)
 .idata$7       0x004f0050        0x4 c:/mingw/bin/../lib/gcc/mingw32/6.3.0/../../../libadvapi32.a(dchcs00400.o)
 .idata$7       0x004f0054        0x4 c:/mingw/bin/../lib/gcc/mingw32/6.3.0/../../../libadvapi32.a(dchcs00412.o)
 .idata$7       0x004f0058        0x4 c:/mingw/bin/../lib/gcc/mingw32/6.3.0/../../../libadvapi32.a(dchcs00423.o)
 .idata$7       0x004f005c        0x4 c:/mingw/bin/../lib/gcc/mingw32/6.3.0/../../../libadvapi32.a(dchcs00434.o)
 .idata$7       0x004f0060       0x10 c:/mingw/bin/../lib/gcc/mingw32/6.3.0/../../../libadvapi32.a(dchct.o)
                0x004f0060                _libadvapi32_a_iname
 .idata$7       0x004f0070        0x4 c:/mingw/bin/../lib/gcc/mingw32/6.3.0/../../../libcomdlg32.a(duhcs00000.o)
 .idata$7       0x004f0074        0x4 c:/mingw/bin/../lib/gcc/mingw32/6.3.0/../../../libcomdlg32.a(duhcs00002.o)
 .idata$7       0x004f0078        0x4 c:/mingw/bin/../lib/gcc/mingw32/6.3.0/../../../libcomdlg32.a(duhcs00009.o)
 .idata$7       0x004f007c        0x4 c:/mingw/bin/../lib/gcc/mingw32/6.3.0/../../../libcomdlg32.a(duhcs00011.o)
 .idata$7       0x004f0080       0x10 c:/mingw/bin/../lib/gcc/mingw32/6.3.0/../../../libcomdlg32.a(duhct.o)
                0x004f0080                _libcomdlg32_a_iname
 .idata$7       0x004f0090        0x4 c:/mingw/bin/../lib/gcc/mingw32/6.3.0/../../../libgdi32.a(dpics00028.o)
 .idata$7       0x004f0094        0x4 c:/mingw/bin/../lib/gcc/mingw32/6.3.0/../../../libgdi32.a(dpics00033.o)
 .idata$7       0x004f0098        0x4 c:/mingw/bin/../lib/gcc/mingw32/6.3.0/../../../libgdi32.a(dpics00034.o)
 .idata$7       0x004f009c        0x4 c:/mingw/bin/../lib/gcc/mingw32/6.3.0/../../../libgdi32.a(dpics00046.o)
 .idata$7       0x004f00a0        0x4 c:/mingw/bin/../lib/gcc/mingw32/6.3.0/../../../libgdi32.a(dpics00047.o)
 .idata$7       0x004f00a4        0x4 c:/mingw/bin/../lib/gcc/mingw32/6.3.0/../../../libgdi32.a(dpics00056.o)
 .idata$7       0x004f00a8        0x4 c:/mingw/bin/../lib/gcc/mingw32/6.3.0/../../../libgdi32.a(dpics00058.o)
 .idata$7       0x004f00ac        0x4 c:/mingw/bin/../lib/gcc/mingw32/6.3.0/../../../libgdi32.a(dpics00067.o)
 .idata$7       0x004f00b0        0x4 c:/mingw/bin/../lib/gcc/mingw32/6.3.0/../../../libgdi32.a(dpics00070.o)
 .idata$7       0x004f00b4        0x4 c:/mingw/bin/../lib/gcc/mingw32/6.3.0/../../../libgdi32.a(dpics00073.o)
 .idata$7       0x004f00b8        0x4 c:/mingw/bin/../lib/gcc/mingw32/6.3.0/../../../libgdi32.a(dpics00096.o)
 .idata$7       0x004f00bc        0x4 c:/mingw/bin/../lib/gcc/mingw32/6.3.0/../../../libgdi32.a(dpics00102.o)
 .idata$7       0x004f00c0        0x4 c:/mingw/bin/../lib/gcc/mingw32/6.3.0/../../../libgdi32.a(dpics00103.o)
 .idata$7       0x004f00c4        0x4 c:/mingw/bin/../lib/gcc/mingw32/6.3.0/../../../libgdi32.a(dpics00122.o)
 .idata$7       0x004f00c8        0x4 c:/mingw/bin/../lib/gcc/mingw32/6.3.0/../../../libgdi32.a(dpics00126.o)
 .idata$7       0x004f00cc        0x4 c:/mingw/bin/../lib/gcc/mingw32/6.3.0/../../../libgdi32.a(dpics00129.o)
 .idata$7       0x004f00d0        0x4 c:/mingw/bin/../lib/gcc/mingw32/6.3.0/../../../libgdi32.a(dpics00130.o)
 .idata$7       0x004f00d4        0x4 c:/mingw/bin/../lib/gcc/mingw32/6.3.0/../../../libgdi32.a(dpics00131.o)
 .idata$7       0x004f00d8        0x4 c:/mingw/bin/../lib/gcc/mingw32/6.3.0/../../../libgdi32.a(dpics00134.o)
 .idata$7       0x004f00dc        0x4 c:/mingw/bin/../lib/gcc/mingw32/6.3.0/../../../libgdi32.a(dpics00136.o)
 .idata$7       0x004f00e0        0x4 c:/mingw/bin/../lib/gcc/mingw32/6.3.0/../../../libgdi32.a(dpics00148.o)
 .idata$7       0x004f00e4        0x4 c:/mingw/bin/../lib/gcc/mingw32/6.3.0/../../../libgdi32.a(dpics00185.o)
 .idata$7       0x004f00e8        0x4 c:/mingw/bin/../lib/gcc/mingw32/6.3.0/../../../libgdi32.a(dpics00192.o)
 .idata$7       0x004f00ec        0x4 c:/mingw/bin/../lib/gcc/mingw32/6.3.0/../../../libgdi32.a(dpics00201.o)
 .idata$7       0x004f00f0        0x4 c:/mingw/bin/../lib/gcc/mingw32/6.3.0/../../../libgdi32.a(dpics00210.o)
 .idata$7       0x004f00f4        0x4 c:/mingw/bin/../lib/gcc/mingw32/6.3.0/../../../libgdi32.a(dpics00213.o)
 .idata$7       0x004f00f8        0x4 c:/mingw/bin/../lib/gcc/mingw32/6.3.0/../../../libgdi32.a(dpics00219.o)
 .idata$7       0x004f00fc        0x4 c:/mingw/bin/../lib/gcc/mingw32/6.3.0/../../../libgdi32.a(dpics00227.o)
 .idata$7       0x004f0100        0x4 c:/mingw/bin/../lib/gcc/mingw32/6.3.0/../../../libgdi32.a(dpics00231.o)
 .idata$7       0x004f0104        0x4 c:/mingw/bin/../lib/gcc/mingw32/6.3.0/../../../libgdi32.a(dpics00234.o)
 .idata$7       0x004f0108        0x4 c:/mingw/bin/../lib/gcc/mingw32/6.3.0/../../../libgdi32.a(dpics00256.o)
 .idata$7       0x004f010c        0x4 c:/mingw/bin/../lib/gcc/mingw32/6.3.0/../../../libgdi32.a(dpics00260.o)
 .idata$7       0x004f0110        0x4 c:/mingw/bin/../lib/gcc/mingw32/6.3.0/../../../libgdi32.a(dpics00263.o)
 .idata$7       0x004f0114        0x4 c:/mingw/bin/../lib/gcc/mingw32/6.3.0/../../../libgdi32.a(dpics00281.o)
 .idata$7       0x004f0118        0x4 c:/mingw/bin/../lib/gcc/mingw32/6.3.0/../../../libgdi32.a(dpics00282.o)
 .idata$7       0x004f011c        0x4 c:/mingw/bin/../lib/gcc/mingw32/6.3.0/../../../libgdi32.a(dpics00287.o)
 .idata$7       0x004f0120        0x4 c:/mingw/bin/../lib/gcc/mingw32/6.3.0/../../../libgdi32.a(dpics00288.o)
 .idata$7       0x004f0124        0x4 c:/mingw/bin/../lib/gcc/mingw32/6.3.0/../../../libgdi32.a(dpics00306.o)
 .idata$7       0x004f0128        0x4 c:/mingw/bin/../lib/gcc/mingw32/6.3.0/../../../libgdi32.a(dpics00311.o)
 .idata$7       0x004f012c        0x4 c:/mingw/bin/../lib/gcc/mingw32/6.3.0/../../../libgdi32.a(dpics00312.o)
 .idata$7       0x004f0130        0x4 c:/mingw/bin/../lib/gcc/mingw32/6.3.0/../../../libgdi32.a(dpics00321.o)
 .idata$7       0x004f0134        0x4 c:/mingw/bin/../lib/gcc/mingw32/6.3.0/../../../libgdi32.a(dpics00323.o)
 .idata$7       0x004f0138        0x4 c:/mingw/bin/../lib/gcc/mingw32/6.3.0/../../../libgdi32.a(dpics00339.o)
 .idata$7       0x004f013c        0x4 c:/mingw/bin/../lib/gcc/mingw32/6.3.0/../../../libgdi32.a(dpics00341.o)
 .idata$7       0x004f0140        0x4 c:/mingw/bin/../lib/gcc/mingw32/6.3.0/../../../libgdi32.a(dpics00342.o)
 .idata$7       0x004f0144        0x4 c:/mingw/bin/../lib/gcc/mingw32/6.3.0/../../../libgdi32.a(dpics00343.o)
 .idata$7       0x004f0148        0xc c:/mingw/bin/../lib/gcc/mingw32/6.3.0/../../../libgdi32.a(dpict.o)
                0x004f0148                _libgdi32_a_iname
 .idata$7       0x004f0154        0x4 c:/mingw/bin/../lib/gcc/mingw32/6.3.0/../../../libimm32.a(dojcs00023.o)
 .idata$7       0x004f0158        0x4 c:/mingw/bin/../lib/gcc/mingw32/6.3.0/../../../libimm32.a(dojcs00025.o)
 .idata$7       0x004f015c        0x4 c:/mingw/bin/../lib/gcc/mingw32/6.3.0/../../../libimm32.a(dojcs00059.o)
 .idata$7       0x004f0160        0x4 c:/mingw/bin/../lib/gcc/mingw32/6.3.0/../../../libimm32.a(dojcs00061.o)
 .idata$7       0x004f0164        0x4 c:/mingw/bin/../lib/gcc/mingw32/6.3.0/../../../libimm32.a(dojcs00065.o)
 .idata$7       0x004f0168        0xc c:/mingw/bin/../lib/gcc/mingw32/6.3.0/../../../libimm32.a(dojct.o)
                0x004f0168                _libimm32_a_iname
 .idata$7       0x004f0174        0x4 c:/mingw/bin/../lib/gcc/mingw32/6.3.0/../../../libkernel32.a(dujcs00054.o)
 .idata$7       0x004f0178        0x4 c:/mingw/bin/../lib/gcc/mingw32/6.3.0/../../../libkernel32.a(dujcs00079.o)
 .idata$7       0x004f017c        0x4 c:/mingw/bin/../lib/gcc/mingw32/6.3.0/../../../libkernel32.a(dujcs00082.o)
 .idata$7       0x004f0180        0x4 c:/mingw/bin/../lib/gcc/mingw32/6.3.0/../../../libkernel32.a(dujcs00129.o)
 .idata$7       0x004f0184        0x4 c:/mingw/bin/../lib/gcc/mingw32/6.3.0/../../../libkernel32.a(dujcs00135.o)
 .idata$7       0x004f0188        0x4 c:/mingw/bin/../lib/gcc/mingw32/6.3.0/../../../libkernel32.a(dujcs00136.o)
 .idata$7       0x004f018c        0x4 c:/mingw/bin/../lib/gcc/mingw32/6.3.0/../../../libkernel32.a(dujcs00160.o)
 .idata$7       0x004f0190        0x4 c:/mingw/bin/../lib/gcc/mingw32/6.3.0/../../../libkernel32.a(dujcs00163.o)
 .idata$7       0x004f0194        0x4 c:/mingw/bin/../lib/gcc/mingw32/6.3.0/../../../libkernel32.a(dujcs00179.o)
 .idata$7       0x004f0198        0x4 c:/mingw/bin/../lib/gcc/mingw32/6.3.0/../../../libkernel32.a(dujcs00207.o)
 .idata$7       0x004f019c        0x4 c:/mingw/bin/../lib/gcc/mingw32/6.3.0/../../../libkernel32.a(dujcs00209.o)
 .idata$7       0x004f01a0        0x4 c:/mingw/bin/../lib/gcc/mingw32/6.3.0/../../../libkernel32.a(dujcs00236.o)
 .idata$7       0x004f01a4        0x4 c:/mingw/bin/../lib/gcc/mingw32/6.3.0/../../../libkernel32.a(dujcs00279.o)
 .idata$7       0x004f01a8        0x4 c:/mingw/bin/../lib/gcc/mingw32/6.3.0/../../../libkernel32.a(dujcs00300.o)
 .idata$7       0x004f01ac        0x4 c:/mingw/bin/../lib/gcc/mingw32/6.3.0/../../../libkernel32.a(dujcs00304.o)
 .idata$7       0x004f01b0        0x4 c:/mingw/bin/../lib/gcc/mingw32/6.3.0/../../../libkernel32.a(dujcs00321.o)
 .idata$7       0x004f01b4        0x4 c:/mingw/bin/../lib/gcc/mingw32/6.3.0/../../../libkernel32.a(dujcs00347.o)
 .idata$7       0x004f01b8        0x4 c:/mingw/bin/../lib/gcc/mingw32/6.3.0/../../../libkernel32.a(dujcs00352.o)
 .idata$7       0x004f01bc        0x4 c:/mingw/bin/../lib/gcc/mingw32/6.3.0/../../../libkernel32.a(dujcs00358.o)
 .idata$7       0x004f01c0        0x4 c:/mingw/bin/../lib/gcc/mingw32/6.3.0/../../../libkernel32.a(dujcs00368.o)
 .idata$7       0x004f01c4        0x4 c:/mingw/bin/../lib/gcc/mingw32/6.3.0/../../../libkernel32.a(dujcs00386.o)
 .idata$7       0x004f01c8        0x4 c:/mingw/bin/../lib/gcc/mingw32/6.3.0/../../../libkernel32.a(dujcs00388.o)
 .idata$7       0x004f01cc        0x4 c:/mingw/bin/../lib/gcc/mingw32/6.3.0/../../../libkernel32.a(dujcs00426.o)
 .idata$7       0x004f01d0        0x4 c:/mingw/bin/../lib/gcc/mingw32/6.3.0/../../../libkernel32.a(dujcs00444.o)
 .idata$7       0x004f01d4        0x4 c:/mingw/bin/../lib/gcc/mingw32/6.3.0/../../../libkernel32.a(dujcs00446.o)
 .idata$7       0x004f01d8        0x4 c:/mingw/bin/../lib/gcc/mingw32/6.3.0/../../../libkernel32.a(dujcs00447.o)
 .idata$7       0x004f01dc        0x4 c:/mingw/bin/../lib/gcc/mingw32/6.3.0/../../../libkernel32.a(dujcs00450.o)
 .idata$7       0x004f01e0        0x4 c:/mingw/bin/../lib/gcc/mingw32/6.3.0/../../../libkernel32.a(dujcs00451.o)
 .idata$7       0x004f01e4        0x4 c:/mingw/bin/../lib/gcc/mingw32/6.3.0/../../../libkernel32.a(dujcs00473.o)
 .idata$7       0x004f01e8        0x4 c:/mingw/bin/../lib/gcc/mingw32/6.3.0/../../../libkernel32.a(dujcs00482.o)
 .idata$7       0x004f01ec        0x4 c:/mingw/bin/../lib/gcc/mingw32/6.3.0/../../../libkernel32.a(dujcs00510.o)
 .idata$7       0x004f01f0        0x4 c:/mingw/bin/../lib/gcc/mingw32/6.3.0/../../../libkernel32.a(dujcs00511.o)
 .idata$7       0x004f01f4        0x4 c:/mingw/bin/../lib/gcc/mingw32/6.3.0/../../../libkernel32.a(dujcs00512.o)
 .idata$7       0x004f01f8        0x4 c:/mingw/bin/../lib/gcc/mingw32/6.3.0/../../../libkernel32.a(dujcs00527.o)
 .idata$7       0x004f01fc        0x4 c:/mingw/bin/../lib/gcc/mingw32/6.3.0/../../../libkernel32.a(dujcs00529.o)
 .idata$7       0x004f0200        0x4 c:/mingw/bin/../lib/gcc/mingw32/6.3.0/../../../libkernel32.a(dujcs00563.o)
 .idata$7       0x004f0204        0x4 c:/mingw/bin/../lib/gcc/mingw32/6.3.0/../../../libkernel32.a(dujcs00564.o)
 .idata$7       0x004f0208        0x4 c:/mingw/bin/../lib/gcc/mingw32/6.3.0/../../../libkernel32.a(dujcs00577.o)
 .idata$7       0x004f020c        0x4 c:/mingw/bin/../lib/gcc/mingw32/6.3.0/../../../libkernel32.a(dujcs00590.o)
 .idata$7       0x004f0210        0x4 c:/mingw/bin/../lib/gcc/mingw32/6.3.0/../../../libkernel32.a(dujcs00606.o)
 .idata$7       0x004f0214        0x4 c:/mingw/bin/../lib/gcc/mingw32/6.3.0/../../../libkernel32.a(dujcs00619.o)
 .idata$7       0x004f0218        0x4 c:/mingw/bin/../lib/gcc/mingw32/6.3.0/../../../libkernel32.a(dujcs00629.o)
 .idata$7       0x004f021c        0x4 c:/mingw/bin/../lib/gcc/mingw32/6.3.0/../../../libkernel32.a(dujcs00653.o)
 .idata$7       0x004f0220        0x4 c:/mingw/bin/../lib/gcc/mingw32/6.3.0/../../../libkernel32.a(dujcs00656.o)
 .idata$7       0x004f0224        0x4 c:/mingw/bin/../lib/gcc/mingw32/6.3.0/../../../libkernel32.a(dujcs00682.o)
 .idata$7       0x004f0228        0x4 c:/mingw/bin/../lib/gcc/mingw32/6.3.0/../../../libkernel32.a(dujcs00687.o)
 .idata$7       0x004f022c        0x4 c:/mingw/bin/../lib/gcc/mingw32/6.3.0/../../../libkernel32.a(dujcs00694.o)
 .idata$7       0x004f0230        0x4 c:/mingw/bin/../lib/gcc/mingw32/6.3.0/../../../libkernel32.a(dujcs00698.o)
 .idata$7       0x004f0234        0x4 c:/mingw/bin/../lib/gcc/mingw32/6.3.0/../../../libkernel32.a(dujcs00699.o)
 .idata$7       0x004f0238        0x4 c:/mingw/bin/../lib/gcc/mingw32/6.3.0/../../../libkernel32.a(dujcs00705.o)
 .idata$7       0x004f023c        0x4 c:/mingw/bin/../lib/gcc/mingw32/6.3.0/../../../libkernel32.a(dujcs00734.o)
 .idata$7       0x004f0240        0x4 c:/mingw/bin/../lib/gcc/mingw32/6.3.0/../../../libkernel32.a(dujcs00744.o)
 .idata$7       0x004f0244        0x4 c:/mingw/bin/../lib/gcc/mingw32/6.3.0/../../../libkernel32.a(dujcs00763.o)
 .idata$7       0x004f0248        0x4 c:/mingw/bin/../lib/gcc/mingw32/6.3.0/../../../libkernel32.a(dujcs00814.o)
 .idata$7       0x004f024c        0x4 c:/mingw/bin/../lib/gcc/mingw32/6.3.0/../../../libkernel32.a(dujcs00817.o)
 .idata$7       0x004f0250        0x4 c:/mingw/bin/../lib/gcc/mingw32/6.3.0/../../../libkernel32.a(dujcs00818.o)
 .idata$7       0x004f0254        0x4 c:/mingw/bin/../lib/gcc/mingw32/6.3.0/../../../libkernel32.a(dujcs00827.o)
 .idata$7       0x004f0258        0x4 c:/mingw/bin/../lib/gcc/mingw32/6.3.0/../../../libkernel32.a(dujcs00844.o)
 .idata$7       0x004f025c        0x4 c:/mingw/bin/../lib/gcc/mingw32/6.3.0/../../../libkernel32.a(dujcs00859.o)
 .idata$7       0x004f0260        0x4 c:/mingw/bin/../lib/gcc/mingw32/6.3.0/../../../libkernel32.a(dujcs00860.o)
 .idata$7       0x004f0264        0x4 c:/mingw/bin/../lib/gcc/mingw32/6.3.0/../../../libkernel32.a(dujcs00922.o)
 .idata$7       0x004f0268        0x4 c:/mingw/bin/../lib/gcc/mingw32/6.3.0/../../../libkernel32.a(dujcs00947.o)
 .idata$7       0x004f026c        0x4 c:/mingw/bin/../lib/gcc/mingw32/6.3.0/../../../libkernel32.a(dujcs01010.o)
 .idata$7       0x004f0270        0x4 c:/mingw/bin/../lib/gcc/mingw32/6.3.0/../../../libkernel32.a(dujcs01013.o)
 .idata$7       0x004f0274        0x4 c:/mingw/bin/../lib/gcc/mingw32/6.3.0/../../../libkernel32.a(dujcs01014.o)
 .idata$7       0x004f0278        0x4 c:/mingw/bin/../lib/gcc/mingw32/6.3.0/../../../libkernel32.a(dujcs01052.o)
 .idata$7       0x004f027c        0x4 c:/mingw/bin/../lib/gcc/mingw32/6.3.0/../../../libkernel32.a(dujcs01065.o)
 .idata$7       0x004f0280        0x4 c:/mingw/bin/../lib/gcc/mingw32/6.3.0/../../../libkernel32.a(dujcs01088.o)
 .idata$7       0x004f0284        0x4 c:/mingw/bin/../lib/gcc/mingw32/6.3.0/../../../libkernel32.a(dujcs01140.o)
 .idata$7       0x004f0288        0x4 c:/mingw/bin/../lib/gcc/mingw32/6.3.0/../../../libkernel32.a(dujcs01152.o)
 .idata$7       0x004f028c        0x4 c:/mingw/bin/../lib/gcc/mingw32/6.3.0/../../../libkernel32.a(dujcs01173.o)
 .idata$7       0x004f0290        0x4 c:/mingw/bin/../lib/gcc/mingw32/6.3.0/../../../libkernel32.a(dujcs01188.o)
 .idata$7       0x004f0294        0x4 c:/mingw/bin/../lib/gcc/mingw32/6.3.0/../../../libkernel32.a(dujcs01213.o)
 .idata$7       0x004f0298        0x4 c:/mingw/bin/../lib/gcc/mingw32/6.3.0/../../../libkernel32.a(dujcs01215.o)
 .idata$7       0x004f029c        0x4 c:/mingw/bin/../lib/gcc/mingw32/6.3.0/../../../libkernel32.a(dujcs01223.o)
 .idata$7       0x004f02a0        0x4 c:/mingw/bin/../lib/gcc/mingw32/6.3.0/../../../libkernel32.a(dujcs01247.o)
 .idata$7       0x004f02a4        0x4 c:/mingw/bin/../lib/gcc/mingw32/6.3.0/../../../libkernel32.a(dujcs01267.o)
 .idata$7       0x004f02a8       0x10 c:/mingw/bin/../lib/gcc/mingw32/6.3.0/../../../libkernel32.a(dujct.o)
                0x004f02a8                _libkernel32_a_iname
 .idata$7       0x004f02b8        0x4 c:/mingw/bin/../lib/gcc/mingw32/6.3.0/../../../libmoldname.a(dagwbs00080.o)
 .idata$7       0x004f02bc        0x4 c:/mingw/bin/../lib/gcc/mingw32/6.3.0/../../../libmoldname.a(dagwbs00082.o)
 .idata$7       0x004f02c0        0xc c:/mingw/bin/../lib/gcc/mingw32/6.3.0/../../../libmoldname.a(dagwbt.o)
                0x004f02c0                _libmoldname_a_iname
 .idata$7       0x004f02cc        0x4 c:/mingw/bin/../lib/gcc/mingw32/6.3.0/../../../libmsvcrt.a(djpvbs00088.o)
 .idata$7       0x004f02d0        0x4 c:/mingw/bin/../lib/gcc/mingw32/6.3.0/../../../libmsvcrt.a(djpvbs00119.o)
 .idata$7       0x004f02d4        0x4 c:/mingw/bin/../lib/gcc/mingw32/6.3.0/../../../libmsvcrt.a(djpvbs00131.o)
 .idata$7       0x004f02d8        0x4 c:/mingw/bin/../lib/gcc/mingw32/6.3.0/../../../libmsvcrt.a(djpvbs00133.o)
 .idata$7       0x004f02dc        0x4 c:/mingw/bin/../lib/gcc/mingw32/6.3.0/../../../libmsvcrt.a(djpvbs00153.o)
 .idata$7       0x004f02e0        0x4 c:/mingw/bin/../lib/gcc/mingw32/6.3.0/../../../libmsvcrt.a(djpvbs00201.o)
 .idata$7       0x004f02e4        0x4 c:/mingw/bin/../lib/gcc/mingw32/6.3.0/../../../libmsvcrt.a(djpvbs00219.o)
 .idata$7       0x004f02e8        0x4 c:/mingw/bin/../lib/gcc/mingw32/6.3.0/../../../libmsvcrt.a(djpvbs00285.o)
 .idata$7       0x004f02ec        0x4 c:/mingw/bin/../lib/gcc/mingw32/6.3.0/../../../libmsvcrt.a(djpvbs00324.o)
 .idata$7       0x004f02f0        0x4 c:/mingw/bin/../lib/gcc/mingw32/6.3.0/../../../libmsvcrt.a(djpvbs00350.o)
 .idata$7       0x004f02f4        0x4 c:/mingw/bin/../lib/gcc/mingw32/6.3.0/../../../libmsvcrt.a(djpvbs00417.o)
 .idata$7       0x004f02f8        0x4 c:/mingw/bin/../lib/gcc/mingw32/6.3.0/../../../libmsvcrt.a(djpvbs00422.o)
 .idata$7       0x004f02fc        0x4 c:/mingw/bin/../lib/gcc/mingw32/6.3.0/../../../libmsvcrt.a(djpvbs00689.o)
 .idata$7       0x004f0300        0x4 c:/mingw/bin/../lib/gcc/mingw32/6.3.0/../../../libmsvcrt.a(djpvbs00698.o)
 .idata$7       0x004f0304        0x4 c:/mingw/bin/../lib/gcc/mingw32/6.3.0/../../../libmsvcrt.a(djpvbs00753.o)
 .idata$7       0x004f0308        0x4 c:/mingw/bin/../lib/gcc/mingw32/6.3.0/../../../libmsvcrt.a(djpvbs00803.o)
 .idata$7       0x004f030c        0x4 c:/mingw/bin/../lib/gcc/mingw32/6.3.0/../../../libmsvcrt.a(djpvbs00813.o)
 .idata$7       0x004f0310        0x4 c:/mingw/bin/../lib/gcc/mingw32/6.3.0/../../../libmsvcrt.a(djpvbs01083.o)
 .idata$7       0x004f0314        0x4 c:/mingw/bin/../lib/gcc/mingw32/6.3.0/../../../libmsvcrt.a(djpvbs01091.o)
 .idata$7       0x004f0318        0x4 c:/mingw/bin/../lib/gcc/mingw32/6.3.0/../../../libmsvcrt.a(djpvbs01093.o)
 .idata$7       0x004f031c        0x4 c:/mingw/bin/../lib/gcc/mingw32/6.3.0/../../../libmsvcrt.a(djpvbs01098.o)
 .idata$7       0x004f0320        0x4 c:/mingw/bin/../lib/gcc/mingw32/6.3.0/../../../libmsvcrt.a(djpvbs01106.o)
 .idata$7       0x004f0324        0x4 c:/mingw/bin/../lib/gcc/mingw32/6.3.0/../../../libmsvcrt.a(djpvbs01108.o)
 .idata$7       0x004f0328        0x4 c:/mingw/bin/../lib/gcc/mingw32/6.3.0/../../../libmsvcrt.a(djpvbs01111.o)
 .idata$7       0x004f032c        0x4 c:/mingw/bin/../lib/gcc/mingw32/6.3.0/../../../libmsvcrt.a(djpvbs01114.o)
 .idata$7       0x004f0330        0x4 c:/mingw/bin/../lib/gcc/mingw32/6.3.0/../../../libmsvcrt.a(djpvbs01115.o)
 .idata$7       0x004f0334        0x4 c:/mingw/bin/../lib/gcc/mingw32/6.3.0/../../../libmsvcrt.a(djpvbs01117.o)
 .idata$7       0x004f0338        0x4 c:/mingw/bin/../lib/gcc/mingw32/6.3.0/../../../libmsvcrt.a(djpvbs01122.o)
 .idata$7       0x004f033c        0x4 c:/mingw/bin/../lib/gcc/mingw32/6.3.0/../../../libmsvcrt.a(djpvbs01126.o)
 .idata$7       0x004f0340        0x4 c:/mingw/bin/../lib/gcc/mingw32/6.3.0/../../../libmsvcrt.a(djpvbs01127.o)
 .idata$7       0x004f0344        0x4 c:/mingw/bin/../lib/gcc/mingw32/6.3.0/../../../libmsvcrt.a(djpvbs01130.o)
 .idata$7       0x004f0348        0x4 c:/mingw/bin/../lib/gcc/mingw32/6.3.0/../../../libmsvcrt.a(djpvbs01131.o)
 .idata$7       0x004f034c        0x4 c:/mingw/bin/../lib/gcc/mingw32/6.3.0/../../../libmsvcrt.a(djpvbs01142.o)
 .idata$7       0x004f0350        0x4 c:/mingw/bin/../lib/gcc/mingw32/6.3.0/../../../libmsvcrt.a(djpvbs01147.o)
 .idata$7       0x004f0354        0x4 c:/mingw/bin/../lib/gcc/mingw32/6.3.0/../../../libmsvcrt.a(djpvbs01169.o)
 .idata$7       0x004f0358        0x4 c:/mingw/bin/../lib/gcc/mingw32/6.3.0/../../../libmsvcrt.a(djpvbs01182.o)
 .idata$7       0x004f035c        0x4 c:/mingw/bin/../lib/gcc/mingw32/6.3.0/../../../libmsvcrt.a(djpvbs01187.o)
 .idata$7       0x004f0360        0x4 c:/mingw/bin/../lib/gcc/mingw32/6.3.0/../../../libmsvcrt.a(djpvbs01194.o)
 .idata$7       0x004f0364        0x4 c:/mingw/bin/../lib/gcc/mingw32/6.3.0/../../../libmsvcrt.a(djpvbs01197.o)
 .idata$7       0x004f0368        0x4 c:/mingw/bin/../lib/gcc/mingw32/6.3.0/../../../libmsvcrt.a(djpvbs01198.o)
 .idata$7       0x004f036c        0x4 c:/mingw/bin/../lib/gcc/mingw32/6.3.0/../../../libmsvcrt.a(djpvbs01199.o)
 .idata$7       0x004f0370        0x4 c:/mingw/bin/../lib/gcc/mingw32/6.3.0/../../../libmsvcrt.a(djpvbs01201.o)
 .idata$7       0x004f0374        0x4 c:/mingw/bin/../lib/gcc/mingw32/6.3.0/../../../libmsvcrt.a(djpvbs01203.o)
 .idata$7       0x004f0378        0x4 c:/mingw/bin/../lib/gcc/mingw32/6.3.0/../../../libmsvcrt.a(djpvbs01215.o)
 .idata$7       0x004f037c        0x4 c:/mingw/bin/../lib/gcc/mingw32/6.3.0/../../../libmsvcrt.a(djpvbs01220.o)
 .idata$7       0x004f0380        0x4 c:/mingw/bin/../lib/gcc/mingw32/6.3.0/../../../libmsvcrt.a(djpvbs01223.o)
 .idata$7       0x004f0384        0x4 c:/mingw/bin/../lib/gcc/mingw32/6.3.0/../../../libmsvcrt.a(djpvbs01227.o)
 .idata$7       0x004f0388        0x4 c:/mingw/bin/../lib/gcc/mingw32/6.3.0/../../../libmsvcrt.a(djpvbs01229.o)
 .idata$7       0x004f038c        0x4 c:/mingw/bin/../lib/gcc/mingw32/6.3.0/../../../libmsvcrt.a(djpvbs01236.o)
 .idata$7       0x004f0390        0x4 c:/mingw/bin/../lib/gcc/mingw32/6.3.0/../../../libmsvcrt.a(djpvbs01238.o)
 .idata$7       0x004f0394        0x4 c:/mingw/bin/../lib/gcc/mingw32/6.3.0/../../../libmsvcrt.a(djpvbs01240.o)
 .idata$7       0x004f0398        0x4 c:/mingw/bin/../lib/gcc/mingw32/6.3.0/../../../libmsvcrt.a(djpvbs01241.o)
 .idata$7       0x004f039c        0x4 c:/mingw/bin/../lib/gcc/mingw32/6.3.0/../../../libmsvcrt.a(djpvbs01242.o)
 .idata$7       0x004f03a0        0x4 c:/mingw/bin/../lib/gcc/mingw32/6.3.0/../../../libmsvcrt.a(djpvbs01243.o)
 .idata$7       0x004f03a4        0x4 c:/mingw/bin/../lib/gcc/mingw32/6.3.0/../../../libmsvcrt.a(djpvbs01245.o)
 .idata$7       0x004f03a8        0x4 c:/mingw/bin/../lib/gcc/mingw32/6.3.0/../../../libmsvcrt.a(djpvbs01248.o)
 .idata$7       0x004f03ac        0x4 c:/mingw/bin/../lib/gcc/mingw32/6.3.0/../../../libmsvcrt.a(djpvbs01249.o)
 .idata$7       0x004f03b0        0x4 c:/mingw/bin/../lib/gcc/mingw32/6.3.0/../../../libmsvcrt.a(djpvbs01252.o)
 .idata$7       0x004f03b4        0x4 c:/mingw/bin/../lib/gcc/mingw32/6.3.0/../../../libmsvcrt.a(djpvbs01253.o)
 .idata$7       0x004f03b8        0x4 c:/mingw/bin/../lib/gcc/mingw32/6.3.0/../../../libmsvcrt.a(djpvbs01256.o)
 .idata$7       0x004f03bc        0x4 c:/mingw/bin/../lib/gcc/mingw32/6.3.0/../../../libmsvcrt.a(djpvbs01257.o)
 .idata$7       0x004f03c0        0x4 c:/mingw/bin/../lib/gcc/mingw32/6.3.0/../../../libmsvcrt.a(djpvbs01258.o)
 .idata$7       0x004f03c4        0x4 c:/mingw/bin/../lib/gcc/mingw32/6.3.0/../../../libmsvcrt.a(djpvbs01262.o)
 .idata$7       0x004f03c8        0x4 c:/mingw/bin/../lib/gcc/mingw32/6.3.0/../../../libmsvcrt.a(djpvbs01263.o)
 .idata$7       0x004f03cc        0x4 c:/mingw/bin/../lib/gcc/mingw32/6.3.0/../../../libmsvcrt.a(djpvbs01269.o)
 .idata$7       0x004f03d0        0x4 c:/mingw/bin/../lib/gcc/mingw32/6.3.0/../../../libmsvcrt.a(djpvbs01272.o)
 .idata$7       0x004f03d4        0x4 c:/mingw/bin/../lib/gcc/mingw32/6.3.0/../../../libmsvcrt.a(djpvbs01277.o)
 .idata$7       0x004f03d8        0x4 c:/mingw/bin/../lib/gcc/mingw32/6.3.0/../../../libmsvcrt.a(djpvbs01278.o)
 .idata$7       0x004f03dc        0x4 c:/mingw/bin/../lib/gcc/mingw32/6.3.0/../../../libmsvcrt.a(djpvbs01281.o)
 .idata$7       0x004f03e0        0x4 c:/mingw/bin/../lib/gcc/mingw32/6.3.0/../../../libmsvcrt.a(djpvbs01284.o)
 .idata$7       0x004f03e4        0x4 c:/mingw/bin/../lib/gcc/mingw32/6.3.0/../../../libmsvcrt.a(djpvbs01308.o)
 .idata$7       0x004f03e8        0x4 c:/mingw/bin/../lib/gcc/mingw32/6.3.0/../../../libmsvcrt.a(djpvbs01311.o)
 .idata$7       0x004f03ec        0x4 c:/mingw/bin/../lib/gcc/mingw32/6.3.0/../../../libmsvcrt.a(djpvbs01325.o)
 .idata$7       0x004f03f0        0xc c:/mingw/bin/../lib/gcc/mingw32/6.3.0/../../../libmsvcrt.a(djpvbt.o)
                0x004f03f0                _libmsvcrt_a_iname
 .idata$7       0x004f03fc        0x4 c:/mingw/bin/../lib/gcc/mingw32/6.3.0/../../../libole32.a(damcs00012.o)
 .idata$7       0x004f0400        0x4 c:/mingw/bin/../lib/gcc/mingw32/6.3.0/../../../libole32.a(damcs00037.o)
 .idata$7       0x004f0404        0x4 c:/mingw/bin/../lib/gcc/mingw32/6.3.0/../../../libole32.a(damcs00072.o)
 .idata$7       0x004f0408        0xc c:/mingw/bin/../lib/gcc/mingw32/6.3.0/../../../libole32.a(damct.o)
                0x004f0408                _libole32_a_iname
 .idata$7       0x004f0414        0x4 c:/mingw/bin/../lib/gcc/mingw32/6.3.0/../../../libshell32.a(duocs00144.o)
 .idata$7       0x004f0418        0xc c:/mingw/bin/../lib/gcc/mingw32/6.3.0/../../../libshell32.a(duoct.o)
                0x004f0418                _libshell32_a_iname
 .idata$7       0x004f0424        0x4 c:/mingw/bin/../lib/gcc/mingw32/6.3.0/../../../libuser32.a(dtpcs00006.o)
 .idata$7       0x004f0428        0x4 c:/mingw/bin/../lib/gcc/mingw32/6.3.0/../../../libuser32.a(dtpcs00011.o)
 .idata$7       0x004f042c        0x4 c:/mingw/bin/../lib/gcc/mingw32/6.3.0/../../../libuser32.a(dtpcs00053.o)
 .idata$7       0x004f0430        0x4 c:/mingw/bin/../lib/gcc/mingw32/6.3.0/../../../libuser32.a(dtpcs00054.o)
 .idata$7       0x004f0434        0x4 c:/mingw/bin/../lib/gcc/mingw32/6.3.0/../../../libuser32.a(dtpcs00056.o)
 .idata$7       0x004f0438        0x4 c:/mingw/bin/../lib/gcc/mingw32/6.3.0/../../../libuser32.a(dtpcs00061.o)
 .idata$7       0x004f043c        0x4 c:/mingw/bin/../lib/gcc/mingw32/6.3.0/../../../libuser32.a(dtpcs00074.o)
 .idata$7       0x004f0440        0x4 c:/mingw/bin/../lib/gcc/mingw32/6.3.0/../../../libuser32.a(dtpcs00080.o)
 .idata$7       0x004f0444        0x4 c:/mingw/bin/../lib/gcc/mingw32/6.3.0/../../../libuser32.a(dtpcs00088.o)
 .idata$7       0x004f0448        0x4 c:/mingw/bin/../lib/gcc/mingw32/6.3.0/../../../libuser32.a(dtpcs00089.o)
 .idata$7       0x004f044c        0x4 c:/mingw/bin/../lib/gcc/mingw32/6.3.0/../../../libuser32.a(dtpcs00090.o)
 .idata$7       0x004f0450        0x4 c:/mingw/bin/../lib/gcc/mingw32/6.3.0/../../../libuser32.a(dtpcs00091.o)
 .idata$7       0x004f0454        0x4 c:/mingw/bin/../lib/gcc/mingw32/6.3.0/../../../libuser32.a(dtpcs00127.o)
 .idata$7       0x004f0458        0x4 c:/mingw/bin/../lib/gcc/mingw32/6.3.0/../../../libuser32.a(dtpcs00134.o)
 .idata$7       0x004f045c        0x4 c:/mingw/bin/../lib/gcc/mingw32/6.3.0/../../../libuser32.a(dtpcs00135.o)
 .idata$7       0x004f0460        0x4 c:/mingw/bin/../lib/gcc/mingw32/6.3.0/../../../libuser32.a(dtpcs00137.o)
 .idata$7       0x004f0464        0x4 c:/mingw/bin/../lib/gcc/mingw32/6.3.0/../../../libuser32.a(dtpcs00140.o)
 .idata$7       0x004f0468        0x4 c:/mingw/bin/../lib/gcc/mingw32/6.3.0/../../../libuser32.a(dtpcs00142.o)
 .idata$7       0x004f046c        0x4 c:/mingw/bin/../lib/gcc/mingw32/6.3.0/../../../libuser32.a(dtpcs00144.o)
 .idata$7       0x004f0470        0x4 c:/mingw/bin/../lib/gcc/mingw32/6.3.0/../../../libuser32.a(dtpcs00147.o)
 .idata$7       0x004f0474        0x4 c:/mingw/bin/../lib/gcc/mingw32/6.3.0/../../../libuser32.a(dtpcs00149.o)
 .idata$7       0x004f0478        0x4 c:/mingw/bin/../lib/gcc/mingw32/6.3.0/../../../libuser32.a(dtpcs00150.o)
 .idata$7       0x004f047c        0x4 c:/mingw/bin/../lib/gcc/mingw32/6.3.0/../../../libuser32.a(dtpcs00163.o)
 .idata$7       0x004f0480        0x4 c:/mingw/bin/../lib/gcc/mingw32/6.3.0/../../../libuser32.a(dtpcs00168.o)
 .idata$7       0x004f0484        0x4 c:/mingw/bin/../lib/gcc/mingw32/6.3.0/../../../libuser32.a(dtpcs00177.o)
 .idata$7       0x004f0488        0x4 c:/mingw/bin/../lib/gcc/mingw32/6.3.0/../../../libuser32.a(dtpcs00178.o)
 .idata$7       0x004f048c        0x4 c:/mingw/bin/../lib/gcc/mingw32/6.3.0/../../../libuser32.a(dtpcs00180.o)
 .idata$7       0x004f0490        0x4 c:/mingw/bin/../lib/gcc/mingw32/6.3.0/../../../libuser32.a(dtpcs00182.o)
 .idata$7       0x004f0494        0x4 c:/mingw/bin/../lib/gcc/mingw32/6.3.0/../../../libuser32.a(dtpcs00184.o)
 .idata$7       0x004f0498        0x4 c:/mingw/bin/../lib/gcc/mingw32/6.3.0/../../../libuser32.a(dtpcs00210.o)
 .idata$7       0x004f049c        0x4 c:/mingw/bin/../lib/gcc/mingw32/6.3.0/../../../libuser32.a(dtpcs00214.o)
 .idata$7       0x004f04a0        0x4 c:/mingw/bin/../lib/gcc/mingw32/6.3.0/../../../libuser32.a(dtpcs00224.o)
 .idata$7       0x004f04a4        0x4 c:/mingw/bin/../lib/gcc/mingw32/6.3.0/../../../libuser32.a(dtpcs00225.o)
 .idata$7       0x004f04a8        0x4 c:/mingw/bin/../lib/gcc/mingw32/6.3.0/../../../libuser32.a(dtpcs00236.o)
 .idata$7       0x004f04ac        0x4 c:/mingw/bin/../lib/gcc/mingw32/6.3.0/../../../libuser32.a(dtpcs00238.o)
 .idata$7       0x004f04b0        0x4 c:/mingw/bin/../lib/gcc/mingw32/6.3.0/../../../libuser32.a(dtpcs00241.o)
 .idata$7       0x004f04b4        0x4 c:/mingw/bin/../lib/gcc/mingw32/6.3.0/../../../libuser32.a(dtpcs00247.o)
 .idata$7       0x004f04b8        0x4 c:/mingw/bin/../lib/gcc/mingw32/6.3.0/../../../libuser32.a(dtpcs00248.o)
 .idata$7       0x004f04bc        0x4 c:/mingw/bin/../lib/gcc/mingw32/6.3.0/../../../libuser32.a(dtpcs00250.o)
 .idata$7       0x004f04c0        0x4 c:/mingw/bin/../lib/gcc/mingw32/6.3.0/../../../libuser32.a(dtpcs00253.o)
 .idata$7       0x004f04c4        0x4 c:/mingw/bin/../lib/gcc/mingw32/6.3.0/../../../libuser32.a(dtpcs00255.o)
 .idata$7       0x004f04c8        0x4 c:/mingw/bin/../lib/gcc/mingw32/6.3.0/../../../libuser32.a(dtpcs00257.o)
 .idata$7       0x004f04cc        0x4 c:/mingw/bin/../lib/gcc/mingw32/6.3.0/../../../libuser32.a(dtpcs00259.o)
 .idata$7       0x004f04d0        0x4 c:/mingw/bin/../lib/gcc/mingw32/6.3.0/../../../libuser32.a(dtpcs00269.o)
 .idata$7       0x004f04d4        0x4 c:/mingw/bin/../lib/gcc/mingw32/6.3.0/../../../libuser32.a(dtpcs00273.o)
 .idata$7       0x004f04d8        0x4 c:/mingw/bin/../lib/gcc/mingw32/6.3.0/../../../libuser32.a(dtpcs00293.o)
 .idata$7       0x004f04dc        0x4 c:/mingw/bin/../lib/gcc/mingw32/6.3.0/../../../libuser32.a(dtpcs00296.o)
 .idata$7       0x004f04e0        0x4 c:/mingw/bin/../lib/gcc/mingw32/6.3.0/../../../libuser32.a(dtpcs00304.o)
 .idata$7       0x004f04e4        0x4 c:/mingw/bin/../lib/gcc/mingw32/6.3.0/../../../libuser32.a(dtpcs00310.o)
 .idata$7       0x004f04e8        0x4 c:/mingw/bin/../lib/gcc/mingw32/6.3.0/../../../libuser32.a(dtpcs00318.o)
 .idata$7       0x004f04ec        0x4 c:/mingw/bin/../lib/gcc/mingw32/6.3.0/../../../libuser32.a(dtpcs00323.o)
 .idata$7       0x004f04f0        0x4 c:/mingw/bin/../lib/gcc/mingw32/6.3.0/../../../libuser32.a(dtpcs00325.o)
 .idata$7       0x004f04f4        0x4 c:/mingw/bin/../lib/gcc/mingw32/6.3.0/../../../libuser32.a(dtpcs00342.o)
 .idata$7       0x004f04f8        0x4 c:/mingw/bin/../lib/gcc/mingw32/6.3.0/../../../libuser32.a(dtpcs00347.o)
 .idata$7       0x004f04fc        0x4 c:/mingw/bin/../lib/gcc/mingw32/6.3.0/../../../libuser32.a(dtpcs00348.o)
 .idata$7       0x004f0500        0x4 c:/mingw/bin/../lib/gcc/mingw32/6.3.0/../../../libuser32.a(dtpcs00350.o)
 .idata$7       0x004f0504        0x4 c:/mingw/bin/../lib/gcc/mingw32/6.3.0/../../../libuser32.a(dtpcs00351.o)
 .idata$7       0x004f0508        0x4 c:/mingw/bin/../lib/gcc/mingw32/6.3.0/../../../libuser32.a(dtpcs00358.o)
 .idata$7       0x004f050c        0x4 c:/mingw/bin/../lib/gcc/mingw32/6.3.0/../../../libuser32.a(dtpcs00364.o)
 .idata$7       0x004f0510        0x4 c:/mingw/bin/../lib/gcc/mingw32/6.3.0/../../../libuser32.a(dtpcs00370.o)
 .idata$7       0x004f0514        0x4 c:/mingw/bin/../lib/gcc/mingw32/6.3.0/../../../libuser32.a(dtpcs00384.o)
 .idata$7       0x004f0518        0x4 c:/mingw/bin/../lib/gcc/mingw32/6.3.0/../../../libuser32.a(dtpcs00386.o)
 .idata$7       0x004f051c        0x4 c:/mingw/bin/../lib/gcc/mingw32/6.3.0/../../../libuser32.a(dtpcs00389.o)
 .idata$7       0x004f0520        0x4 c:/mingw/bin/../lib/gcc/mingw32/6.3.0/../../../libuser32.a(dtpcs00394.o)
 .idata$7       0x004f0524        0x4 c:/mingw/bin/../lib/gcc/mingw32/6.3.0/../../../libuser32.a(dtpcs00398.o)
 .idata$7       0x004f0528        0x4 c:/mingw/bin/../lib/gcc/mingw32/6.3.0/../../../libuser32.a(dtpcs00400.o)
 .idata$7       0x004f052c        0x4 c:/mingw/bin/../lib/gcc/mingw32/6.3.0/../../../libuser32.a(dtpcs00405.o)
 .idata$7       0x004f0530        0x4 c:/mingw/bin/../lib/gcc/mingw32/6.3.0/../../../libuser32.a(dtpcs00409.o)
 .idata$7       0x004f0534        0x4 c:/mingw/bin/../lib/gcc/mingw32/6.3.0/../../../libuser32.a(dtpcs00411.o)
 .idata$7       0x004f0538        0x4 c:/mingw/bin/../lib/gcc/mingw32/6.3.0/../../../libuser32.a(dtpcs00426.o)
 .idata$7       0x004f053c        0x4 c:/mingw/bin/../lib/gcc/mingw32/6.3.0/../../../libuser32.a(dtpcs00433.o)
 .idata$7       0x004f0540        0x4 c:/mingw/bin/../lib/gcc/mingw32/6.3.0/../../../libuser32.a(dtpcs00434.o)
 .idata$7       0x004f0544        0x4 c:/mingw/bin/../lib/gcc/mingw32/6.3.0/../../../libuser32.a(dtpcs00437.o)
 .idata$7       0x004f0548        0x4 c:/mingw/bin/../lib/gcc/mingw32/6.3.0/../../../libuser32.a(dtpcs00445.o)
 .idata$7       0x004f054c        0x4 c:/mingw/bin/../lib/gcc/mingw32/6.3.0/../../../libuser32.a(dtpcs00446.o)
 .idata$7       0x004f0550        0x4 c:/mingw/bin/../lib/gcc/mingw32/6.3.0/../../../libuser32.a(dtpcs00455.o)
 .idata$7       0x004f0554        0x4 c:/mingw/bin/../lib/gcc/mingw32/6.3.0/../../../libuser32.a(dtpcs00464.o)
 .idata$7       0x004f0558        0x4 c:/mingw/bin/../lib/gcc/mingw32/6.3.0/../../../libuser32.a(dtpcs00465.o)
 .idata$7       0x004f055c        0x4 c:/mingw/bin/../lib/gcc/mingw32/6.3.0/../../../libuser32.a(dtpcs00466.o)
 .idata$7       0x004f0560        0x4 c:/mingw/bin/../lib/gcc/mingw32/6.3.0/../../../libuser32.a(dtpcs00468.o)
 .idata$7       0x004f0564        0x4 c:/mingw/bin/../lib/gcc/mingw32/6.3.0/../../../libuser32.a(dtpcs00479.o)
 .idata$7       0x004f0568        0x4 c:/mingw/bin/../lib/gcc/mingw32/6.3.0/../../../libuser32.a(dtpcs00482.o)
 .idata$7       0x004f056c        0x4 c:/mingw/bin/../lib/gcc/mingw32/6.3.0/../../../libuser32.a(dtpcs00483.o)
 .idata$7       0x004f0570        0x4 c:/mingw/bin/../lib/gcc/mingw32/6.3.0/../../../libuser32.a(dtpcs00491.o)
 .idata$7       0x004f0574        0x4 c:/mingw/bin/../lib/gcc/mingw32/6.3.0/../../../libuser32.a(dtpcs00493.o)
 .idata$7       0x004f0578        0x4 c:/mingw/bin/../lib/gcc/mingw32/6.3.0/../../../libuser32.a(dtpcs00494.o)
 .idata$7       0x004f057c        0x4 c:/mingw/bin/../lib/gcc/mingw32/6.3.0/../../../libuser32.a(dtpcs00500.o)
 .idata$7       0x004f0580        0x4 c:/mingw/bin/../lib/gcc/mingw32/6.3.0/../../../libuser32.a(dtpcs00505.o)
 .idata$7       0x004f0584        0x4 c:/mingw/bin/../lib/gcc/mingw32/6.3.0/../../../libuser32.a(dtpcs00508.o)
 .idata$7       0x004f0588        0x4 c:/mingw/bin/../lib/gcc/mingw32/6.3.0/../../../libuser32.a(dtpcs00516.o)
 .idata$7       0x004f058c        0x4 c:/mingw/bin/../lib/gcc/mingw32/6.3.0/../../../libuser32.a(dtpcs00517.o)
 .idata$7       0x004f0590        0x4 c:/mingw/bin/../lib/gcc/mingw32/6.3.0/../../../libuser32.a(dtpcs00519.o)
 .idata$7       0x004f0594        0x4 c:/mingw/bin/../lib/gcc/mingw32/6.3.0/../../../libuser32.a(dtpcs00520.o)
 .idata$7       0x004f0598        0x4 c:/mingw/bin/../lib/gcc/mingw32/6.3.0/../../../libuser32.a(dtpcs00523.o)
 .idata$7       0x004f059c        0x4 c:/mingw/bin/../lib/gcc/mingw32/6.3.0/../../../libuser32.a(dtpcs00525.o)
 .idata$7       0x004f05a0        0x4 c:/mingw/bin/../lib/gcc/mingw32/6.3.0/../../../libuser32.a(dtpcs00530.o)
 .idata$7       0x004f05a4        0x4 c:/mingw/bin/../lib/gcc/mingw32/6.3.0/../../../libuser32.a(dtpcs00533.o)
 .idata$7       0x004f05a8        0x4 c:/mingw/bin/../lib/gcc/mingw32/6.3.0/../../../libuser32.a(dtpcs00534.o)
 .idata$7       0x004f05ac        0x4 c:/mingw/bin/../lib/gcc/mingw32/6.3.0/../../../libuser32.a(dtpcs00535.o)
 .idata$7       0x004f05b0        0x4 c:/mingw/bin/../lib/gcc/mingw32/6.3.0/../../../libuser32.a(dtpcs00554.o)
 .idata$7       0x004f05b4        0x4 c:/mingw/bin/../lib/gcc/mingw32/6.3.0/../../../libuser32.a(dtpcs00563.o)
 .idata$7       0x004f05b8        0x4 c:/mingw/bin/../lib/gcc/mingw32/6.3.0/../../../libuser32.a(dtpcs00569.o)
 .idata$7       0x004f05bc        0x4 c:/mingw/bin/../lib/gcc/mingw32/6.3.0/../../../libuser32.a(dtpcs00571.o)
 .idata$7       0x004f05c0        0x4 c:/mingw/bin/../lib/gcc/mingw32/6.3.0/../../../libuser32.a(dtpcs00572.o)
 .idata$7       0x004f05c4        0x4 c:/mingw/bin/../lib/gcc/mingw32/6.3.0/../../../libuser32.a(dtpcs00574.o)
 .idata$7       0x004f05c8        0x4 c:/mingw/bin/../lib/gcc/mingw32/6.3.0/../../../libuser32.a(dtpcs00581.o)
 .idata$7       0x004f05cc        0x4 c:/mingw/bin/../lib/gcc/mingw32/6.3.0/../../../libuser32.a(dtpcs00582.o)
 .idata$7       0x004f05d0        0x4 c:/mingw/bin/../lib/gcc/mingw32/6.3.0/../../../libuser32.a(dtpcs00585.o)
 .idata$7       0x004f05d4        0x4 c:/mingw/bin/../lib/gcc/mingw32/6.3.0/../../../libuser32.a(dtpcs00591.o)
 .idata$7       0x004f05d8        0x4 c:/mingw/bin/../lib/gcc/mingw32/6.3.0/../../../libuser32.a(dtpcs00598.o)
 .idata$7       0x004f05dc        0x4 c:/mingw/bin/../lib/gcc/mingw32/6.3.0/../../../libuser32.a(dtpcs00602.o)
 .idata$7       0x004f05e0        0x4 c:/mingw/bin/../lib/gcc/mingw32/6.3.0/../../../libuser32.a(dtpcs00608.o)
 .idata$7       0x004f05e4        0x4 c:/mingw/bin/../lib/gcc/mingw32/6.3.0/../../../libuser32.a(dtpcs00622.o)
 .idata$7       0x004f05e8        0xc c:/mingw/bin/../lib/gcc/mingw32/6.3.0/../../../libuser32.a(dtpct.o)
                0x004f05e8                _libuser32_a_iname

.CRT            0x004f1000      0x200
                0x004f1000                ___crt_xc_start__ = .
 *(SORT(.CRT$XC*))
                0x004f1000                ___crt_xc_end__ = .
                0x004f1000                ___crt_xi_start__ = .
 *(SORT(.CRT$XI*))
                0x004f1000                ___crt_xi_end__ = .
                0x004f1000                ___crt_xl_start__ = .
 *(SORT(.CRT$XL*))
 .CRT$XLA       0x004f1000        0x4 c:/mingw/bin/../lib/gcc/mingw32/6.3.0/../../../libmingw32.a(tlssup.o)
                0x004f1000                __xl_a
 .CRT$XLC       0x004f1004        0x4 c:/mingw/bin/../lib/gcc/mingw32/6.3.0/../../../libmingw32.a(tlssup.o)
                0x004f1004                __xl_c
 .CRT$XLD       0x004f1008        0x4 c:/mingw/bin/../lib/gcc/mingw32/6.3.0/../../../libmingw32.a(tlssup.o)
                0x004f1008                __xl_d
 .CRT$XLZ       0x004f100c        0x4 c:/mingw/bin/../lib/gcc/mingw32/6.3.0/../../../libmingw32.a(tlssup.o)
                0x004f100c                __xl_z
                0x004f1010                ___crt_xp_start__ = .
 *(SORT(.CRT$XP*))
                0x004f1010                ___crt_xp_end__ = .
                0x004f1010                ___crt_xt_start__ = .
 *(SORT(.CRT$XT*))
                0x004f1010                ___crt_xt_end__ = .
 .CRT$XDA       0x004f1010        0x4 c:/mingw/bin/../lib/gcc/mingw32/6.3.0/../../../libmingw32.a(tlssup.o)
 .CRT$XDZ       0x004f1014        0x4 c:/mingw/bin/../lib/gcc/mingw32/6.3.0/../../../libmingw32.a(tlssup.o)

.tls            0x004f2000      0x200
                0x004f2000                ___tls_start__ = .
 *(.tls$AAA)
 .tls$AAA       0x004f2000        0x4 c:/mingw/bin/../lib/gcc/mingw32/6.3.0/../../../libmingw32.a(tlssup.o)
                0x004f2000                _tls_start
 *(.tls)
 .tls           0x004f2004       0x18 c:/mingw/bin/../lib/gcc/mingw32/6.3.0/../../../libmingw32.a(tlssup.o)
                0x004f2004                _tls_used
 *(.tls$)
 *(SORT(.tls$*))
 .tls$ZZZ       0x004f201c        0x4 c:/mingw/bin/../lib/gcc/mingw32/6.3.0/../../../libmingw32.a(tlssup.o)
                0x004f201c                _tls_end
 *(.tls$ZZZ)
                0x004f2020                ___tls_end__ = .

.endjunk        0x004f3000        0x0
                [!provide]                PROVIDE (end, .)
                [!provide]                PROVIDE (_end, .)
                0x004f3000                __end__ = .

.rsrc           0x004f3000     0x3000
 *(.rsrc)
 .rsrc          0x004f3000     0x2f08 putty.res.o
 *(.rsrc$*)

.reloc
 *(.reloc)

.stab
 *(.stab)

.stabstr
 *(.stabstr)

.debug_aranges
 *(.debug_aranges)

.zdebug_aranges
 *(.zdebug_aranges)

.debug_pubnames
 *(.debug_pubnames)

.zdebug_pubnames
 *(.zdebug_pubnames)

.debug_pubtypes
 *(.debug_pubtypes)

.zdebug_pubtypes
 *(.zdebug_pubtypes)

.debug_info
 *(.debug_info .gnu.linkonce.wi.*)

.zdebug_info
 *(.zdebug_info .zdebug.gnu.linkonce.wi.*)

.debug_abbrev
 *(.debug_abbrev)

.zdebug_abbrev
 *(.zdebug_abbrev)

.debug_line
 *(.debug_line)

.zdebug_line
 *(.zdebug_line)

.debug_frame
 *(.debug_frame*)

.zdebug_frame
 *(.zdebug_frame*)

.debug_str
 *(.debug_str)

.zdebug_str
 *(.zdebug_str)

.debug_loc
 *(.debug_loc)

.zdebug_loc
 *(.zdebug_loc)

.debug_macinfo
 *(.debug_macinfo)

.zdebug_macinfo
 *(.zdebug_macinfo)

.debug_weaknames
 *(.debug_weaknames)

.zdebug_weaknames
 *(.zdebug_weaknames)

.debug_funcnames
 *(.debug_funcnames)

.zdebug_funcnames
 *(.zdebug_funcnames)

.debug_typenames
 *(.debug_typenames)

.zdebug_typenames
 *(.zdebug_typenames)

.debug_varnames
 *(.debug_varnames)

.zdebug_varnames
 *(.zdebug_varnames)

.debug_macro
 *(.debug_macro)

.zdebug_macro
 *(.zdebug_macro)

.debug_ranges
 *(.debug_ranges)

.zdebug_ranges
 *(.zdebug_ranges)

.debug_types
 *(.debug_types .gnu.linkonce.wt.*)

.zdebug_types
 *(.zdebug_types .gnu.linkonce.wt.*)
OUTPUT(putty.exe pei-i386)
